
eNVM.elf:     file format elf32-littlearm
eNVM.elf
architecture: armv7, flags 0x00000112:
EXEC_P, HAS_SYMS, D_PAGED
start address 0x20000191

Program Header:
0x70000001 off    0x00018960 vaddr 0x20008960 paddr 0x20008960 align 2**2
         filesz 0x00000008 memsz 0x00000008 flags r--
    LOAD off    0x00010000 vaddr 0x20000000 paddr 0x20000000 align 2**16
         filesz 0x00009340 memsz 0x00010000 flags rwx
private flags = 5000200: [Version5 EABI] [soft-float ABI]

Sections:
Idx Name            Size      VMA       LMA       File off  Algn  Flags
  0 .vector_table   00000190  20000000  20000000  00010000  2**4  CONTENTS, ALLOC, LOAD, READONLY, CODE
  1 .boot_code      00000320  20000190  20000190  00010190  2**4  CONTENTS, ALLOC, LOAD, READONLY, CODE
  2 .text           000084b0  200004b0  200004b0  000104b0  2**4  CONTENTS, ALLOC, LOAD, READONLY, CODE
  3 .ARM.exidx      00000008  20008960  20008960  00018960  2**2  CONTENTS, ALLOC, LOAD, READONLY, DATA
  4 .data           000009d0  20008970  20008970  00018970  2**4  CONTENTS, ALLOC, LOAD, DATA
  5 .bss            00000160  20009340  20009340  00019340  2**4  ALLOC
  6 .heap           00005b60  200094a0  200094a0  00019340  2**4  ALLOC
  7 .stack          00001000  2000f000  2000f000  00019340  2**4  ALLOC
  8 .debug_aranges  00000588  00000000  00000000  00019340  2**3  CONTENTS, READONLY, DEBUGGING
  9 .debug_info     0000a0fd  00000000  00000000  000198c8  2**0  CONTENTS, READONLY, DEBUGGING
 10 .debug_abbrev   000015e0  00000000  00000000  000239c5  2**0  CONTENTS, READONLY, DEBUGGING
 11 .debug_line     00004c7a  00000000  00000000  00024fa5  2**0  CONTENTS, READONLY, DEBUGGING
 12 .debug_frame    00002328  00000000  00000000  00029c20  2**2  CONTENTS, READONLY, DEBUGGING
 13 .debug_str      000142ff  00000000  00000000  0002bf48  2**0  CONTENTS, READONLY, DEBUGGING
 14 .ARM.attributes 00000029  00000000  00000000  00040247  2**0  CONTENTS, READONLY
 15 .debug_ranges   00000580  00000000  00000000  00040270  2**0  CONTENTS, READONLY, DEBUGGING
 16 .debug_macro    00002412  00000000  00000000  000407f0  2**0  CONTENTS, READONLY, DEBUGGING
 17 .comment        00000066  00000000  00000000  00042c02  2**0  CONTENTS, READONLY
SYMBOL TABLE:
20000000 l    d  .vector_table	00000000 .vector_table
20000190 l    d  .boot_code	00000000 .boot_code
200004b0 l    d  .text	00000000 .text
20008960 l    d  .ARM.exidx	00000000 .ARM.exidx
20008970 l    d  .data	00000000 .data
20009340 l    d  .bss	00000000 .bss
200094a0 l    d  .heap	00000000 .heap
2000f000 l    d  .stack	00000000 .stack
00000000 l    d  .debug_aranges	00000000 .debug_aranges
00000000 l    d  .debug_info	00000000 .debug_info
00000000 l    d  .debug_abbrev	00000000 .debug_abbrev
00000000 l    d  .debug_line	00000000 .debug_line
00000000 l    d  .debug_frame	00000000 .debug_frame
00000000 l    d  .debug_str	00000000 .debug_str
00000000 l    d  .ARM.attributes	00000000 .ARM.attributes
00000000 l    d  .debug_ranges	00000000 .debug_ranges
00000000 l    d  .debug_macro	00000000 .debug_macro
00000000 l    d  .comment	00000000 .comment
00000000 l    df *ABS*	00000000 ./CMSIS/startup_gcc/startup_m2sxxx.o
20000190 l       .boot_code	00000000 _start
20000456 l       .boot_code	00000000 SF2_MDDR_MODE_CR
20000452 l       .boot_code	00000000 SF2_EDAC_CR
200001b0 l       .boot_code	00000000 check_esram_edac
200001b8 l       .boot_code	00000000 check_stack_init
200001ca l       .boot_code	00000000 system_init
200001be l       .boot_code	00000000 clear_stack
20000436 l       .boot_code	00000000 RAM_INIT_PATTERN
20000308 l       .boot_code	00000000 fill_memory
200001f2 l       .boot_code	00000000 remap_memory
2000044a l       .boot_code	00000000 SF2_DDRB_NB_SIZE
2000044e l       .boot_code	00000000 SF2_DDRB_CR
20000212 l       .boot_code	00000000 check_esram_remap
2000043e l       .boot_code	00000000 SF2_ESRAM_CR
20000446 l       .boot_code	00000000 SF2_ENVM_REMAP_CR
20000442 l       .boot_code	00000000 SF2_DDR_CR
20000228 l       .boot_code	00000000 check_mirrored_nvm
20000242 l       .boot_code	00000000 copy_data
20000298 l       .boot_code	00000000 block_copy
20000238 l       .boot_code	00000000 copy_text
2000024c l       .boot_code	00000000 clear_bss
20000258 l       .boot_code	00000000 clear_heap
20000280 l       .boot_code	00000000 call_glob_ctor
2000043a l       .boot_code	00000000 HEAP_INIT_PATTERN
2000028a l       .boot_code	00000000 branch_to_main
20000296 l       .boot_code	00000000 ExitLoop
200002ec l       .boot_code	00000000 block_copy_exit
200002a8 l       .boot_code	00000000 block_copy_address_ok
200002b8 l       .boot_code	00000000 block_copy_continue
200002b2 l       .boot_code	00000000 block_copy_byte_copy
200002f0 l       .boot_code	00000000 block_copy_byte
200002c2 l       .boot_code	00000000 block_copy_loop
200002da l       .boot_code	00000000 copy_spare_bytes
200002f6 l       .boot_code	00000000 block_copy_byte_loop
2000037c l       .boot_code	00000000 fill_memory_exit
2000033e l       .boot_code	00000000 fill_memory_end_start
2000032a l       .boot_code	00000000 fill_memory_spare_bytes_start
20000362 l       .boot_code	00000000 fill_memory_spare_bytes_end
20000354 l       .boot_code	00000000 fill_memory_loop
20000366 l       .boot_code	00000000 fill_memory_spare_end_loop
00000000 l    df *ABS*	00000000 crtstuff.c
20008930 l     O .text	00000000 __EH_FRAME_BEGIN__
200004b0 l     F .text	00000000 __do_global_dtors_aux
20009340 l     O .bss	00000000 completed.8911
20008950 l     O .text	00000000 __do_global_dtors_aux_fini_array_entry
200004d4 l     F .text	00000000 frame_dummy
20009344 l     O .bss	00000000 object.8916
2000894c l     O .text	00000000 __frame_dummy_init_array_entry
00000000 l    df *ABS*	00000000 mss_uart.c
200004f0 l     F .text	00000034 NVIC_ClearPendingIRQ
20000524 l     F .text	0000003a set_bit_reg8
2000055e l     F .text	0000003a clear_bit_reg8
20000598 l     F .text	00000038 read_bit_reg8
20000944 l     F .text	000001d8 global_init
20000d24 l     F .text	000000e8 default_tx_handler
20000b1c l     F .text	00000208 MSS_UART_isr
200007f8 l     F .text	0000014c config_baud_divisors
00000000 l    df *ABS*	00000000 mss_comblk.c
2000935c l     O .bss	00000001 g_comblk_cmd_opcode
20009360 l     O .bss	00000004 g_comblk_p_cmd
20009364 l     O .bss	00000002 g_comblk_cmd_size
20009368 l     O .bss	00000004 g_comblk_p_data
2000936c l     O .bss	00000004 g_comblk_data_size
20009370 l     O .bss	00000004 g_comblk_p_response
20009374 l     O .bss	00000002 g_comblk_response_size
20009376 l     O .bss	00000002 g_comblk_response_idx
20009378 l     O .bss	00000004 g_comblk_completion_handler
2000937c l     O .bss	00000004 g_comblk_page_handler
20009380 l     O .bss	00000001 g_request_in_progress
20009381 l     O .bss	00000001 g_comblk_state
20009384 l     O .bss	00000004 g_async_event_handler
20001254 l     F .text	0000004c abort_current_cmd
200012a0 l     F .text	00000060 fill_tx_fifo
20001004 l     F .text	00000210 handle_rx_okay_irq
20000e54 l     F .text	000001b0 handle_tx_okay_irq
20001214 l     F .text	00000040 complete_request
20001300 l     F .text	00000028 process_sys_ctrl_command
00000000 l    df *ABS*	00000000 mss_rtc.c
20001328 l     F .text	00000030 NVIC_EnableIRQ
20001358 l     F .text	00000034 NVIC_DisableIRQ
2000138c l     F .text	00000034 NVIC_ClearPendingIRQ
2000144c l     F .text	00000048 set_rtc_mode
00000000 l    df *ABS*	00000000 mss_nvm.c
20008308 l     O .text	00000008 g_nvm
20008310 l     O .text	00000008 g_nvm32
20009388 l     O .bss	00000001 g_do_not_lock_page
20001dd0 l     F .text	000004d0 check_protection_reserved_nvm
20001a60 l     F .text	0000005e get_ctrl_access
20001b70 l     F .text	00000114 write_nvm
200017c4 l     F .text	00000058 get_error_code
20001ac0 l     F .text	00000068 release_ctrl_access
20001b28 l     F .text	00000048 wait_nvm_ready
20009389 l     O .bss	00000001 g_envm_ctrl_locks
200019d8 l     F .text	00000088 request_nvm_access
20001c84 l     F .text	0000003c get_remaining_page_length
20001cc0 l     F .text	00000110 fill_wd_buffer
200022a0 l     F .text	0000002c protection_check
00000000 l    df *ABS*	00000000 mss_hpdma.c
2000938c l     O .bss	00000018 g_transfer
200093a4 l     O .bss	00000004 g_hpdma_end_desc
200093a8 l     O .bss	00000004 g_hpdma_current_desc
200022cc l     F .text	00000154 start_transfer
00000000 l    df *ABS*	00000000 newlib_stubs.c
200093ac l     O .bss	00000004 heap_end.5417
00000000 l    df *ABS*	00000000 system_m2sxxx.c
200028d8 l     F .text	00000022 silicon_workarounds
200027f8 l     F .text	0000003c get_rcosc_25_50mhz_frequency
20002834 l     F .text	0000005c set_clock_frequency_globals
20002890 l     F .text	00000048 get_silicon_revision
200028fc l     F .text	00000030 m2s050_rev_a_workarounds
00000000 l    df *ABS*	00000000 main.c
00000000 l    df *ABS*	00000000 init.c
00000000 l    df *ABS*	00000000 malloc.c
00000000 l    df *ABS*	00000000 mallocr.c
00000000 l    df *ABS*	00000000 lib_a-memcpy.o
00000000 l    df *ABS*	00000000 memset.c
00000000 l    df *ABS*	00000000 mlock.c
00000000 l    df *ABS*	00000000 sbrkr.c
00000000 l    df *ABS*	00000000 sprintf.c
00000000 l    df *ABS*	00000000 vfprintf.c
200086f0 l     O .text	00000010 blanks.7351
20008700 l     O .text	00000010 zeroes.7352
00000000 l    df *ABS*	00000000 __call_atexit.c
2000553c l     F .text	00000014 register_fini
00000000 l    df *ABS*	00000000 atexit.c
00000000 l    df *ABS*	00000000 dtoa.c
2000555c l     F .text	00000120 quorem
00000000 l    df *ABS*	00000000 fini.c
00000000 l    df *ABS*	00000000 mallocr.c
00000000 l    df *ABS*	00000000 localeconv.c
00000000 l    df *ABS*	00000000 lock.c
00000000 l    df *ABS*	00000000 memchr-stub.c
00000000 l    df *ABS*	00000000 mprec.c
20008810 l     O .text	0000000c p05.6115
00000000 l    df *ABS*	00000000 s_frexp.c
00000000 l    df *ABS*	00000000 strlen-stub.c
00000000 l    df *ABS*	00000000 strncpy.c
00000000 l    df *ABS*	00000000 vfprintf.c
00000000 l    df *ABS*	00000000 __atexit.c
00000000 l    df *ABS*	00000000 mallocr.c
00000000 l    df *ABS*	00000000 mbtowc_r.c
00000000 l    df *ABS*	00000000 memmove.c
00000000 l    df *ABS*	00000000 mallocr.c
00000000 l    df *ABS*	00000000 wctomb_r.c
00000000 l    df *ABS*	00000000 _arm_addsubdf3.o
00000000 l    df *ABS*	00000000 _arm_muldivdf3.o
00000000 l    df *ABS*	00000000 _arm_cmpdf2.o
00000000 l    df *ABS*	00000000 _arm_unorddf2.o
00000000 l    df *ABS*	00000000 _arm_fixdfsi.o
00000000 l    df *ABS*	00000000 _aeabi_uldivmod.o
00000000 l    df *ABS*	00000000 libgcc2.c
00000000 l    df *ABS*	00000000 _dvmd_tls.o
00000000 l    df *ABS*	00000000 impure.c
20008990 l     O .data	00000428 impure_data
00000000 l    df *ABS*	00000000 locale.c
00000000 l    df *ABS*	00000000 ctype_.c
00000000 l    df *ABS*	00000000 c:/microchip/softconsole-v2021.1/arm-none-eabi-gcc/bin/../lib/gcc/arm-none-eabi/9.2.1/thumb/v7-m/nofp/crti.o
00000000 l    df *ABS*	00000000 c:/microchip/softconsole-v2021.1/arm-none-eabi-gcc/bin/../lib/gcc/arm-none-eabi/9.2.1/thumb/v7-m/nofp/crtn.o
00000000 l    df *ABS*	00000000 reent.c
00000000 l    df *ABS*	00000000 
20008954 l       .text	00000000 __fini_array_end
20008950 l       .text	00000000 __fini_array_start
20008950 l       .text	00000000 __init_array_end
20008948 l       .text	00000000 __preinit_array_end
20008948 l       .text	00000000 __init_array_start
20008948 l       .text	00000000 __preinit_array_start
20007f94 g     F .text	0000002c .hidden __aeabi_dcmpun
20007f58 g     F .text	00000012 .hidden __aeabi_dcmple
2000897c g     O .data	00000004 g_FrequencyPCLK2
20007e94 g     F .text	0000007a .hidden __cmpdf2
2000038a  w    F .boot_code	00000000 DebugMon_Handler
20007e94 g     F .text	0000007a .hidden __eqdf2
2000159e g     F .text	0000000e MSS_RTC_disable_irq
20001494 g     F .text	0000008c MSS_RTC_set_binary_count_alarm
20008984 g     O .data	00000004 g_FrequencyFIC1
200015ac g     F .text	00000028 MSS_RTC_clear_irq
20007a04 g     F .text	0000005a .hidden __floatdidf
20000398  w    F .boot_code	00000000 I2C0_IRQHandler
200003ec  w    F .boot_code	00000000 FabricIrq12_IRQHandler
2000946c g     O .bss	00000001 __lock___atexit_recursive_mutex
20000000 g       *ABS*	00000000 __vector_table_load
20000380  w    F .boot_code	00000000 HardFault_Handler
20001564 g     F .text	0000002c MSS_RTC_reset_counter
20003978 g     F .text	0000000c __malloc_unlock
20008970 g       *ABS*	00000000 __data_load
2000038e  w    F .boot_code	00000000 SysTick_Handler
20009470 g     O .bss	00000001 __lock___arc4random_mutex
20007218 g     F .text	000000d4 memmove
20008970 g       *ABS*	00000000 _sidata
2000038c  w    F .boot_code	00000000 PendSV_Handler
2000037e  w    F .boot_code	00000000 NMI_Handler
20006874 g     F .text	0000004c _Balloc
20008968 g       .ARM.exidx	00000000 __exidx_end
2000039e  w    F .boot_code	00000000 I2C1_IRQHandler
200007d4 g     F .text	00000024 UART1_IRQHandler
20007e84 g     F .text	0000008a .hidden __gtdf2
200091c8 g     O .data	00000004 __atexit_recursive_mutex
200003fe  w    F .boot_code	00000000 GPIO5_IRQHandler
20009490 g     O .bss	00000004 errno
20008968 g       .ARM.exidx	00000000 _etext
20009340 g       .bss	00000000 _sbss
20007f20 g     F .text	00000010 .hidden __aeabi_cdcmple
200003be  w    F .boot_code	00000000 PLL_LockLost_IRQHandler
200004b0 g       .text	00000000 __text_start
20000430  w    F .boot_code	00000000 GPIO30_IRQHandler
20001538 g     F .text	0000002c MSS_RTC_stop
200007b0 g     F .text	00000024 UART0_IRQHandler
200003cc  w    F .boot_code	00000000 MDDR_IOCalib_IRQHandler
200037e0 g     F .text	000000ec memcpy
20007f10 g     F .text	00000020 .hidden __aeabi_cdrcmple
2000040c  w    F .boot_code	00000000 GPIO12_IRQHandler
200039ec g     F .text	00001b50 _svfprintf_r
2000798c g     F .text	00000022 .hidden __floatsidf
2000042c  w    F .boot_code	00000000 GPIO28_IRQHandler
20007e8c g     F .text	00000082 .hidden __ltdf2
20000424  w    F .boot_code	00000000 GPIO24_IRQHandler
2000039a  w    F .boot_code	00000000 I2C0_SMBAlert_IRQHandler
20000190 g       .vector_table	00000000 _evector_table
20008010 g     F .text	00000000 .hidden __aeabi_uldivmod
20008970 g     O .data	00000004 SystemCoreClock
20003264 g     F .text	00000010 malloc
20008748 g     O .text	000000c8 __mprec_tens
20000386  w    F .boot_code	00000000 UsageFault_Handler
200003b2  w    F .boot_code	00000000 ENVM0_IRQHandler
20000400  w    F .boot_code	00000000 GPIO6_IRQHandler
00010000 g       *ABS*	00000000 RAM_SIZE
200093e8 g     O .bss	00000004 __malloc_top_pad
20009340 g       .bss	00000000 __bss_start__
2000796c g     F .text	0000001e .hidden __aeabi_ui2d
200067e4 g     F .text	00000008 _localeconv_r
00000000 g       *ABS*	00000000 __DYNAMIC
200069f0 g     F .text	00000012 __i2b
20008970 g       .data	00000000 _sdata
20000396  w    F .boot_code	00000000 SPI1_IRQHandler
20008040 g     F .text	000002c4 .hidden __udivmoddi4
200076e8 g     F .text	00000000 .hidden __aeabi_drsub
20003984 g     F .text	00000024 _sbrk_r
20000426  w    F .boot_code	00000000 GPIO25_IRQHandler
200003f2  w    F .boot_code	00000000 FabricIrq15_IRQHandler
200013c0 g     F .text	0000008c MSS_RTC_init
20002d98 g     F .text	00000118 read_nvm
20007f44 g     F .text	00000012 .hidden __aeabi_dcmplt
200003f6  w    F .boot_code	00000000 GPIO1_IRQHandler
200003b0  w    F .boot_code	00000000 CAN_IRQHandler
200093e0 g     O .bss	00000004 __malloc_max_sbrked_mem
200079b0 g     F .text	00000042 .hidden __extendsfdf2
20007cb4 g     F .text	000001d0 .hidden __aeabi_ddiv
200003e8  w    F .boot_code	00000000 FabricIrq10_IRQHandler
200076f4 g     F .text	00000276 .hidden __adddf3
20002420 g     F .text	000000f8 HPDMA_Complete_IRQHandler
20000416  w    F .boot_code	00000000 GPIO17_IRQHandler
20008960 g       .text	00000000 __exidx_start
20009474 g     O .bss	00000001 __lock___env_recursive_mutex
20007a60 g     F .text	00000254 .hidden __aeabi_dmul
20009478 g     O .bss	00000001 __lock___sinit_recursive_mutex
00001000 g       *ABS*	00000000 MAIN_STACK_SIZE
200086a8 g     O .text	00000004 _global_impure_ptr
200072ec g     F .text	000003e0 _realloc_r
2000321c g     F .text	00000048 __libc_init_array
20000406  w    F .boot_code	00000000 GPIO9_IRQHandler
200003c0  w    F .boot_code	00000000 CommSwitchError_IRQHandler
20008720 g     O .text	00000028 __mprec_bigtens
2000796c g     F .text	0000001e .hidden __floatunsidf
20002640 g     F .text	0000009c _sbrk
20006cb8 g     F .text	0000003a __mcmp
20008988 g     O .data	00000004 g_FrequencyFIC64
20001520 g     F .text	00000018 MSS_RTC_start
20000422  w    F .boot_code	00000000 GPIO23_IRQHandler
20008930 g     F .text	00000000 _init
2000042e  w    F .boot_code	00000000 GPIO29_IRQHandler
200003d8  w    F .boot_code	00000000 FabricIrq2_IRQHandler
2000650c g     F .text	0000002c __libc_fini_array
200094a0 g       .bss	00000000 _ebss
20000418  w    F .boot_code	00000000 GPIO18_IRQHandler
20000190 g     F .boot_code	00000000 Reset_Handler
20000000 g       .vector_table	00000000 __vector_table_vma_base_address
20006950 g     F .text	00000040 __hi0bits
20007fc0 g     F .text	0000004e .hidden __fixdfsi
200003a0  w    F .boot_code	00000000 I2C1_SMBAlert_IRQHandler
2000040a  w    F .boot_code	00000000 GPIO11_IRQHandler
2000947c g     O .bss	00000001 __lock___malloc_recursive_mutex
20002518 g     F .text	00000104 HPDMA_Error_IRQHandler
00001000 g       *ABS*	00000000 MIN_SIZE_HEAP
00000000 g       *ABS*	00000000 __smartfusion2_memory_remap
200076f4 g     F .text	00000276 .hidden __aeabi_dadd
20007e8c g     F .text	00000082 .hidden __ledf2
20000390  w    F .boot_code	00000000 WdogWakeup_IRQHandler
20006b48 g     F .text	000000a0 __pow5mult
200079f4 g     F .text	0000006a .hidden __aeabi_ul2d
20008974 g     O .data	00000004 g_FrequencyPCLK0
200067f0 g     F .text	00000002 __retarget_lock_release_recursive
200003ba  w    F .boot_code	00000000 USB_DMA_IRQHandler
20007f80 g     F .text	00000012 .hidden __aeabi_dcmpgt
200003ae  w    F .boot_code	00000000 Timer2_IRQHandler
200003f8  w    F .boot_code	00000000 GPIO2_IRQHandler
200067f4 g     F .text	0000007e memchr
200094a0 g       .bss	00000000 __bss_end__
200065d8 g     F .text	0000020c _free_r
20007f6c g     F .text	00000012 .hidden __aeabi_dcmpge
200076f0 g     F .text	0000027a .hidden __aeabi_dsub
200003ea  w    F .boot_code	00000000 FabricIrq11_IRQHandler
200091c0 g     O .data	00000004 __malloc_sbrk_base
200094a0 g       .bss	00000000 __end
200079f4 g     F .text	0000006a .hidden __floatundidf
20006be8 g     F .text	000000d0 __lshift
20007008 g     F .text	000000f6 __ssprint_r
200003d4  w    F .boot_code	00000000 FabricIrq0_IRQHandler
20007100 g     F .text	0000008c __register_exitproc
200093ec g     O .bss	00000040 g_mss_uart1
200003bc  w    F .boot_code	00000000 PLL_Lock_IRQHandler
20006a04 g     F .text	00000142 __multiply
200003a8  w    F .boot_code	00000000 EthernetMAC_IRQHandler
20006fa0 g     F .text	00000068 strncpy
200093b8 g     O .bss	00000028 __malloc_current_mallinfo
20006e2c g     F .text	000000a8 __d2b
200093b0 g     O .bss	00000006 rtcOverflow
2000798c g     F .text	00000022 .hidden __aeabi_i2d
200003c4  w    F .boot_code	00000000 DDR_IRQHandler
00000000 g       *ABS*	00000000 __mirrored_nvm
200003b8  w    F .boot_code	00000000 USB_IRQHandler
20008304  w    F .text	00000002 .hidden __aeabi_ldiv0
20007cb4 g     F .text	000001d0 .hidden __divdf3
20008980 g     O .data	00000004 g_FrequencyFIC0
20008db8 g     O .data	00000408 __malloc_av_
200003ac  w    F .boot_code	00000000 Timer1_IRQHandler
200029e8 g     F .text	00000074 erase_nvm
20007a60 g     F .text	00000254 .hidden __muldf3
20000000 g       .vector_table	00000000 __vector_table_start
200003fa  w    F .boot_code	00000000 GPIO3_IRQHandler
2000396c g     F .text	0000000c __malloc_lock
200003da  w    F .boot_code	00000000 FabricIrq3_IRQHandler
20000000 g       *ABS*	00000000 RAM_START_ADDRESS
2000718c g     F .text	0000005e _calloc_r
200067ec g     F .text	00000002 __retarget_lock_acquire_recursive
200038cc g     F .text	000000a0 memset
20000382  w    F .boot_code	00000000 MemManage_Handler
20002eb0 g     F .text	00000308 main
200093e4 g     O .bss	00000004 __malloc_max_total_mem
20000388  w    F .boot_code	00000000 SVC_Handler
20010000 g       *ABS*	00000000 __main_stack_start
200004b0 g       *ABS*	00000000 __text_load
20005680 g     F .text	00000e8c _dtoa_r
20003284 g     F .text	0000055c _malloc_r
200076cc g     F .text	0000001c __ascii_wctomb
200094a0 g       .heap	00000000 __heap_start__
20007a04 g     F .text	0000005a .hidden __aeabi_l2d
20000402  w    F .boot_code	00000000 GPIO7_IRQHandler
2000942c g     O .bss	00000040 g_mss_uart0
20008978 g     O .data	00000004 g_FrequencyPCLK1
20006538 g     F .text	000000a0 _malloc_trim_r
2000040e  w    F .boot_code	00000000 GPIO13_IRQHandler
200026dc g     F .text	00000020 SystemInit
20007e94 g     F .text	0000007a .hidden __nedf2
2000893c g     F .text	00000000 _fini
200039a8 g     F .text	00000044 sprintf
200003e2  w    F .boot_code	00000000 FabricIrq7_IRQHandler
20000640 g     F .text	000000b4 MSS_UART_polled_tx_string
20000410  w    F .boot_code	00000000 GPIO14_IRQHandler
20005550 g     F .text	0000000c atexit
20002626 g     F .text	0000001a _write_r
200003d2  w    F .boot_code	00000000 FIC64_IRQHandler
2000292c g     F .text	00000028 init_RealTimeCounter
20000434  w    F .boot_code	00000000 mscc_post_hw_cfg_init
2000898c g     O .data	00000004 _impure_ptr
200003b4  w    F .boot_code	00000000 ENVM1_IRQHandler
200003c2  w    F .boot_code	00000000 CacheError_IRQHandler
200003e0  w    F .boot_code	00000000 FabricIrq6_IRQHandler
200071ec g     F .text	0000002a __ascii_mbtowc
2000041a  w    F .boot_code	00000000 GPIO19_IRQHandler
20000404  w    F .boot_code	00000000 GPIO8_IRQHandler
200003e6  w    F .boot_code	00000000 FabricIrq9_IRQHandler
20000428  w    F .boot_code	00000000 GPIO26_IRQHandler
20000420  w    F .boot_code	00000000 GPIO22_IRQHandler
20010000 g       .stack	00000000 _estack
2000f000 g       .heap	00000000 _eheap
20007f30 g     F .text	00000012 .hidden __aeabi_dcmpeq
20000408  w    F .boot_code	00000000 GPIO10_IRQHandler
2000039c  w    F .boot_code	00000000 I2C0_SMBus_IRQHandler
20009340 g       .data	00000000 _edata
20000394  w    F .boot_code	00000000 SPI0_IRQHandler
200094a0 g       .bss	00000000 _end
2000041c  w    F .boot_code	00000000 GPIO20_IRQHandler
200003d6  w    F .boot_code	00000000 FabricIrq1_IRQHandler
20009480 g     O .bss	00000001 __lock___at_quick_exit_mutex
200003dc  w    F .boot_code	00000000 FabricIrq4_IRQHandler
200003f4  w    F .boot_code	00000000 GPIO0_IRQHandler
200091c4 g     O .data	00000004 __malloc_trim_threshold
200003e4  w    F .boot_code	00000000 FabricIrq8_IRQHandler
20000000 g     O .vector_table	00000000 g_pfnVectors
200005d0 g     F .text	00000070 MSS_UART_init
200026fc g     F .text	000000fc SystemCoreClockUpdate
20006cf4 g     F .text	00000138 __mdiff
20007fc0 g     F .text	0000004e .hidden __aeabi_d2iz
200003aa  w    F .boot_code	00000000 DMA_IRQHandler
200031b8 g     F .text	00000064 RTC_TIMESTAMP
200003ee  w    F .boot_code	00000000 FabricIrq13_IRQHandler
2000882c g     O .text	00000101 _ctype_
20008304  w    F .text	00000002 .hidden __aeabi_idiv0
20007f94 g     F .text	0000002c .hidden __unorddf2
2000261c g     F .text	0000000a _exit
200003ce  w    F .boot_code	00000000 FAB_PLL_Lock_IRQHandler
20002a5c g     F .text	0000033c write_nvm
20000384  w    F .boot_code	00000000 BusFault_Handler
20009484 g     O .bss	00000001 __lock___dd_hash_mutex
20009488 g     O .bss	00000001 __lock___tz_mutex
20002954 g     F .text	00000094 RTC_Wakeup_IRQHandler
20006f44 g     F .text	0000005c strlen
20007f20 g     F .text	00000010 .hidden __aeabi_cdcmpeq
20007e84 g     F .text	0000008a .hidden __gedf2
200015d4 g     F .text	000001f0 NVM_write
200079b0 g     F .text	00000042 .hidden __aeabi_f2d
200006f4 g     F .text	000000bc MSS_UART_get_rx
20008970 g       .data	00000000 __data_start
2000041e  w    F .boot_code	00000000 GPIO21_IRQHandler
20000432  w    F .boot_code	00000000 GPIO31_IRQHandler
200003de  w    F .boot_code	00000000 FabricIrq5_IRQHandler
2000181c g     F .text	000001bc NVM_unlock
2000f000 g       .stack	00000000 __stack_start__
200076f0 g     F .text	0000027a .hidden __subdf3
200003ca  w    F .boot_code	00000000 ECC_Error_IRQHandler
20006990 g     F .text	00000060 __lo0bits
20000e0c g     F .text	00000048 ComBlk_IRQHandler
200003d0  w    F .boot_code	00000000 FAB_PLL_LockLost_IRQHandler
200003f0  w    F .boot_code	00000000 FabricIrq14_IRQHandler
20001590 g     F .text	0000000e MSS_RTC_enable_irq
20006ed4 g     F .text	00000070 frexp
200003a2  w    F .boot_code	00000000 I2C1_SMBus_IRQHandler
200091cc g     O .data	0000016c __global_locale
20000414  w    F .boot_code	00000000 GPIO16_IRQHandler
200003fc  w    F .boot_code	00000000 GPIO4_IRQHandler
2000948c g     O .bss	00000001 __lock___sfp_recursive_mutex
2000042a  w    F .boot_code	00000000 GPIO27_IRQHandler
20003274 g     F .text	00000010 free
20000412  w    F .boot_code	00000000 GPIO15_IRQHandler
200068d4 g     F .text	0000007c __multadd
200068c0 g     F .text	00000012 _Bfree



Disassembly of section .vector_table:

20000000 <__vector_table_start>:
__vector_table_start():
20000000:	20010000 	.word	0x20010000
20000004:	20000191 	.word	0x20000191
20000008:	2000037f 	.word	0x2000037f
2000000c:	20000381 	.word	0x20000381
20000010:	20000383 	.word	0x20000383
20000014:	20000385 	.word	0x20000385
20000018:	20000387 	.word	0x20000387
	...
2000002c:	20000389 	.word	0x20000389
20000030:	2000038b 	.word	0x2000038b
20000034:	00000000 	.word	0x00000000
20000038:	2000038d 	.word	0x2000038d
2000003c:	2000038f 	.word	0x2000038f
20000040:	20000391 	.word	0x20000391
20000044:	20002955 	.word	0x20002955
20000048:	20000395 	.word	0x20000395
2000004c:	20000397 	.word	0x20000397
20000050:	20000399 	.word	0x20000399
20000054:	2000039b 	.word	0x2000039b
20000058:	2000039d 	.word	0x2000039d
2000005c:	2000039f 	.word	0x2000039f
20000060:	200003a1 	.word	0x200003a1
20000064:	200003a3 	.word	0x200003a3
20000068:	200007b1 	.word	0x200007b1
2000006c:	200007d5 	.word	0x200007d5
20000070:	200003a9 	.word	0x200003a9
20000074:	200003ab 	.word	0x200003ab
20000078:	200003ad 	.word	0x200003ad
2000007c:	200003af 	.word	0x200003af
20000080:	200003b1 	.word	0x200003b1
20000084:	200003b3 	.word	0x200003b3
20000088:	200003b5 	.word	0x200003b5
2000008c:	20000e0d 	.word	0x20000e0d
20000090:	200003b9 	.word	0x200003b9
20000094:	200003bb 	.word	0x200003bb
20000098:	200003bd 	.word	0x200003bd
2000009c:	200003bf 	.word	0x200003bf
200000a0:	200003c1 	.word	0x200003c1
200000a4:	200003c3 	.word	0x200003c3
200000a8:	200003c5 	.word	0x200003c5
200000ac:	20002421 	.word	0x20002421
200000b0:	20002519 	.word	0x20002519
200000b4:	200003cb 	.word	0x200003cb
200000b8:	200003cd 	.word	0x200003cd
200000bc:	200003cf 	.word	0x200003cf
200000c0:	200003d1 	.word	0x200003d1
200000c4:	200003d3 	.word	0x200003d3
200000c8:	200003d5 	.word	0x200003d5
200000cc:	200003d7 	.word	0x200003d7
200000d0:	200003d9 	.word	0x200003d9
200000d4:	200003db 	.word	0x200003db
200000d8:	200003dd 	.word	0x200003dd
200000dc:	200003df 	.word	0x200003df
200000e0:	200003e1 	.word	0x200003e1
200000e4:	200003e3 	.word	0x200003e3
200000e8:	200003e5 	.word	0x200003e5
200000ec:	200003e7 	.word	0x200003e7
200000f0:	200003e9 	.word	0x200003e9
200000f4:	200003eb 	.word	0x200003eb
200000f8:	200003ed 	.word	0x200003ed
200000fc:	200003ef 	.word	0x200003ef
20000100:	200003f1 	.word	0x200003f1
20000104:	200003f3 	.word	0x200003f3
20000108:	200003f5 	.word	0x200003f5
2000010c:	200003f7 	.word	0x200003f7
20000110:	200003f9 	.word	0x200003f9
20000114:	200003fb 	.word	0x200003fb
20000118:	200003fd 	.word	0x200003fd
2000011c:	200003ff 	.word	0x200003ff
20000120:	20000401 	.word	0x20000401
20000124:	20000403 	.word	0x20000403
20000128:	20000405 	.word	0x20000405
2000012c:	20000407 	.word	0x20000407
20000130:	20000409 	.word	0x20000409
20000134:	2000040b 	.word	0x2000040b
20000138:	2000040d 	.word	0x2000040d
2000013c:	2000040f 	.word	0x2000040f
20000140:	20000411 	.word	0x20000411
20000144:	20000413 	.word	0x20000413
20000148:	20000415 	.word	0x20000415
2000014c:	20000417 	.word	0x20000417
20000150:	20000419 	.word	0x20000419
20000154:	2000041b 	.word	0x2000041b
20000158:	2000041d 	.word	0x2000041d
2000015c:	2000041f 	.word	0x2000041f
20000160:	20000421 	.word	0x20000421
20000164:	20000423 	.word	0x20000423
20000168:	20000425 	.word	0x20000425
2000016c:	20000427 	.word	0x20000427
20000170:	20000429 	.word	0x20000429
20000174:	2000042b 	.word	0x2000042b
20000178:	2000042d 	.word	0x2000042d
2000017c:	2000042f 	.word	0x2000042f
20000180:	20000431 	.word	0x20000431
20000184:	20000433 	.word	0x20000433
	...

Disassembly of section .boot_code:

20000190 <Reset_Handler>:
Reset_Handler():
C:\Microchip\Libero_SoC_v2024.2\Designer\bin\projects\SMF2000-M3_ProjectRad\SC2021_Workspace_PRad\eNVM\Debug/../CMSIS/startup_gcc/startup_m2sxxx.S:150
 * cannot be located in MDDR since MDDR is not available at this point.
 * The bits of the content of register r11 have the following meaning:
 *  reg11[0]: eSRAM EDAC enabled
 *  reg11[1]: MDDR ECC/SECDED enabled
 */
    mov r11, #0
20000190:	f04f 0b00 	mov.w	fp, #0
C:\Microchip\Libero_SoC_v2024.2\Designer\bin\projects\SMF2000-M3_ProjectRad\SC2021_Workspace_PRad\eNVM\Debug/../CMSIS/startup_gcc/startup_m2sxxx.S:151
    ldr r0, SF2_MDDR_MODE_CR
20000194:	f8df 02be 	ldr.w	r0, [pc, #702]	; 20000456 <SF2_MDDR_MODE_CR>
C:\Microchip\Libero_SoC_v2024.2\Designer\bin\projects\SMF2000-M3_ProjectRad\SC2021_Workspace_PRad\eNVM\Debug/../CMSIS/startup_gcc/startup_m2sxxx.S:152
    ldr r0, [r0]
20000198:	6800      	ldr	r0, [r0, #0]
C:\Microchip\Libero_SoC_v2024.2\Designer\bin\projects\SMF2000-M3_ProjectRad\SC2021_Workspace_PRad\eNVM\Debug/../CMSIS/startup_gcc/startup_m2sxxx.S:153
    ldr r1, SF2_EDAC_CR
2000019a:	f8df 12b6 	ldr.w	r1, [pc, #694]	; 20000452 <SF2_EDAC_CR>
C:\Microchip\Libero_SoC_v2024.2\Designer\bin\projects\SMF2000-M3_ProjectRad\SC2021_Workspace_PRad\eNVM\Debug/../CMSIS/startup_gcc/startup_m2sxxx.S:154
    ldr r1, [r1]
2000019e:	6809      	ldr	r1, [r1, #0]
C:\Microchip\Libero_SoC_v2024.2\Designer\bin\projects\SMF2000-M3_ProjectRad\SC2021_Workspace_PRad\eNVM\Debug/../CMSIS/startup_gcc/startup_m2sxxx.S:155
    and r1, r1, #3
200001a0:	f001 0103 	and.w	r1, r1, #3
C:\Microchip\Libero_SoC_v2024.2\Designer\bin\projects\SMF2000-M3_ProjectRad\SC2021_Workspace_PRad\eNVM\Debug/../CMSIS/startup_gcc/startup_m2sxxx.S:156
    and r0, r0, #0x1C
200001a4:	f000 001c 	and.w	r0, r0, #28
C:\Microchip\Libero_SoC_v2024.2\Designer\bin\projects\SMF2000-M3_ProjectRad\SC2021_Workspace_PRad\eNVM\Debug/../CMSIS/startup_gcc/startup_m2sxxx.S:157
    cmp r0, #0x14
200001a8:	2814      	cmp	r0, #20
C:\Microchip\Libero_SoC_v2024.2\Designer\bin\projects\SMF2000-M3_ProjectRad\SC2021_Workspace_PRad\eNVM\Debug/../CMSIS/startup_gcc/startup_m2sxxx.S:158
    bne check_esram_edac
200001aa:	d101      	bne.n	200001b0 <check_esram_edac>
C:\Microchip\Libero_SoC_v2024.2\Designer\bin\projects\SMF2000-M3_ProjectRad\SC2021_Workspace_PRad\eNVM\Debug/../CMSIS/startup_gcc/startup_m2sxxx.S:159
    orr r11, r11, #2
200001ac:	f04b 0b02 	orr.w	fp, fp, #2

200001b0 <check_esram_edac>:
check_esram_edac():
C:\Microchip\Libero_SoC_v2024.2\Designer\bin\projects\SMF2000-M3_ProjectRad\SC2021_Workspace_PRad\eNVM\Debug/../CMSIS/startup_gcc/startup_m2sxxx.S:161
check_esram_edac:
    cmp r1, #0
200001b0:	2900      	cmp	r1, #0
C:\Microchip\Libero_SoC_v2024.2\Designer\bin\projects\SMF2000-M3_ProjectRad\SC2021_Workspace_PRad\eNVM\Debug/../CMSIS/startup_gcc/startup_m2sxxx.S:162
    beq check_stack_init
200001b2:	d001      	beq.n	200001b8 <check_stack_init>
C:\Microchip\Libero_SoC_v2024.2\Designer\bin\projects\SMF2000-M3_ProjectRad\SC2021_Workspace_PRad\eNVM\Debug/../CMSIS/startup_gcc/startup_m2sxxx.S:163
    orr r11, r11, #1
200001b4:	f04b 0b01 	orr.w	fp, fp, #1

200001b8 <check_stack_init>:
check_stack_init():
C:\Microchip\Libero_SoC_v2024.2\Designer\bin\projects\SMF2000-M3_ProjectRad\SC2021_Workspace_PRad\eNVM\Debug/../CMSIS/startup_gcc/startup_m2sxxx.S:165
check_stack_init:
    cmp r11, #0
200001b8:	f1bb 0f00 	cmp.w	fp, #0
C:\Microchip\Libero_SoC_v2024.2\Designer\bin\projects\SMF2000-M3_ProjectRad\SC2021_Workspace_PRad\eNVM\Debug/../CMSIS/startup_gcc/startup_m2sxxx.S:166
    beq system_init
200001bc:	d005      	beq.n	200001ca <system_init>

200001be <clear_stack>:
clear_stack():
C:\Microchip\Libero_SoC_v2024.2\Designer\bin\projects\SMF2000-M3_ProjectRad\SC2021_Workspace_PRad\eNVM\Debug/../CMSIS/startup_gcc/startup_m2sxxx.S:168
clear_stack:
    ldr r0, = __stack_start__
200001be:	48a7      	ldr	r0, [pc, #668]	; (2000045c <SF2_MDDR_MODE_CR+0x6>)
C:\Microchip\Libero_SoC_v2024.2\Designer\bin\projects\SMF2000-M3_ProjectRad\SC2021_Workspace_PRad\eNVM\Debug/../CMSIS/startup_gcc/startup_m2sxxx.S:169
    ldr r1, =_estack
200001c0:	49a7      	ldr	r1, [pc, #668]	; (20000460 <SF2_MDDR_MODE_CR+0xa>)
C:\Microchip\Libero_SoC_v2024.2\Designer\bin\projects\SMF2000-M3_ProjectRad\SC2021_Workspace_PRad\eNVM\Debug/../CMSIS/startup_gcc/startup_m2sxxx.S:170
    ldr r2, RAM_INIT_PATTERN
200001c2:	f8df 2272 	ldr.w	r2, [pc, #626]	; 20000436 <RAM_INIT_PATTERN>
C:\Microchip\Libero_SoC_v2024.2\Designer\bin\projects\SMF2000-M3_ProjectRad\SC2021_Workspace_PRad\eNVM\Debug/../CMSIS/startup_gcc/startup_m2sxxx.S:171
    bl fill_memory                      /* ; fill_memory takes r0 - r2 as arguments uses r4, r5, r6, r7, r8, r9, and does not preserve contents */
200001c6:	f000 f89f 	bl	20000308 <fill_memory>

200001ca <system_init>:
system_init():
C:\Microchip\Libero_SoC_v2024.2\Designer\bin\projects\SMF2000-M3_ProjectRad\SC2021_Workspace_PRad\eNVM\Debug/../CMSIS/startup_gcc/startup_m2sxxx.S:177
    
/*------------------------------------------------------------------------------
 * Call CMSIS system init function.
 */
 system_init:
    ldr r0, =SystemInit
200001ca:	48a6      	ldr	r0, [pc, #664]	; (20000464 <SF2_MDDR_MODE_CR+0xe>)
C:\Microchip\Libero_SoC_v2024.2\Designer\bin\projects\SMF2000-M3_ProjectRad\SC2021_Workspace_PRad\eNVM\Debug/../CMSIS/startup_gcc/startup_m2sxxx.S:178
    blx r0
200001cc:	4780      	blx	r0
C:\Microchip\Libero_SoC_v2024.2\Designer\bin\projects\SMF2000-M3_ProjectRad\SC2021_Workspace_PRad\eNVM\Debug/../CMSIS/startup_gcc/startup_m2sxxx.S:184

/*------------------------------------------------------------------------------
 * Modify MDDR configuration if ECC/SECDED is enabled for MDDR.
 * Enable write combining on MDDR bridge, disable non-bufferable regions.
 */
    and r10, r11, 0x2
200001ce:	f00b 0a02 	and.w	sl, fp, #2
C:\Microchip\Libero_SoC_v2024.2\Designer\bin\projects\SMF2000-M3_ProjectRad\SC2021_Workspace_PRad\eNVM\Debug/../CMSIS/startup_gcc/startup_m2sxxx.S:185
    cmp r10, #0
200001d2:	f1ba 0f00 	cmp.w	sl, #0
C:\Microchip\Libero_SoC_v2024.2\Designer\bin\projects\SMF2000-M3_ProjectRad\SC2021_Workspace_PRad\eNVM\Debug/../CMSIS/startup_gcc/startup_m2sxxx.S:186
    beq remap_memory
200001d6:	d00c      	beq.n	200001f2 <remap_memory>
C:\Microchip\Libero_SoC_v2024.2\Designer\bin\projects\SMF2000-M3_ProjectRad\SC2021_Workspace_PRad\eNVM\Debug/../CMSIS/startup_gcc/startup_m2sxxx.S:187
    ldr r0, SF2_DDRB_NB_SIZE
200001d8:	f8df 026e 	ldr.w	r0, [pc, #622]	; 2000044a <SF2_DDRB_NB_SIZE>
C:\Microchip\Libero_SoC_v2024.2\Designer\bin\projects\SMF2000-M3_ProjectRad\SC2021_Workspace_PRad\eNVM\Debug/../CMSIS/startup_gcc/startup_m2sxxx.S:188
    ldr r1, SF2_DDRB_CR
200001dc:	f8df 126e 	ldr.w	r1, [pc, #622]	; 2000044e <SF2_DDRB_CR>
C:\Microchip\Libero_SoC_v2024.2\Designer\bin\projects\SMF2000-M3_ProjectRad\SC2021_Workspace_PRad\eNVM\Debug/../CMSIS/startup_gcc/startup_m2sxxx.S:189
    ldr r2, [r0]
200001e0:	6802      	ldr	r2, [r0, #0]
C:\Microchip\Libero_SoC_v2024.2\Designer\bin\projects\SMF2000-M3_ProjectRad\SC2021_Workspace_PRad\eNVM\Debug/../CMSIS/startup_gcc/startup_m2sxxx.S:190
    ldr r3, [r1]
200001e2:	680b      	ldr	r3, [r1, #0]
C:\Microchip\Libero_SoC_v2024.2\Designer\bin\projects\SMF2000-M3_ProjectRad\SC2021_Workspace_PRad\eNVM\Debug/../CMSIS/startup_gcc/startup_m2sxxx.S:191
    push {r0, r1, r2, r3}
200001e4:	b40f      	push	{r0, r1, r2, r3}
C:\Microchip\Libero_SoC_v2024.2\Designer\bin\projects\SMF2000-M3_ProjectRad\SC2021_Workspace_PRad\eNVM\Debug/../CMSIS/startup_gcc/startup_m2sxxx.S:192
    mov r2, #0
200001e6:	f04f 0200 	mov.w	r2, #0
C:\Microchip\Libero_SoC_v2024.2\Designer\bin\projects\SMF2000-M3_ProjectRad\SC2021_Workspace_PRad\eNVM\Debug/../CMSIS/startup_gcc/startup_m2sxxx.S:193
    mov r3, #0xFF
200001ea:	f04f 03ff 	mov.w	r3, #255	; 0xff
C:\Microchip\Libero_SoC_v2024.2\Designer\bin\projects\SMF2000-M3_ProjectRad\SC2021_Workspace_PRad\eNVM\Debug/../CMSIS/startup_gcc/startup_m2sxxx.S:194
    str r2, [r0]
200001ee:	6002      	str	r2, [r0, #0]
C:\Microchip\Libero_SoC_v2024.2\Designer\bin\projects\SMF2000-M3_ProjectRad\SC2021_Workspace_PRad\eNVM\Debug/../CMSIS/startup_gcc/startup_m2sxxx.S:195
    str r3, [r1]
200001f0:	600b      	str	r3, [r1, #0]

200001f2 <remap_memory>:
remap_memory():
C:\Microchip\Libero_SoC_v2024.2\Designer\bin\projects\SMF2000-M3_ProjectRad\SC2021_Workspace_PRad\eNVM\Debug/../CMSIS/startup_gcc/startup_m2sxxx.S:202
/*------------------------------------------------------------------------------
 * Perform memory remapping based on the value of __smartfusion2_memory_remap
 * set in the linker script.
 */
remap_memory:
    ldr r0, =__smartfusion2_memory_remap
200001f2:	489d      	ldr	r0, [pc, #628]	; (20000468 <SF2_MDDR_MODE_CR+0x12>)
C:\Microchip\Libero_SoC_v2024.2\Designer\bin\projects\SMF2000-M3_ProjectRad\SC2021_Workspace_PRad\eNVM\Debug/../CMSIS/startup_gcc/startup_m2sxxx.S:203
    ldr r2, =0
200001f4:	f04f 0200 	mov.w	r2, #0
C:\Microchip\Libero_SoC_v2024.2\Designer\bin\projects\SMF2000-M3_ProjectRad\SC2021_Workspace_PRad\eNVM\Debug/../CMSIS/startup_gcc/startup_m2sxxx.S:204
    ldr r3, =1
200001f8:	f04f 0301 	mov.w	r3, #1
C:\Microchip\Libero_SoC_v2024.2\Designer\bin\projects\SMF2000-M3_ProjectRad\SC2021_Workspace_PRad\eNVM\Debug/../CMSIS/startup_gcc/startup_m2sxxx.S:205
    cmp r0, #2
200001fc:	2802      	cmp	r0, #2
C:\Microchip\Libero_SoC_v2024.2\Designer\bin\projects\SMF2000-M3_ProjectRad\SC2021_Workspace_PRad\eNVM\Debug/../CMSIS/startup_gcc/startup_m2sxxx.S:206
    bne check_esram_remap
200001fe:	d108      	bne.n	20000212 <check_esram_remap>
C:\Microchip\Libero_SoC_v2024.2\Designer\bin\projects\SMF2000-M3_ProjectRad\SC2021_Workspace_PRad\eNVM\Debug/../CMSIS/startup_gcc/startup_m2sxxx.S:210
    /*
     * Remap external RAM to address 0x00000000
     */
    ldr r1, SF2_ESRAM_CR
20000200:	f8df 123a 	ldr.w	r1, [pc, #570]	; 2000043e <SF2_ESRAM_CR>
C:\Microchip\Libero_SoC_v2024.2\Designer\bin\projects\SMF2000-M3_ProjectRad\SC2021_Workspace_PRad\eNVM\Debug/../CMSIS/startup_gcc/startup_m2sxxx.S:211
    str r2, [r1]
20000204:	600a      	str	r2, [r1, #0]
C:\Microchip\Libero_SoC_v2024.2\Designer\bin\projects\SMF2000-M3_ProjectRad\SC2021_Workspace_PRad\eNVM\Debug/../CMSIS/startup_gcc/startup_m2sxxx.S:212
    ldr r1, SF2_ENVM_REMAP_CR
20000206:	f8df 123e 	ldr.w	r1, [pc, #574]	; 20000446 <SF2_ENVM_REMAP_CR>
C:\Microchip\Libero_SoC_v2024.2\Designer\bin\projects\SMF2000-M3_ProjectRad\SC2021_Workspace_PRad\eNVM\Debug/../CMSIS/startup_gcc/startup_m2sxxx.S:213
    str r2, [r1]
2000020a:	600a      	str	r2, [r1, #0]
C:\Microchip\Libero_SoC_v2024.2\Designer\bin\projects\SMF2000-M3_ProjectRad\SC2021_Workspace_PRad\eNVM\Debug/../CMSIS/startup_gcc/startup_m2sxxx.S:214
    ldr r1, SF2_DDR_CR
2000020c:	f8df 1232 	ldr.w	r1, [pc, #562]	; 20000442 <SF2_DDR_CR>
C:\Microchip\Libero_SoC_v2024.2\Designer\bin\projects\SMF2000-M3_ProjectRad\SC2021_Workspace_PRad\eNVM\Debug/../CMSIS/startup_gcc/startup_m2sxxx.S:215
    str r3, [r1]
20000210:	600b      	str	r3, [r1, #0]

20000212 <check_esram_remap>:
check_esram_remap():
C:\Microchip\Libero_SoC_v2024.2\Designer\bin\projects\SMF2000-M3_ProjectRad\SC2021_Workspace_PRad\eNVM\Debug/../CMSIS/startup_gcc/startup_m2sxxx.S:217
check_esram_remap:
    cmp r0, #1
20000212:	2801      	cmp	r0, #1
C:\Microchip\Libero_SoC_v2024.2\Designer\bin\projects\SMF2000-M3_ProjectRad\SC2021_Workspace_PRad\eNVM\Debug/../CMSIS/startup_gcc/startup_m2sxxx.S:218
    bne check_mirrored_nvm
20000214:	d108      	bne.n	20000228 <check_mirrored_nvm>
C:\Microchip\Libero_SoC_v2024.2\Designer\bin\projects\SMF2000-M3_ProjectRad\SC2021_Workspace_PRad\eNVM\Debug/../CMSIS/startup_gcc/startup_m2sxxx.S:222
    /*
     * Remap internal eSRAM to address 0x00000000
     */
    ldr r1, SF2_DDR_CR
20000216:	f8df 122a 	ldr.w	r1, [pc, #554]	; 20000442 <SF2_DDR_CR>
C:\Microchip\Libero_SoC_v2024.2\Designer\bin\projects\SMF2000-M3_ProjectRad\SC2021_Workspace_PRad\eNVM\Debug/../CMSIS/startup_gcc/startup_m2sxxx.S:223
    str r2, [r1]
2000021a:	600a      	str	r2, [r1, #0]
C:\Microchip\Libero_SoC_v2024.2\Designer\bin\projects\SMF2000-M3_ProjectRad\SC2021_Workspace_PRad\eNVM\Debug/../CMSIS/startup_gcc/startup_m2sxxx.S:224
    ldr r1, SF2_ENVM_REMAP_CR
2000021c:	f8df 1226 	ldr.w	r1, [pc, #550]	; 20000446 <SF2_ENVM_REMAP_CR>
C:\Microchip\Libero_SoC_v2024.2\Designer\bin\projects\SMF2000-M3_ProjectRad\SC2021_Workspace_PRad\eNVM\Debug/../CMSIS/startup_gcc/startup_m2sxxx.S:225
    str r2, [r1]
20000220:	600a      	str	r2, [r1, #0]
C:\Microchip\Libero_SoC_v2024.2\Designer\bin\projects\SMF2000-M3_ProjectRad\SC2021_Workspace_PRad\eNVM\Debug/../CMSIS/startup_gcc/startup_m2sxxx.S:226
    ldr r1, SF2_ESRAM_CR
20000222:	f8df 121a 	ldr.w	r1, [pc, #538]	; 2000043e <SF2_ESRAM_CR>
C:\Microchip\Libero_SoC_v2024.2\Designer\bin\projects\SMF2000-M3_ProjectRad\SC2021_Workspace_PRad\eNVM\Debug/../CMSIS/startup_gcc/startup_m2sxxx.S:227
    str r3, [r1]
20000226:	600b      	str	r3, [r1, #0]

20000228 <check_mirrored_nvm>:
check_mirrored_nvm():
C:\Microchip\Libero_SoC_v2024.2\Designer\bin\projects\SMF2000-M3_ProjectRad\SC2021_Workspace_PRad\eNVM\Debug/../CMSIS/startup_gcc/startup_m2sxxx.S:236
 * This is done for debugging executables running out of eNVM with SoftConsole.
 * The .text section should not be copied in this case since both the LMA and
 * VMA point at the eNVM despite the LMA and VMa having different values.
 */
 check_mirrored_nvm:
    ldr r0, =__mirrored_nvm
20000228:	4890      	ldr	r0, [pc, #576]	; (2000046c <SF2_MDDR_MODE_CR+0x16>)
C:\Microchip\Libero_SoC_v2024.2\Designer\bin\projects\SMF2000-M3_ProjectRad\SC2021_Workspace_PRad\eNVM\Debug/../CMSIS/startup_gcc/startup_m2sxxx.S:237
    cmp r0, #0
2000022a:	2800      	cmp	r0, #0
C:\Microchip\Libero_SoC_v2024.2\Designer\bin\projects\SMF2000-M3_ProjectRad\SC2021_Workspace_PRad\eNVM\Debug/../CMSIS/startup_gcc/startup_m2sxxx.S:238
    bne copy_data
2000022c:	d109      	bne.n	20000242 <copy_data>
C:\Microchip\Libero_SoC_v2024.2\Designer\bin\projects\SMF2000-M3_ProjectRad\SC2021_Workspace_PRad\eNVM\Debug/../CMSIS/startup_gcc/startup_m2sxxx.S:243
    
/*------------------------------------------------------------------------------
 * Copy vector table.
 */
    ldr r0, =__vector_table_load
2000022e:	4890      	ldr	r0, [pc, #576]	; (20000470 <SF2_MDDR_MODE_CR+0x1a>)
C:\Microchip\Libero_SoC_v2024.2\Designer\bin\projects\SMF2000-M3_ProjectRad\SC2021_Workspace_PRad\eNVM\Debug/../CMSIS/startup_gcc/startup_m2sxxx.S:244
    ldr r1, =__vector_table_start
20000230:	4990      	ldr	r1, [pc, #576]	; (20000474 <SF2_MDDR_MODE_CR+0x1e>)
C:\Microchip\Libero_SoC_v2024.2\Designer\bin\projects\SMF2000-M3_ProjectRad\SC2021_Workspace_PRad\eNVM\Debug/../CMSIS/startup_gcc/startup_m2sxxx.S:245
    ldr r2, =_evector_table
20000232:	4a91      	ldr	r2, [pc, #580]	; (20000478 <SF2_MDDR_MODE_CR+0x22>)
C:\Microchip\Libero_SoC_v2024.2\Designer\bin\projects\SMF2000-M3_ProjectRad\SC2021_Workspace_PRad\eNVM\Debug/../CMSIS/startup_gcc/startup_m2sxxx.S:246
    bl block_copy
20000234:	f000 f830 	bl	20000298 <block_copy>

20000238 <copy_text>:
copy_text():
C:\Microchip\Libero_SoC_v2024.2\Designer\bin\projects\SMF2000-M3_ProjectRad\SC2021_Workspace_PRad\eNVM\Debug/../CMSIS/startup_gcc/startup_m2sxxx.S:252
    
/*------------------------------------------------------------------------------
 * Copy code section.
 */
copy_text:
    ldr r0, =__text_load
20000238:	4890      	ldr	r0, [pc, #576]	; (2000047c <SF2_MDDR_MODE_CR+0x26>)
C:\Microchip\Libero_SoC_v2024.2\Designer\bin\projects\SMF2000-M3_ProjectRad\SC2021_Workspace_PRad\eNVM\Debug/../CMSIS/startup_gcc/startup_m2sxxx.S:253
    ldr r1, =__text_start
2000023a:	4991      	ldr	r1, [pc, #580]	; (20000480 <SF2_MDDR_MODE_CR+0x2a>)
C:\Microchip\Libero_SoC_v2024.2\Designer\bin\projects\SMF2000-M3_ProjectRad\SC2021_Workspace_PRad\eNVM\Debug/../CMSIS/startup_gcc/startup_m2sxxx.S:254
    ldr r2, =_etext
2000023c:	4a91      	ldr	r2, [pc, #580]	; (20000484 <SF2_MDDR_MODE_CR+0x2e>)
C:\Microchip\Libero_SoC_v2024.2\Designer\bin\projects\SMF2000-M3_ProjectRad\SC2021_Workspace_PRad\eNVM\Debug/../CMSIS/startup_gcc/startup_m2sxxx.S:255
    bl block_copy
2000023e:	f000 f82b 	bl	20000298 <block_copy>

20000242 <copy_data>:
copy_data():
C:\Microchip\Libero_SoC_v2024.2\Designer\bin\projects\SMF2000-M3_ProjectRad\SC2021_Workspace_PRad\eNVM\Debug/../CMSIS/startup_gcc/startup_m2sxxx.S:262
/*------------------------------------------------------------------------------
 * Copy data section.
 */

 copy_data:
    ldr r0, =__data_load
20000242:	4891      	ldr	r0, [pc, #580]	; (20000488 <SF2_MDDR_MODE_CR+0x32>)
C:\Microchip\Libero_SoC_v2024.2\Designer\bin\projects\SMF2000-M3_ProjectRad\SC2021_Workspace_PRad\eNVM\Debug/../CMSIS/startup_gcc/startup_m2sxxx.S:263
    ldr r1, =__data_start
20000244:	4991      	ldr	r1, [pc, #580]	; (2000048c <SF2_MDDR_MODE_CR+0x36>)
C:\Microchip\Libero_SoC_v2024.2\Designer\bin\projects\SMF2000-M3_ProjectRad\SC2021_Workspace_PRad\eNVM\Debug/../CMSIS/startup_gcc/startup_m2sxxx.S:264
    ldr r2, =_edata
20000246:	4a92      	ldr	r2, [pc, #584]	; (20000490 <SF2_MDDR_MODE_CR+0x3a>)
C:\Microchip\Libero_SoC_v2024.2\Designer\bin\projects\SMF2000-M3_ProjectRad\SC2021_Workspace_PRad\eNVM\Debug/../CMSIS/startup_gcc/startup_m2sxxx.S:265
    bl block_copy
20000248:	f000 f826 	bl	20000298 <block_copy>

2000024c <clear_bss>:
clear_bss():
C:\Microchip\Libero_SoC_v2024.2\Designer\bin\projects\SMF2000-M3_ProjectRad\SC2021_Workspace_PRad\eNVM\Debug/../CMSIS/startup_gcc/startup_m2sxxx.S:271
    
/*------------------------------------------------------------------------------
 *  Clear .bss
 */
clear_bss:                               
    ldr r0, =__bss_start__
2000024c:	4891      	ldr	r0, [pc, #580]	; (20000494 <SF2_MDDR_MODE_CR+0x3e>)
C:\Microchip\Libero_SoC_v2024.2\Designer\bin\projects\SMF2000-M3_ProjectRad\SC2021_Workspace_PRad\eNVM\Debug/../CMSIS/startup_gcc/startup_m2sxxx.S:272
    ldr r1, =__bss_end__
2000024e:	4992      	ldr	r1, [pc, #584]	; (20000498 <SF2_MDDR_MODE_CR+0x42>)
C:\Microchip\Libero_SoC_v2024.2\Designer\bin\projects\SMF2000-M3_ProjectRad\SC2021_Workspace_PRad\eNVM\Debug/../CMSIS/startup_gcc/startup_m2sxxx.S:273
    ldr r2, RAM_INIT_PATTERN
20000250:	f8df 21e2 	ldr.w	r2, [pc, #482]	; 20000436 <RAM_INIT_PATTERN>
C:\Microchip\Libero_SoC_v2024.2\Designer\bin\projects\SMF2000-M3_ProjectRad\SC2021_Workspace_PRad\eNVM\Debug/../CMSIS/startup_gcc/startup_m2sxxx.S:274
    bl fill_memory                      /* ; fill_memory takes r0 - r2 as arguments uses r4, r5, r6, r7, r8, r9, and does not preserve contents */
20000254:	f000 f858 	bl	20000308 <fill_memory>

20000258 <clear_heap>:
clear_heap():
C:\Microchip\Libero_SoC_v2024.2\Designer\bin\projects\SMF2000-M3_ProjectRad\SC2021_Workspace_PRad\eNVM\Debug/../CMSIS/startup_gcc/startup_m2sxxx.S:287
 * (EDAC). We use the decision made earlier in the startup code of whether or
 * not the stack RAM should be initialized. This decision is held in register
 * r11. A non-zero value indicates that the RAM content should be initialized.
 */
clear_heap:
    cmp r11, #0
20000258:	f1bb 0f00 	cmp.w	fp, #0
C:\Microchip\Libero_SoC_v2024.2\Designer\bin\projects\SMF2000-M3_ProjectRad\SC2021_Workspace_PRad\eNVM\Debug/../CMSIS/startup_gcc/startup_m2sxxx.S:288
    beq call_glob_ctor
2000025c:	d010      	beq.n	20000280 <call_glob_ctor>
C:\Microchip\Libero_SoC_v2024.2\Designer\bin\projects\SMF2000-M3_ProjectRad\SC2021_Workspace_PRad\eNVM\Debug/../CMSIS/startup_gcc/startup_m2sxxx.S:289
    ldr r0, =__heap_start__
2000025e:	488f      	ldr	r0, [pc, #572]	; (2000049c <SF2_MDDR_MODE_CR+0x46>)
C:\Microchip\Libero_SoC_v2024.2\Designer\bin\projects\SMF2000-M3_ProjectRad\SC2021_Workspace_PRad\eNVM\Debug/../CMSIS/startup_gcc/startup_m2sxxx.S:290
    ldr r1, =_eheap
20000260:	498f      	ldr	r1, [pc, #572]	; (200004a0 <SF2_MDDR_MODE_CR+0x4a>)
C:\Microchip\Libero_SoC_v2024.2\Designer\bin\projects\SMF2000-M3_ProjectRad\SC2021_Workspace_PRad\eNVM\Debug/../CMSIS/startup_gcc/startup_m2sxxx.S:291
    ldr r2, HEAP_INIT_PATTERN
20000262:	f8df 21d6 	ldr.w	r2, [pc, #470]	; 2000043a <HEAP_INIT_PATTERN>
C:\Microchip\Libero_SoC_v2024.2\Designer\bin\projects\SMF2000-M3_ProjectRad\SC2021_Workspace_PRad\eNVM\Debug/../CMSIS/startup_gcc/startup_m2sxxx.S:292
    bl fill_memory                      /* ; fill_memory takes r0 - r2 as arguments uses r4, r5, r6, r7, r8, r9, and does not preserve contents */
20000266:	f000 f84f 	bl	20000308 <fill_memory>
C:\Microchip\Libero_SoC_v2024.2\Designer\bin\projects\SMF2000-M3_ProjectRad\SC2021_Workspace_PRad\eNVM\Debug/../CMSIS/startup_gcc/startup_m2sxxx.S:297

/*------------------------------------------------------------------------------
 * Restore MDDR configuration.
 */
    and r10, r11, 0x2
2000026a:	f00b 0a02 	and.w	sl, fp, #2
C:\Microchip\Libero_SoC_v2024.2\Designer\bin\projects\SMF2000-M3_ProjectRad\SC2021_Workspace_PRad\eNVM\Debug/../CMSIS/startup_gcc/startup_m2sxxx.S:298
    cmp r10, #0
2000026e:	f1ba 0f00 	cmp.w	sl, #0
C:\Microchip\Libero_SoC_v2024.2\Designer\bin\projects\SMF2000-M3_ProjectRad\SC2021_Workspace_PRad\eNVM\Debug/../CMSIS/startup_gcc/startup_m2sxxx.S:299
    beq call_glob_ctor
20000272:	d005      	beq.n	20000280 <call_glob_ctor>
C:\Microchip\Libero_SoC_v2024.2\Designer\bin\projects\SMF2000-M3_ProjectRad\SC2021_Workspace_PRad\eNVM\Debug/../CMSIS/startup_gcc/startup_m2sxxx.S:300
    pop {r0, r1, r2, r3}
20000274:	bc0f      	pop	{r0, r1, r2, r3}
C:\Microchip\Libero_SoC_v2024.2\Designer\bin\projects\SMF2000-M3_ProjectRad\SC2021_Workspace_PRad\eNVM\Debug/../CMSIS/startup_gcc/startup_m2sxxx.S:301
    str r2, [r0]
20000276:	6002      	str	r2, [r0, #0]
C:\Microchip\Libero_SoC_v2024.2\Designer\bin\projects\SMF2000-M3_ProjectRad\SC2021_Workspace_PRad\eNVM\Debug/../CMSIS/startup_gcc/startup_m2sxxx.S:302
    str r3, [r1]
20000278:	600b      	str	r3, [r1, #0]
2000027a:	bf00      	nop
2000027c:	f3af 8000 	nop.w

20000280 <call_glob_ctor>:
call_glob_ctor():
C:\Microchip\Libero_SoC_v2024.2\Designer\bin\projects\SMF2000-M3_ProjectRad\SC2021_Workspace_PRad\eNVM\Debug/../CMSIS/startup_gcc/startup_m2sxxx.S:313
     * Align to word and use 32-bits LDR instruction to ensure the ADD instruction
     * taking PC as argument is aligned on a word boundary.
     */
    .align 4
call_glob_ctor:
    ldr.w r0, =__libc_init_array
20000280:	f8df 0220 	ldr.w	r0, [pc, #544]	; 200004a4 <SF2_MDDR_MODE_CR+0x4e>
C:\Microchip\Libero_SoC_v2024.2\Designer\bin\projects\SMF2000-M3_ProjectRad\SC2021_Workspace_PRad\eNVM\Debug/../CMSIS/startup_gcc/startup_m2sxxx.S:314
    add lr, pc, #3
20000284:	f20f 0e03 	addw	lr, pc, #3
C:\Microchip\Libero_SoC_v2024.2\Designer\bin\projects\SMF2000-M3_ProjectRad\SC2021_Workspace_PRad\eNVM\Debug/../CMSIS/startup_gcc/startup_m2sxxx.S:315
    bx r0
20000288:	4700      	bx	r0

2000028a <branch_to_main>:
branch_to_main():
C:\Microchip\Libero_SoC_v2024.2\Designer\bin\projects\SMF2000-M3_ProjectRad\SC2021_Workspace_PRad\eNVM\Debug/../CMSIS/startup_gcc/startup_m2sxxx.S:321
    
/*------------------------------------------------------------------------------
 * branch to main.
 */
branch_to_main:
    mov r0, #0      /*  ; no arguments  */
2000028a:	f04f 0000 	mov.w	r0, #0
C:\Microchip\Libero_SoC_v2024.2\Designer\bin\projects\SMF2000-M3_ProjectRad\SC2021_Workspace_PRad\eNVM\Debug/../CMSIS/startup_gcc/startup_m2sxxx.S:322
    mov r1, #0      /*  ; no argv either */
2000028e:	f04f 0100 	mov.w	r1, #0
C:\Microchip\Libero_SoC_v2024.2\Designer\bin\projects\SMF2000-M3_ProjectRad\SC2021_Workspace_PRad\eNVM\Debug/../CMSIS/startup_gcc/startup_m2sxxx.S:323
    ldr pc, =main
20000292:	f8df f214 	ldr.w	pc, [pc, #532]	; 200004a8 <SF2_MDDR_MODE_CR+0x52>

20000296 <ExitLoop>:
ExitLoop():
C:\Microchip\Libero_SoC_v2024.2\Designer\bin\projects\SMF2000-M3_ProjectRad\SC2021_Workspace_PRad\eNVM\Debug/../CMSIS/startup_gcc/startup_m2sxxx.S:326

ExitLoop:
    B ExitLoop
20000296:	e7fe      	b.n	20000296 <ExitLoop>

20000298 <block_copy>:
block_copy():
C:\Microchip\Libero_SoC_v2024.2\Designer\bin\projects\SMF2000-M3_ProjectRad\SC2021_Workspace_PRad\eNVM\Debug/../CMSIS/startup_gcc/startup_m2sxxx.S:341
 * should be used as per example linker scripts.
 * Note 1: If the memory address in r0 or r1, byte copy routine is used
 * Note 2: If r1 < r2, will loop indefinetley to highlight linker issue.
 */
block_copy:
    push {r3, r4, r5, r6, r7, r8, lr}
20000298:	e92d 41f8 	stmdb	sp!, {r3, r4, r5, r6, r7, r8, lr}
C:\Microchip\Libero_SoC_v2024.2\Designer\bin\projects\SMF2000-M3_ProjectRad\SC2021_Workspace_PRad\eNVM\Debug/../CMSIS/startup_gcc/startup_m2sxxx.S:342
    cmp r0, r1
2000029c:	4288      	cmp	r0, r1
C:\Microchip\Libero_SoC_v2024.2\Designer\bin\projects\SMF2000-M3_ProjectRad\SC2021_Workspace_PRad\eNVM\Debug/../CMSIS/startup_gcc/startup_m2sxxx.S:343
    beq block_copy_exit          /* ; Exit early if source and destination the same */
2000029e:	d025      	beq.n	200002ec <block_copy_exit>
C:\Microchip\Libero_SoC_v2024.2\Designer\bin\projects\SMF2000-M3_ProjectRad\SC2021_Workspace_PRad\eNVM\Debug/../CMSIS/startup_gcc/startup_m2sxxx.S:344
    subs.w r2, r2, r1            /* ; Calculate number of bytes to move */
200002a0:	ebb2 0201 	subs.w	r2, r2, r1
C:\Microchip\Libero_SoC_v2024.2\Designer\bin\projects\SMF2000-M3_ProjectRad\SC2021_Workspace_PRad\eNVM\Debug/../CMSIS/startup_gcc/startup_m2sxxx.S:345
    bpl  block_copy_address_ok   /* ; check (end target address) > (target address) => continue */
200002a4:	d500      	bpl.n	200002a8 <block_copy_address_ok>
C:\Microchip\Libero_SoC_v2024.2\Designer\bin\projects\SMF2000-M3_ProjectRad\SC2021_Workspace_PRad\eNVM\Debug/../CMSIS/startup_gcc/startup_m2sxxx.S:346
    b .                          /* ; halt as critical error-  memory map not OK- make it easy to catch in debugger */
200002a6:	e7fe      	b.n	200002a6 <block_copy+0xe>

200002a8 <block_copy_address_ok>:
block_copy_address_ok():
C:\Microchip\Libero_SoC_v2024.2\Designer\bin\projects\SMF2000-M3_ProjectRad\SC2021_Workspace_PRad\eNVM\Debug/../CMSIS/startup_gcc/startup_m2sxxx.S:349
block_copy_address_ok:
    /* ; detect if source or target memory addresses unaligned. If so use byte copy routine */
    orr.w r3, r0, r1
200002a8:	ea40 0301 	orr.w	r3, r0, r1
C:\Microchip\Libero_SoC_v2024.2\Designer\bin\projects\SMF2000-M3_ProjectRad\SC2021_Workspace_PRad\eNVM\Debug/../CMSIS/startup_gcc/startup_m2sxxx.S:350
    ands.w r3, r3, #3
200002ac:	f013 0303 	ands.w	r3, r3, #3
C:\Microchip\Libero_SoC_v2024.2\Designer\bin\projects\SMF2000-M3_ProjectRad\SC2021_Workspace_PRad\eNVM\Debug/../CMSIS/startup_gcc/startup_m2sxxx.S:351
    beq  block_copy_continue
200002b0:	d002      	beq.n	200002b8 <block_copy_continue>

200002b2 <block_copy_byte_copy>:
block_copy_byte_copy():
C:\Microchip\Libero_SoC_v2024.2\Designer\bin\projects\SMF2000-M3_ProjectRad\SC2021_Workspace_PRad\eNVM\Debug/../CMSIS/startup_gcc/startup_m2sxxx.S:353
block_copy_byte_copy:
    bl block_copy_byte
200002b2:	f000 f81d 	bl	200002f0 <block_copy_byte>
C:\Microchip\Libero_SoC_v2024.2\Designer\bin\projects\SMF2000-M3_ProjectRad\SC2021_Workspace_PRad\eNVM\Debug/../CMSIS/startup_gcc/startup_m2sxxx.S:354
    b  block_copy_exit
200002b6:	e019      	b.n	200002ec <block_copy_exit>

200002b8 <block_copy_continue>:
block_copy_continue():
C:\Microchip\Libero_SoC_v2024.2\Designer\bin\projects\SMF2000-M3_ProjectRad\SC2021_Workspace_PRad\eNVM\Debug/../CMSIS/startup_gcc/startup_m2sxxx.S:356
block_copy_continue:
    mov  r3, #0
200002b8:	f04f 0300 	mov.w	r3, #0
C:\Microchip\Libero_SoC_v2024.2\Designer\bin\projects\SMF2000-M3_ProjectRad\SC2021_Workspace_PRad\eNVM\Debug/../CMSIS/startup_gcc/startup_m2sxxx.S:357
    mov  r8,r2                   /* ; Save copy of byte count */
200002bc:	4690      	mov	r8, r2
C:\Microchip\Libero_SoC_v2024.2\Designer\bin\projects\SMF2000-M3_ProjectRad\SC2021_Workspace_PRad\eNVM\Debug/../CMSIS/startup_gcc/startup_m2sxxx.S:358
    asrs r2,r2, #4               /* ; Div by 16 to get number of chunks to move */
200002be:	1112      	asrs	r2, r2, #4
C:\Microchip\Libero_SoC_v2024.2\Designer\bin\projects\SMF2000-M3_ProjectRad\SC2021_Workspace_PRad\eNVM\Debug/../CMSIS/startup_gcc/startup_m2sxxx.S:359
    beq block_copy_byte_copy     /* ; need to use byte copy if less than 16 bytes */
200002c0:	d0f7      	beq.n	200002b2 <block_copy_byte_copy>

200002c2 <block_copy_loop>:
block_copy_loop():
C:\Microchip\Libero_SoC_v2024.2\Designer\bin\projects\SMF2000-M3_ProjectRad\SC2021_Workspace_PRad\eNVM\Debug/../CMSIS/startup_gcc/startup_m2sxxx.S:361
block_copy_loop:
    cmp r2, r3
200002c2:	429a      	cmp	r2, r3
C:\Microchip\Libero_SoC_v2024.2\Designer\bin\projects\SMF2000-M3_ProjectRad\SC2021_Workspace_PRad\eNVM\Debug/../CMSIS/startup_gcc/startup_m2sxxx.S:362
    itt ne
200002c4:	bf1c      	itt	ne
C:\Microchip\Libero_SoC_v2024.2\Designer\bin\projects\SMF2000-M3_ProjectRad\SC2021_Workspace_PRad\eNVM\Debug/../CMSIS/startup_gcc/startup_m2sxxx.S:363
    ldmne r0!, {r4, r5, r6, r7}
200002c6:	c8f0      	ldmiane	r0!, {r4, r5, r6, r7}
C:\Microchip\Libero_SoC_v2024.2\Designer\bin\projects\SMF2000-M3_ProjectRad\SC2021_Workspace_PRad\eNVM\Debug/../CMSIS/startup_gcc/startup_m2sxxx.S:364
    stmne r1!, {r4, r5, r6, r7}
200002c8:	c1f0      	stmiane	r1!, {r4, r5, r6, r7}
C:\Microchip\Libero_SoC_v2024.2\Designer\bin\projects\SMF2000-M3_ProjectRad\SC2021_Workspace_PRad\eNVM\Debug/../CMSIS/startup_gcc/startup_m2sxxx.S:365
    add.w r3, r3, #1            /* ; use Thumb2- make sure condition code reg. not updated */
200002ca:	f103 0301 	add.w	r3, r3, #1
C:\Microchip\Libero_SoC_v2024.2\Designer\bin\projects\SMF2000-M3_ProjectRad\SC2021_Workspace_PRad\eNVM\Debug/../CMSIS/startup_gcc/startup_m2sxxx.S:366
    bne block_copy_loop
200002ce:	d1f8      	bne.n	200002c2 <block_copy_loop>
C:\Microchip\Libero_SoC_v2024.2\Designer\bin\projects\SMF2000-M3_ProjectRad\SC2021_Workspace_PRad\eNVM\Debug/../CMSIS/startup_gcc/startup_m2sxxx.S:368
    /* ; copy spare bytes at the end if any */
    and r8, #15                 /* ; get spare bytes  --check can you do an ands?   */
200002d0:	f008 080f 	and.w	r8, r8, #15
C:\Microchip\Libero_SoC_v2024.2\Designer\bin\projects\SMF2000-M3_ProjectRad\SC2021_Workspace_PRad\eNVM\Debug/../CMSIS/startup_gcc/startup_m2sxxx.S:369
    cmp r8, #0                  /* ; no spare bytes at end- end now     */
200002d4:	f1b8 0f00 	cmp.w	r8, #0
C:\Microchip\Libero_SoC_v2024.2\Designer\bin\projects\SMF2000-M3_ProjectRad\SC2021_Workspace_PRad\eNVM\Debug/../CMSIS/startup_gcc/startup_m2sxxx.S:370
    beq block_copy_exit
200002d8:	d008      	beq.n	200002ec <block_copy_exit>

200002da <copy_spare_bytes>:
copy_spare_bytes():
C:\Microchip\Libero_SoC_v2024.2\Designer\bin\projects\SMF2000-M3_ProjectRad\SC2021_Workspace_PRad\eNVM\Debug/../CMSIS/startup_gcc/startup_m2sxxx.S:372
copy_spare_bytes:               /* ; From above, R0 contains source address, R1 contains destination address */
    ldrb r4, [r0]
200002da:	7804      	ldrb	r4, [r0, #0]
C:\Microchip\Libero_SoC_v2024.2\Designer\bin\projects\SMF2000-M3_ProjectRad\SC2021_Workspace_PRad\eNVM\Debug/../CMSIS/startup_gcc/startup_m2sxxx.S:373
    strb r4, [r1]
200002dc:	700c      	strb	r4, [r1, #0]
C:\Microchip\Libero_SoC_v2024.2\Designer\bin\projects\SMF2000-M3_ProjectRad\SC2021_Workspace_PRad\eNVM\Debug/../CMSIS/startup_gcc/startup_m2sxxx.S:374
    add  r0, #1
200002de:	f100 0001 	add.w	r0, r0, #1
C:\Microchip\Libero_SoC_v2024.2\Designer\bin\projects\SMF2000-M3_ProjectRad\SC2021_Workspace_PRad\eNVM\Debug/../CMSIS/startup_gcc/startup_m2sxxx.S:375
    add  r1, #1
200002e2:	f101 0101 	add.w	r1, r1, #1
C:\Microchip\Libero_SoC_v2024.2\Designer\bin\projects\SMF2000-M3_ProjectRad\SC2021_Workspace_PRad\eNVM\Debug/../CMSIS/startup_gcc/startup_m2sxxx.S:376
    subs r8, r8, #1
200002e6:	f1b8 0801 	subs.w	r8, r8, #1
C:\Microchip\Libero_SoC_v2024.2\Designer\bin\projects\SMF2000-M3_ProjectRad\SC2021_Workspace_PRad\eNVM\Debug/../CMSIS/startup_gcc/startup_m2sxxx.S:377
    bne copy_spare_bytes
200002ea:	d1f6      	bne.n	200002da <copy_spare_bytes>

200002ec <block_copy_exit>:
block_copy_exit():
C:\Microchip\Libero_SoC_v2024.2\Designer\bin\projects\SMF2000-M3_ProjectRad\SC2021_Workspace_PRad\eNVM\Debug/../CMSIS/startup_gcc/startup_m2sxxx.S:379
block_copy_exit:
    pop {r3, r4, r5, r6, r7, r8, pc}
200002ec:	e8bd 81f8 	ldmia.w	sp!, {r3, r4, r5, r6, r7, r8, pc}

200002f0 <block_copy_byte>:
block_copy_byte():
C:\Microchip\Libero_SoC_v2024.2\Designer\bin\projects\SMF2000-M3_ProjectRad\SC2021_Workspace_PRad\eNVM\Debug/../CMSIS/startup_gcc/startup_m2sxxx.S:388
 * r0: source address
 * r1: target address
 * r2: number of bytes
*/
block_copy_byte:
    push {r3, lr}
200002f0:	b508      	push	{r3, lr}
C:\Microchip\Libero_SoC_v2024.2\Designer\bin\projects\SMF2000-M3_ProjectRad\SC2021_Workspace_PRad\eNVM\Debug/../CMSIS/startup_gcc/startup_m2sxxx.S:389
    mov  r3, #0
200002f2:	f04f 0300 	mov.w	r3, #0

200002f6 <block_copy_byte_loop>:
block_copy_byte_loop():
C:\Microchip\Libero_SoC_v2024.2\Designer\bin\projects\SMF2000-M3_ProjectRad\SC2021_Workspace_PRad\eNVM\Debug/../CMSIS/startup_gcc/startup_m2sxxx.S:391
block_copy_byte_loop:            /* ; From above, R0 contains source address, R1 contains destination address */
    ldrb r3, [r0]
200002f6:	7803      	ldrb	r3, [r0, #0]
C:\Microchip\Libero_SoC_v2024.2\Designer\bin\projects\SMF2000-M3_ProjectRad\SC2021_Workspace_PRad\eNVM\Debug/../CMSIS/startup_gcc/startup_m2sxxx.S:392
    strb r3, [r1]
200002f8:	700b      	strb	r3, [r1, #0]
C:\Microchip\Libero_SoC_v2024.2\Designer\bin\projects\SMF2000-M3_ProjectRad\SC2021_Workspace_PRad\eNVM\Debug/../CMSIS/startup_gcc/startup_m2sxxx.S:393
    add  r0, #1
200002fa:	f100 0001 	add.w	r0, r0, #1
C:\Microchip\Libero_SoC_v2024.2\Designer\bin\projects\SMF2000-M3_ProjectRad\SC2021_Workspace_PRad\eNVM\Debug/../CMSIS/startup_gcc/startup_m2sxxx.S:394
    add  r1, #1
200002fe:	f101 0101 	add.w	r1, r1, #1
C:\Microchip\Libero_SoC_v2024.2\Designer\bin\projects\SMF2000-M3_ProjectRad\SC2021_Workspace_PRad\eNVM\Debug/../CMSIS/startup_gcc/startup_m2sxxx.S:395
    subs r2, r2, #1
20000302:	3a01      	subs	r2, #1
C:\Microchip\Libero_SoC_v2024.2\Designer\bin\projects\SMF2000-M3_ProjectRad\SC2021_Workspace_PRad\eNVM\Debug/../CMSIS/startup_gcc/startup_m2sxxx.S:396
    bne block_copy_byte_loop
20000304:	d1f7      	bne.n	200002f6 <block_copy_byte_loop>
C:\Microchip\Libero_SoC_v2024.2\Designer\bin\projects\SMF2000-M3_ProjectRad\SC2021_Workspace_PRad\eNVM\Debug/../CMSIS/startup_gcc/startup_m2sxxx.S:397
    pop {r3, pc}
20000306:	bd08      	pop	{r3, pc}

20000308 <fill_memory>:
fill_memory():
C:\Microchip\Libero_SoC_v2024.2\Designer\bin\projects\SMF2000-M3_ProjectRad\SC2021_Workspace_PRad\eNVM\Debug/../CMSIS/startup_gcc/startup_m2sxxx.S:419
; * @return none - Used Registers are not preserved
; */

fill_memory:
    /* ;push {r4, r5, r6, r7, r8, r9, lr}    We will not use stack as may be not available */
    cmp r0, r1
20000308:	4288      	cmp	r0, r1
C:\Microchip\Libero_SoC_v2024.2\Designer\bin\projects\SMF2000-M3_ProjectRad\SC2021_Workspace_PRad\eNVM\Debug/../CMSIS/startup_gcc/startup_m2sxxx.S:420
    beq fill_memory_exit        /* ; Exit early if source and destination the same */
2000030a:	d037      	beq.n	2000037c <fill_memory_exit>
C:\Microchip\Libero_SoC_v2024.2\Designer\bin\projects\SMF2000-M3_ProjectRad\SC2021_Workspace_PRad\eNVM\Debug/../CMSIS/startup_gcc/startup_m2sxxx.S:422
/* ; copy non-aligned bytes at the start */
    and.w  r6, r0, #3           /* ; see if non-alaigned bytes at the start     */
2000030c:	f000 0603 	and.w	r6, r0, #3
C:\Microchip\Libero_SoC_v2024.2\Designer\bin\projects\SMF2000-M3_ProjectRad\SC2021_Workspace_PRad\eNVM\Debug/../CMSIS/startup_gcc/startup_m2sxxx.S:423
    cmp r6, #0
20000310:	2e00      	cmp	r6, #0
C:\Microchip\Libero_SoC_v2024.2\Designer\bin\projects\SMF2000-M3_ProjectRad\SC2021_Workspace_PRad\eNVM\Debug/../CMSIS/startup_gcc/startup_m2sxxx.S:424
    beq fill_memory_end_start   /* ; no spare bytes at start, continue  */
20000312:	d014      	beq.n	2000033e <fill_memory_end_start>
C:\Microchip\Libero_SoC_v2024.2\Designer\bin\projects\SMF2000-M3_ProjectRad\SC2021_Workspace_PRad\eNVM\Debug/../CMSIS/startup_gcc/startup_m2sxxx.S:425
    mov    r5, #4
20000314:	f04f 0504 	mov.w	r5, #4
C:\Microchip\Libero_SoC_v2024.2\Designer\bin\projects\SMF2000-M3_ProjectRad\SC2021_Workspace_PRad\eNVM\Debug/../CMSIS/startup_gcc/startup_m2sxxx.S:426
    sub.w  r4, r5, r6           /* ; now have number of non-aligned bytes in r4 */
20000318:	eba5 0406 	sub.w	r4, r5, r6
C:\Microchip\Libero_SoC_v2024.2\Designer\bin\projects\SMF2000-M3_ProjectRad\SC2021_Workspace_PRad\eNVM\Debug/../CMSIS/startup_gcc/startup_m2sxxx.S:427
    mov  r7, #8
2000031c:	f04f 0708 	mov.w	r7, #8
C:\Microchip\Libero_SoC_v2024.2\Designer\bin\projects\SMF2000-M3_ProjectRad\SC2021_Workspace_PRad\eNVM\Debug/../CMSIS/startup_gcc/startup_m2sxxx.S:428
    mul  r8, r7, r6             /* ; calculate number of shifts required to initalise pattern for non-aligned bytes */
20000320:	fb07 f806 	mul.w	r8, r7, r6
C:\Microchip\Libero_SoC_v2024.2\Designer\bin\projects\SMF2000-M3_ProjectRad\SC2021_Workspace_PRad\eNVM\Debug/../CMSIS/startup_gcc/startup_m2sxxx.S:429
    mov  r9, r2                 /* ; copy pattern */
20000324:	4691      	mov	r9, r2
C:\Microchip\Libero_SoC_v2024.2\Designer\bin\projects\SMF2000-M3_ProjectRad\SC2021_Workspace_PRad\eNVM\Debug/../CMSIS/startup_gcc/startup_m2sxxx.S:430
    ror  r9, r9, r8             /* ; Rotate right to keep pattern consistent */
20000326:	fa69 f908 	ror.w	r9, r9, r8

2000032a <fill_memory_spare_bytes_start>:
fill_memory_spare_bytes_start():
C:\Microchip\Libero_SoC_v2024.2\Designer\bin\projects\SMF2000-M3_ProjectRad\SC2021_Workspace_PRad\eNVM\Debug/../CMSIS/startup_gcc/startup_m2sxxx.S:432
fill_memory_spare_bytes_start:  /* ; From above, R0 contains source address, R1 contains destination address */
    cmp r4, #0                  /* ; no spare bytes at end- end now     */
2000032a:	2c00      	cmp	r4, #0
C:\Microchip\Libero_SoC_v2024.2\Designer\bin\projects\SMF2000-M3_ProjectRad\SC2021_Workspace_PRad\eNVM\Debug/../CMSIS/startup_gcc/startup_m2sxxx.S:433
    beq fill_memory_end_start
2000032c:	d007      	beq.n	2000033e <fill_memory_end_start>
C:\Microchip\Libero_SoC_v2024.2\Designer\bin\projects\SMF2000-M3_ProjectRad\SC2021_Workspace_PRad\eNVM\Debug/../CMSIS/startup_gcc/startup_m2sxxx.S:434
    strb r9, [r0]               /* ; fill byte */
2000032e:	f880 9000 	strb.w	r9, [r0]
C:\Microchip\Libero_SoC_v2024.2\Designer\bin\projects\SMF2000-M3_ProjectRad\SC2021_Workspace_PRad\eNVM\Debug/../CMSIS/startup_gcc/startup_m2sxxx.S:435
    ror.w  r9, r9, r7           /* ; Rotate right by one byte for the next time, to keep pattern consistent */
20000332:	fa69 f907 	ror.w	r9, r9, r7
C:\Microchip\Libero_SoC_v2024.2\Designer\bin\projects\SMF2000-M3_ProjectRad\SC2021_Workspace_PRad\eNVM\Debug/../CMSIS/startup_gcc/startup_m2sxxx.S:436
    add r0, r0, #1              /* ; add one to address */
20000336:	f100 0001 	add.w	r0, r0, #1
C:\Microchip\Libero_SoC_v2024.2\Designer\bin\projects\SMF2000-M3_ProjectRad\SC2021_Workspace_PRad\eNVM\Debug/../CMSIS/startup_gcc/startup_m2sxxx.S:437
    subs r4, r4, #1             /* ; subtract one from byte count 1 */
2000033a:	3c01      	subs	r4, #1
C:\Microchip\Libero_SoC_v2024.2\Designer\bin\projects\SMF2000-M3_ProjectRad\SC2021_Workspace_PRad\eNVM\Debug/../CMSIS/startup_gcc/startup_m2sxxx.S:438
    b fill_memory_spare_bytes_start
2000033c:	e7f5      	b.n	2000032a <fill_memory_spare_bytes_start>

2000033e <fill_memory_end_start>:
fill_memory_end_start():
C:\Microchip\Libero_SoC_v2024.2\Designer\bin\projects\SMF2000-M3_ProjectRad\SC2021_Workspace_PRad\eNVM\Debug/../CMSIS/startup_gcc/startup_m2sxxx.S:440
fill_memory_end_start:
    mov  r6, #0
2000033e:	f04f 0600 	mov.w	r6, #0
C:\Microchip\Libero_SoC_v2024.2\Designer\bin\projects\SMF2000-M3_ProjectRad\SC2021_Workspace_PRad\eNVM\Debug/../CMSIS/startup_gcc/startup_m2sxxx.S:441
    mov  r7, r1                  /* ; save end address */
20000342:	460f      	mov	r7, r1
C:\Microchip\Libero_SoC_v2024.2\Designer\bin\projects\SMF2000-M3_ProjectRad\SC2021_Workspace_PRad\eNVM\Debug/../CMSIS/startup_gcc/startup_m2sxxx.S:442
    subs r1, r1, r0              /* ; Calculate number of bytes to fill */
20000344:	1a09      	subs	r1, r1, r0
C:\Microchip\Libero_SoC_v2024.2\Designer\bin\projects\SMF2000-M3_ProjectRad\SC2021_Workspace_PRad\eNVM\Debug/../CMSIS/startup_gcc/startup_m2sxxx.S:443
    mov  r8,r1                   /* ; Save copy of byte count */
20000346:	4688      	mov	r8, r1
C:\Microchip\Libero_SoC_v2024.2\Designer\bin\projects\SMF2000-M3_ProjectRad\SC2021_Workspace_PRad\eNVM\Debug/../CMSIS/startup_gcc/startup_m2sxxx.S:444
    asrs r1,r1, #4               /* ; Div by 16 to get number of chunks to move */
20000348:	1109      	asrs	r1, r1, #4
C:\Microchip\Libero_SoC_v2024.2\Designer\bin\projects\SMF2000-M3_ProjectRad\SC2021_Workspace_PRad\eNVM\Debug/../CMSIS/startup_gcc/startup_m2sxxx.S:445
    mov  r9, r2                  /* ; copy pattern */
2000034a:	4691      	mov	r9, r2
C:\Microchip\Libero_SoC_v2024.2\Designer\bin\projects\SMF2000-M3_ProjectRad\SC2021_Workspace_PRad\eNVM\Debug/../CMSIS/startup_gcc/startup_m2sxxx.S:446
    mov  r4, r2                  /* ; copy pattern */
2000034c:	4614      	mov	r4, r2
C:\Microchip\Libero_SoC_v2024.2\Designer\bin\projects\SMF2000-M3_ProjectRad\SC2021_Workspace_PRad\eNVM\Debug/../CMSIS/startup_gcc/startup_m2sxxx.S:447
    mov  r5, r2                  /* ; copy pattern */
2000034e:	4615      	mov	r5, r2
C:\Microchip\Libero_SoC_v2024.2\Designer\bin\projects\SMF2000-M3_ProjectRad\SC2021_Workspace_PRad\eNVM\Debug/../CMSIS/startup_gcc/startup_m2sxxx.S:448
    cmp r1, r6                   /* ; compare to see if all chunks copied */
20000350:	42b1      	cmp	r1, r6
C:\Microchip\Libero_SoC_v2024.2\Designer\bin\projects\SMF2000-M3_ProjectRad\SC2021_Workspace_PRad\eNVM\Debug/../CMSIS/startup_gcc/startup_m2sxxx.S:449
    beq fill_memory_spare_bytes_end
20000352:	d006      	beq.n	20000362 <fill_memory_spare_bytes_end>

20000354 <fill_memory_loop>:
fill_memory_loop():
C:\Microchip\Libero_SoC_v2024.2\Designer\bin\projects\SMF2000-M3_ProjectRad\SC2021_Workspace_PRad\eNVM\Debug/../CMSIS/startup_gcc/startup_m2sxxx.S:451
fill_memory_loop:
    it ne
20000354:	bf18      	it	ne
C:\Microchip\Libero_SoC_v2024.2\Designer\bin\projects\SMF2000-M3_ProjectRad\SC2021_Workspace_PRad\eNVM\Debug/../CMSIS/startup_gcc/startup_m2sxxx.S:452
    stmne r0!, {r2, r4, r5, r9}  /* ; copy pattern- note: stmne instruction must me word aligned (address in r0) */
20000356:	e8a0 0234 	stmiane.w	r0!, {r2, r4, r5, r9}
C:\Microchip\Libero_SoC_v2024.2\Designer\bin\projects\SMF2000-M3_ProjectRad\SC2021_Workspace_PRad\eNVM\Debug/../CMSIS/startup_gcc/startup_m2sxxx.S:453
    add.w r6, r6, #1             /* ; use Thumb2- make sure condition code reg. not updated */
2000035a:	f106 0601 	add.w	r6, r6, #1
C:\Microchip\Libero_SoC_v2024.2\Designer\bin\projects\SMF2000-M3_ProjectRad\SC2021_Workspace_PRad\eNVM\Debug/../CMSIS/startup_gcc/startup_m2sxxx.S:454
    cmp r1, r6                   /* ; compare to see if all chunks copied */
2000035e:	42b1      	cmp	r1, r6
C:\Microchip\Libero_SoC_v2024.2\Designer\bin\projects\SMF2000-M3_ProjectRad\SC2021_Workspace_PRad\eNVM\Debug/../CMSIS/startup_gcc/startup_m2sxxx.S:455
    bne fill_memory_loop
20000360:	d1f8      	bne.n	20000354 <fill_memory_loop>

20000362 <fill_memory_spare_bytes_end>:
fill_memory_spare_bytes_end():
C:\Microchip\Libero_SoC_v2024.2\Designer\bin\projects\SMF2000-M3_ProjectRad\SC2021_Workspace_PRad\eNVM\Debug/../CMSIS/startup_gcc/startup_m2sxxx.S:457
fill_memory_spare_bytes_end:     /* ; copy spare bytes at the end if any */
    and.w r8, r8, #15            /* ; get spare bytes  --check can you do an ands?  */
20000362:	f008 080f 	and.w	r8, r8, #15

20000366 <fill_memory_spare_end_loop>:
fill_memory_spare_end_loop():
C:\Microchip\Libero_SoC_v2024.2\Designer\bin\projects\SMF2000-M3_ProjectRad\SC2021_Workspace_PRad\eNVM\Debug/../CMSIS/startup_gcc/startup_m2sxxx.S:459
fill_memory_spare_end_loop:      /* ; From above, R0 contains source address, R1 contains destination address */
    cmp r8, #0                   /* ; no spare bytes at end- end now    */
20000366:	f1b8 0f00 	cmp.w	r8, #0
C:\Microchip\Libero_SoC_v2024.2\Designer\bin\projects\SMF2000-M3_ProjectRad\SC2021_Workspace_PRad\eNVM\Debug/../CMSIS/startup_gcc/startup_m2sxxx.S:460
    beq fill_memory_exit
2000036a:	d007      	beq.n	2000037c <fill_memory_exit>
C:\Microchip\Libero_SoC_v2024.2\Designer\bin\projects\SMF2000-M3_ProjectRad\SC2021_Workspace_PRad\eNVM\Debug/../CMSIS/startup_gcc/startup_m2sxxx.S:461
    strb r2, [r0]
2000036c:	7002      	strb	r2, [r0, #0]
C:\Microchip\Libero_SoC_v2024.2\Designer\bin\projects\SMF2000-M3_ProjectRad\SC2021_Workspace_PRad\eNVM\Debug/../CMSIS/startup_gcc/startup_m2sxxx.S:462
    ror.w  r2, r2, #8            /* ; Rotate right by one byte for the next time, to keep pattern consistent */
2000036e:	ea4f 2232 	mov.w	r2, r2, ror #8
C:\Microchip\Libero_SoC_v2024.2\Designer\bin\projects\SMF2000-M3_ProjectRad\SC2021_Workspace_PRad\eNVM\Debug/../CMSIS/startup_gcc/startup_m2sxxx.S:463
    add r0, r0, #1               /* ; add one to address */
20000372:	f100 0001 	add.w	r0, r0, #1
C:\Microchip\Libero_SoC_v2024.2\Designer\bin\projects\SMF2000-M3_ProjectRad\SC2021_Workspace_PRad\eNVM\Debug/../CMSIS/startup_gcc/startup_m2sxxx.S:464
    subs r8, r8, #1              /* ; subtract one from byte count 1    */
20000376:	f1b8 0801 	subs.w	r8, r8, #1
C:\Microchip\Libero_SoC_v2024.2\Designer\bin\projects\SMF2000-M3_ProjectRad\SC2021_Workspace_PRad\eNVM\Debug/../CMSIS/startup_gcc/startup_m2sxxx.S:465
    b fill_memory_spare_end_loop
2000037a:	e7f4      	b.n	20000366 <fill_memory_spare_end_loop>

2000037c <fill_memory_exit>:
fill_memory_exit():
C:\Microchip\Libero_SoC_v2024.2\Designer\bin\projects\SMF2000-M3_ProjectRad\SC2021_Workspace_PRad\eNVM\Debug/../CMSIS/startup_gcc/startup_m2sxxx.S:467
fill_memory_exit:
    bx lr               /*; We will not use pop as stack may be not available */
2000037c:	4770      	bx	lr

2000037e <NMI_Handler>:
NMI_Handler():
C:\Microchip\Libero_SoC_v2024.2\Designer\bin\projects\SMF2000-M3_ProjectRad\SC2021_Workspace_PRad\eNVM\Debug/../CMSIS/startup_gcc/startup_m2sxxx.S:554
 * NMI_Handler
 */
    .weak   NMI_Handler
    .type   NMI_Handler, %function
NMI_Handler:
    B .
2000037e:	e7fe      	b.n	2000037e <NMI_Handler>

20000380 <HardFault_Handler>:
HardFault_Handler():
C:\Microchip\Libero_SoC_v2024.2\Designer\bin\projects\SMF2000-M3_ProjectRad\SC2021_Workspace_PRad\eNVM\Debug/../CMSIS/startup_gcc/startup_m2sxxx.S:562
 * HardFault_Handler
 */
    .weak   HardFault_Handler
    .type   HardFault_Handler, %function
HardFault_Handler:
    B .
20000380:	e7fe      	b.n	20000380 <HardFault_Handler>

20000382 <MemManage_Handler>:
MemManage_Handler():
C:\Microchip\Libero_SoC_v2024.2\Designer\bin\projects\SMF2000-M3_ProjectRad\SC2021_Workspace_PRad\eNVM\Debug/../CMSIS/startup_gcc/startup_m2sxxx.S:570
 * MemManage_Handler
 */
    .weak   MemManage_Handler
    .type   MemManage_Handler, %function
MemManage_Handler:
    B .
20000382:	e7fe      	b.n	20000382 <MemManage_Handler>

20000384 <BusFault_Handler>:
BusFault_Handler():
C:\Microchip\Libero_SoC_v2024.2\Designer\bin\projects\SMF2000-M3_ProjectRad\SC2021_Workspace_PRad\eNVM\Debug/../CMSIS/startup_gcc/startup_m2sxxx.S:578
 * BusFault_Handler
 */
    .weak   BusFault_Handler
    .type   BusFault_Handler, %function
BusFault_Handler:
    B .
20000384:	e7fe      	b.n	20000384 <BusFault_Handler>

20000386 <UsageFault_Handler>:
UsageFault_Handler():
C:\Microchip\Libero_SoC_v2024.2\Designer\bin\projects\SMF2000-M3_ProjectRad\SC2021_Workspace_PRad\eNVM\Debug/../CMSIS/startup_gcc/startup_m2sxxx.S:586
 * UsageFault_Handler
 */
    .weak   UsageFault_Handler
    .type   UsageFault_Handler, %function
UsageFault_Handler:
    B .
20000386:	e7fe      	b.n	20000386 <UsageFault_Handler>

20000388 <SVC_Handler>:
SVC_Handler():
C:\Microchip\Libero_SoC_v2024.2\Designer\bin\projects\SMF2000-M3_ProjectRad\SC2021_Workspace_PRad\eNVM\Debug/../CMSIS/startup_gcc/startup_m2sxxx.S:594
 * SVC_Handler
 */
    .weak   SVC_Handler
    .type   SVC_Handler, %function
SVC_Handler:
    B .
20000388:	e7fe      	b.n	20000388 <SVC_Handler>

2000038a <DebugMon_Handler>:
DebugMon_Handler():
C:\Microchip\Libero_SoC_v2024.2\Designer\bin\projects\SMF2000-M3_ProjectRad\SC2021_Workspace_PRad\eNVM\Debug/../CMSIS/startup_gcc/startup_m2sxxx.S:602
 * DebugMon_Handler
 */
    .weak   DebugMon_Handler
    .type   DebugMon_Handler, %function
DebugMon_Handler:
    B .
2000038a:	e7fe      	b.n	2000038a <DebugMon_Handler>

2000038c <PendSV_Handler>:
PendSV_Handler():
C:\Microchip\Libero_SoC_v2024.2\Designer\bin\projects\SMF2000-M3_ProjectRad\SC2021_Workspace_PRad\eNVM\Debug/../CMSIS/startup_gcc/startup_m2sxxx.S:610
 * PendSV_Handler
 */
    .weak   PendSV_Handler
    .type   PendSV_Handler, %function
PendSV_Handler:
    B .
2000038c:	e7fe      	b.n	2000038c <PendSV_Handler>

2000038e <SysTick_Handler>:
SysTick_Handler():
C:\Microchip\Libero_SoC_v2024.2\Designer\bin\projects\SMF2000-M3_ProjectRad\SC2021_Workspace_PRad\eNVM\Debug/../CMSIS/startup_gcc/startup_m2sxxx.S:618
 * SysTick_Handler
 */
    .weak   SysTick_Handler
    .type   SysTick_Handler, %function
SysTick_Handler:
    B .
2000038e:	e7fe      	b.n	2000038e <SysTick_Handler>

20000390 <WdogWakeup_IRQHandler>:
WdogWakeup_IRQHandler():
C:\Microchip\Libero_SoC_v2024.2\Designer\bin\projects\SMF2000-M3_ProjectRad\SC2021_Workspace_PRad\eNVM\Debug/../CMSIS/startup_gcc/startup_m2sxxx.S:626
 * WdogWakeup_IRQHandler
 */
    .weak   WdogWakeup_IRQHandler
    .type   WdogWakeup_IRQHandler, %function
WdogWakeup_IRQHandler:
    B .
20000390:	e7fe      	b.n	20000390 <WdogWakeup_IRQHandler>
C:\Microchip\Libero_SoC_v2024.2\Designer\bin\projects\SMF2000-M3_ProjectRad\SC2021_Workspace_PRad\eNVM\Debug/../CMSIS/startup_gcc/startup_m2sxxx.S:634
 * RTC_Wakeup_IRQHandler
 */
    .weak   RTC_Wakeup_IRQHandler
    .type   RTC_Wakeup_IRQHandler, %function
RTC_Wakeup_IRQHandler:
    B .
20000392:	e7fe      	b.n	20000392 <WdogWakeup_IRQHandler+0x2>

20000394 <SPI0_IRQHandler>:
SPI0_IRQHandler():
C:\Microchip\Libero_SoC_v2024.2\Designer\bin\projects\SMF2000-M3_ProjectRad\SC2021_Workspace_PRad\eNVM\Debug/../CMSIS/startup_gcc/startup_m2sxxx.S:642
 * SPI0_IRQHandler
 */
    .weak   SPI0_IRQHandler
    .type   SPI0_IRQHandler, %function
SPI0_IRQHandler:
    B .
20000394:	e7fe      	b.n	20000394 <SPI0_IRQHandler>

20000396 <SPI1_IRQHandler>:
SPI1_IRQHandler():
C:\Microchip\Libero_SoC_v2024.2\Designer\bin\projects\SMF2000-M3_ProjectRad\SC2021_Workspace_PRad\eNVM\Debug/../CMSIS/startup_gcc/startup_m2sxxx.S:650
 * SPI1_IRQHandler
 */
    .weak   SPI1_IRQHandler
    .type   SPI1_IRQHandler, %function
SPI1_IRQHandler:
    B .
20000396:	e7fe      	b.n	20000396 <SPI1_IRQHandler>

20000398 <I2C0_IRQHandler>:
I2C0_IRQHandler():
C:\Microchip\Libero_SoC_v2024.2\Designer\bin\projects\SMF2000-M3_ProjectRad\SC2021_Workspace_PRad\eNVM\Debug/../CMSIS/startup_gcc/startup_m2sxxx.S:658
 * I2C0_IRQHandler
 */
    .weak   I2C0_IRQHandler
    .type   I2C0_IRQHandler, %function
I2C0_IRQHandler:
    B .
20000398:	e7fe      	b.n	20000398 <I2C0_IRQHandler>

2000039a <I2C0_SMBAlert_IRQHandler>:
I2C0_SMBAlert_IRQHandler():
C:\Microchip\Libero_SoC_v2024.2\Designer\bin\projects\SMF2000-M3_ProjectRad\SC2021_Workspace_PRad\eNVM\Debug/../CMSIS/startup_gcc/startup_m2sxxx.S:666
 * I2C0_SMBAlert_IRQHandler
 */
    .weak   I2C0_SMBAlert_IRQHandler
    .type   I2C0_SMBAlert_IRQHandler, %function
I2C0_SMBAlert_IRQHandler:
    B .
2000039a:	e7fe      	b.n	2000039a <I2C0_SMBAlert_IRQHandler>

2000039c <I2C0_SMBus_IRQHandler>:
I2C0_SMBus_IRQHandler():
C:\Microchip\Libero_SoC_v2024.2\Designer\bin\projects\SMF2000-M3_ProjectRad\SC2021_Workspace_PRad\eNVM\Debug/../CMSIS/startup_gcc/startup_m2sxxx.S:674
 * I2C0_SMBus_IRQHandler
 */
    .weak   I2C0_SMBus_IRQHandler
    .type   I2C0_SMBus_IRQHandler, %function
I2C0_SMBus_IRQHandler:
    B .
2000039c:	e7fe      	b.n	2000039c <I2C0_SMBus_IRQHandler>

2000039e <I2C1_IRQHandler>:
I2C1_IRQHandler():
C:\Microchip\Libero_SoC_v2024.2\Designer\bin\projects\SMF2000-M3_ProjectRad\SC2021_Workspace_PRad\eNVM\Debug/../CMSIS/startup_gcc/startup_m2sxxx.S:682
 * I2C1_IRQHandler
 */
    .weak   I2C1_IRQHandler
    .type   I2C1_IRQHandler, %function
I2C1_IRQHandler:
    B .
2000039e:	e7fe      	b.n	2000039e <I2C1_IRQHandler>

200003a0 <I2C1_SMBAlert_IRQHandler>:
I2C1_SMBAlert_IRQHandler():
C:\Microchip\Libero_SoC_v2024.2\Designer\bin\projects\SMF2000-M3_ProjectRad\SC2021_Workspace_PRad\eNVM\Debug/../CMSIS/startup_gcc/startup_m2sxxx.S:690
 * I2C1_SMBAlert_IRQHandler
 */
    .weak   I2C1_SMBAlert_IRQHandler
    .type   I2C1_SMBAlert_IRQHandler, %function
I2C1_SMBAlert_IRQHandler:
    B .
200003a0:	e7fe      	b.n	200003a0 <I2C1_SMBAlert_IRQHandler>

200003a2 <I2C1_SMBus_IRQHandler>:
I2C1_SMBus_IRQHandler():
C:\Microchip\Libero_SoC_v2024.2\Designer\bin\projects\SMF2000-M3_ProjectRad\SC2021_Workspace_PRad\eNVM\Debug/../CMSIS/startup_gcc/startup_m2sxxx.S:698
 * I2C1_SMBus_IRQHandler
 */
    .weak   I2C1_SMBus_IRQHandler
    .type   I2C1_SMBus_IRQHandler, %function
I2C1_SMBus_IRQHandler:
    B .
200003a2:	e7fe      	b.n	200003a2 <I2C1_SMBus_IRQHandler>
C:\Microchip\Libero_SoC_v2024.2\Designer\bin\projects\SMF2000-M3_ProjectRad\SC2021_Workspace_PRad\eNVM\Debug/../CMSIS/startup_gcc/startup_m2sxxx.S:706
 * UART0_IRQHandler
 */
    .weak   UART0_IRQHandler
    .type   UART0_IRQHandler, %function
UART0_IRQHandler:
    B .
200003a4:	e7fe      	b.n	200003a4 <I2C1_SMBus_IRQHandler+0x2>
C:\Microchip\Libero_SoC_v2024.2\Designer\bin\projects\SMF2000-M3_ProjectRad\SC2021_Workspace_PRad\eNVM\Debug/../CMSIS/startup_gcc/startup_m2sxxx.S:714
 * UART1_IRQHandler
 */
    .weak   UART1_IRQHandler
    .type   UART1_IRQHandler, %function
UART1_IRQHandler:
    B .
200003a6:	e7fe      	b.n	200003a6 <I2C1_SMBus_IRQHandler+0x4>

200003a8 <EthernetMAC_IRQHandler>:
EthernetMAC_IRQHandler():
C:\Microchip\Libero_SoC_v2024.2\Designer\bin\projects\SMF2000-M3_ProjectRad\SC2021_Workspace_PRad\eNVM\Debug/../CMSIS/startup_gcc/startup_m2sxxx.S:722
 * EthernetMAC_IRQHandler
 */
    .weak   EthernetMAC_IRQHandler
    .type   EthernetMAC_IRQHandler, %function
EthernetMAC_IRQHandler:
    B .
200003a8:	e7fe      	b.n	200003a8 <EthernetMAC_IRQHandler>

200003aa <DMA_IRQHandler>:
DMA_IRQHandler():
C:\Microchip\Libero_SoC_v2024.2\Designer\bin\projects\SMF2000-M3_ProjectRad\SC2021_Workspace_PRad\eNVM\Debug/../CMSIS/startup_gcc/startup_m2sxxx.S:730
 * DMA_IRQHandler
 */
    .weak   DMA_IRQHandler
    .type   DMA_IRQHandler, %function
DMA_IRQHandler:
    B .
200003aa:	e7fe      	b.n	200003aa <DMA_IRQHandler>

200003ac <Timer1_IRQHandler>:
Timer1_IRQHandler():
C:\Microchip\Libero_SoC_v2024.2\Designer\bin\projects\SMF2000-M3_ProjectRad\SC2021_Workspace_PRad\eNVM\Debug/../CMSIS/startup_gcc/startup_m2sxxx.S:738
 * Timer1_IRQHandler
 */
    .weak   Timer1_IRQHandler
    .type   Timer1_IRQHandler, %function
Timer1_IRQHandler:
    B .
200003ac:	e7fe      	b.n	200003ac <Timer1_IRQHandler>

200003ae <Timer2_IRQHandler>:
Timer2_IRQHandler():
C:\Microchip\Libero_SoC_v2024.2\Designer\bin\projects\SMF2000-M3_ProjectRad\SC2021_Workspace_PRad\eNVM\Debug/../CMSIS/startup_gcc/startup_m2sxxx.S:746
 * Timer2_IRQHandler
 */
    .weak   Timer2_IRQHandler
    .type   Timer2_IRQHandler, %function
Timer2_IRQHandler:
    B .
200003ae:	e7fe      	b.n	200003ae <Timer2_IRQHandler>

200003b0 <CAN_IRQHandler>:
CAN_IRQHandler():
C:\Microchip\Libero_SoC_v2024.2\Designer\bin\projects\SMF2000-M3_ProjectRad\SC2021_Workspace_PRad\eNVM\Debug/../CMSIS/startup_gcc/startup_m2sxxx.S:754
 * CAN_IRQHandler
 */
    .weak   CAN_IRQHandler
    .type   CAN_IRQHandler, %function
CAN_IRQHandler:
    B .
200003b0:	e7fe      	b.n	200003b0 <CAN_IRQHandler>

200003b2 <ENVM0_IRQHandler>:
ENVM0_IRQHandler():
C:\Microchip\Libero_SoC_v2024.2\Designer\bin\projects\SMF2000-M3_ProjectRad\SC2021_Workspace_PRad\eNVM\Debug/../CMSIS/startup_gcc/startup_m2sxxx.S:762
 * ENVM0_IRQHandler
 */
    .weak   ENVM0_IRQHandler
    .type   ENVM0_IRQHandler, %function
ENVM0_IRQHandler:
    B .
200003b2:	e7fe      	b.n	200003b2 <ENVM0_IRQHandler>

200003b4 <ENVM1_IRQHandler>:
ENVM1_IRQHandler():
C:\Microchip\Libero_SoC_v2024.2\Designer\bin\projects\SMF2000-M3_ProjectRad\SC2021_Workspace_PRad\eNVM\Debug/../CMSIS/startup_gcc/startup_m2sxxx.S:770
 * ENVM1_IRQHandler
 */
    .weak   ENVM1_IRQHandler
    .type   ENVM1_IRQHandler, %function
ENVM1_IRQHandler:
    B .
200003b4:	e7fe      	b.n	200003b4 <ENVM1_IRQHandler>
C:\Microchip\Libero_SoC_v2024.2\Designer\bin\projects\SMF2000-M3_ProjectRad\SC2021_Workspace_PRad\eNVM\Debug/../CMSIS/startup_gcc/startup_m2sxxx.S:778
 * ComBlk_IRQHandler
 */
    .weak   ComBlk_IRQHandler
    .type   ComBlk_IRQHandler, %function
ComBlk_IRQHandler:
    B .
200003b6:	e7fe      	b.n	200003b6 <ENVM1_IRQHandler+0x2>

200003b8 <USB_IRQHandler>:
USB_IRQHandler():
C:\Microchip\Libero_SoC_v2024.2\Designer\bin\projects\SMF2000-M3_ProjectRad\SC2021_Workspace_PRad\eNVM\Debug/../CMSIS/startup_gcc/startup_m2sxxx.S:786
 * USB_IRQHandler
 */
    .weak   USB_IRQHandler
    .type   USB_IRQHandler, %function
USB_IRQHandler:
    B .
200003b8:	e7fe      	b.n	200003b8 <USB_IRQHandler>

200003ba <USB_DMA_IRQHandler>:
USB_DMA_IRQHandler():
C:\Microchip\Libero_SoC_v2024.2\Designer\bin\projects\SMF2000-M3_ProjectRad\SC2021_Workspace_PRad\eNVM\Debug/../CMSIS/startup_gcc/startup_m2sxxx.S:794
 * USB_DMA_IRQHandler
 */
    .weak   USB_DMA_IRQHandler
    .type   USB_DMA_IRQHandler, %function
USB_DMA_IRQHandler:
    B .
200003ba:	e7fe      	b.n	200003ba <USB_DMA_IRQHandler>

200003bc <PLL_Lock_IRQHandler>:
PLL_Lock_IRQHandler():
C:\Microchip\Libero_SoC_v2024.2\Designer\bin\projects\SMF2000-M3_ProjectRad\SC2021_Workspace_PRad\eNVM\Debug/../CMSIS/startup_gcc/startup_m2sxxx.S:802
 * PLL_Lock_IRQHandler
 */
    .weak   PLL_Lock_IRQHandler
    .type   PLL_Lock_IRQHandler, %function
PLL_Lock_IRQHandler:
    B .
200003bc:	e7fe      	b.n	200003bc <PLL_Lock_IRQHandler>

200003be <PLL_LockLost_IRQHandler>:
PLL_LockLost_IRQHandler():
C:\Microchip\Libero_SoC_v2024.2\Designer\bin\projects\SMF2000-M3_ProjectRad\SC2021_Workspace_PRad\eNVM\Debug/../CMSIS/startup_gcc/startup_m2sxxx.S:810
 * PLL_LockLost_IRQHandler
 */
    .weak   PLL_LockLost_IRQHandler
    .type   PLL_LockLost_IRQHandler, %function
PLL_LockLost_IRQHandler:
    B .
200003be:	e7fe      	b.n	200003be <PLL_LockLost_IRQHandler>

200003c0 <CommSwitchError_IRQHandler>:
CommSwitchError_IRQHandler():
C:\Microchip\Libero_SoC_v2024.2\Designer\bin\projects\SMF2000-M3_ProjectRad\SC2021_Workspace_PRad\eNVM\Debug/../CMSIS/startup_gcc/startup_m2sxxx.S:818
 * CommSwitchError_IRQHandler
 */
    .weak   CommSwitchError_IRQHandler
    .type   CommSwitchError_IRQHandler, %function
CommSwitchError_IRQHandler:
    B .
200003c0:	e7fe      	b.n	200003c0 <CommSwitchError_IRQHandler>

200003c2 <CacheError_IRQHandler>:
CacheError_IRQHandler():
C:\Microchip\Libero_SoC_v2024.2\Designer\bin\projects\SMF2000-M3_ProjectRad\SC2021_Workspace_PRad\eNVM\Debug/../CMSIS/startup_gcc/startup_m2sxxx.S:826
 * CacheError_IRQHandler
 */
    .weak   CacheError_IRQHandler
    .type   CacheError_IRQHandler, %function
CacheError_IRQHandler:
    B .
200003c2:	e7fe      	b.n	200003c2 <CacheError_IRQHandler>

200003c4 <DDR_IRQHandler>:
DDR_IRQHandler():
C:\Microchip\Libero_SoC_v2024.2\Designer\bin\projects\SMF2000-M3_ProjectRad\SC2021_Workspace_PRad\eNVM\Debug/../CMSIS/startup_gcc/startup_m2sxxx.S:834
 * DDR_IRQHandler
 */
    .weak   DDR_IRQHandler
    .type   DDR_IRQHandler, %function
DDR_IRQHandler:
    B .
200003c4:	e7fe      	b.n	200003c4 <DDR_IRQHandler>
C:\Microchip\Libero_SoC_v2024.2\Designer\bin\projects\SMF2000-M3_ProjectRad\SC2021_Workspace_PRad\eNVM\Debug/../CMSIS/startup_gcc/startup_m2sxxx.S:842
 * HPDMA_Complete_IRQHandler
 */
    .weak   HPDMA_Complete_IRQHandler
    .type   HPDMA_Complete_IRQHandler, %function
HPDMA_Complete_IRQHandler:
    B .
200003c6:	e7fe      	b.n	200003c6 <DDR_IRQHandler+0x2>
C:\Microchip\Libero_SoC_v2024.2\Designer\bin\projects\SMF2000-M3_ProjectRad\SC2021_Workspace_PRad\eNVM\Debug/../CMSIS/startup_gcc/startup_m2sxxx.S:850
 * HPDMA_Error_IRQHandler
 */
    .weak   HPDMA_Error_IRQHandler
    .type   HPDMA_Error_IRQHandler, %function
HPDMA_Error_IRQHandler:
    B .
200003c8:	e7fe      	b.n	200003c8 <DDR_IRQHandler+0x4>

200003ca <ECC_Error_IRQHandler>:
ECC_Error_IRQHandler():
C:\Microchip\Libero_SoC_v2024.2\Designer\bin\projects\SMF2000-M3_ProjectRad\SC2021_Workspace_PRad\eNVM\Debug/../CMSIS/startup_gcc/startup_m2sxxx.S:858
 * ECC_Error_IRQHandler
 */
    .weak   ECC_Error_IRQHandler
    .type   ECC_Error_IRQHandler, %function
ECC_Error_IRQHandler:
    B .
200003ca:	e7fe      	b.n	200003ca <ECC_Error_IRQHandler>

200003cc <MDDR_IOCalib_IRQHandler>:
MDDR_IOCalib_IRQHandler():
C:\Microchip\Libero_SoC_v2024.2\Designer\bin\projects\SMF2000-M3_ProjectRad\SC2021_Workspace_PRad\eNVM\Debug/../CMSIS/startup_gcc/startup_m2sxxx.S:866
 * MDDR_IOCalib_IRQHandler
 */
    .weak   MDDR_IOCalib_IRQHandler
    .type   MDDR_IOCalib_IRQHandler, %function
MDDR_IOCalib_IRQHandler:
    B .
200003cc:	e7fe      	b.n	200003cc <MDDR_IOCalib_IRQHandler>

200003ce <FAB_PLL_Lock_IRQHandler>:
FAB_PLL_Lock_IRQHandler():
C:\Microchip\Libero_SoC_v2024.2\Designer\bin\projects\SMF2000-M3_ProjectRad\SC2021_Workspace_PRad\eNVM\Debug/../CMSIS/startup_gcc/startup_m2sxxx.S:874
 * FAB_PLL_Lock_IRQHandler
 */
    .weak   FAB_PLL_Lock_IRQHandler
    .type   FAB_PLL_Lock_IRQHandler, %function    
FAB_PLL_Lock_IRQHandler:
    B .
200003ce:	e7fe      	b.n	200003ce <FAB_PLL_Lock_IRQHandler>

200003d0 <FAB_PLL_LockLost_IRQHandler>:
FAB_PLL_LockLost_IRQHandler():
C:\Microchip\Libero_SoC_v2024.2\Designer\bin\projects\SMF2000-M3_ProjectRad\SC2021_Workspace_PRad\eNVM\Debug/../CMSIS/startup_gcc/startup_m2sxxx.S:882
 * FAB_PLL_LockLost_IRQHandler
 */
    .weak   FAB_PLL_LockLost_IRQHandler
    .type   FAB_PLL_LockLost_IRQHandler, %function        
FAB_PLL_LockLost_IRQHandler:
    B .
200003d0:	e7fe      	b.n	200003d0 <FAB_PLL_LockLost_IRQHandler>

200003d2 <FIC64_IRQHandler>:
FIC64_IRQHandler():
C:\Microchip\Libero_SoC_v2024.2\Designer\bin\projects\SMF2000-M3_ProjectRad\SC2021_Workspace_PRad\eNVM\Debug/../CMSIS/startup_gcc/startup_m2sxxx.S:890
 * FIC64_IRQHandler
 */
    .weak   FIC64_IRQHandler
    .type   FIC64_IRQHandler, %function            
FIC64_IRQHandler:
    B .
200003d2:	e7fe      	b.n	200003d2 <FIC64_IRQHandler>

200003d4 <FabricIrq0_IRQHandler>:
FabricIrq0_IRQHandler():
C:\Microchip\Libero_SoC_v2024.2\Designer\bin\projects\SMF2000-M3_ProjectRad\SC2021_Workspace_PRad\eNVM\Debug/../CMSIS/startup_gcc/startup_m2sxxx.S:898
 * FabricIrq0_IRQHandler
 */
    .weak   FabricIrq0_IRQHandler
    .type   FabricIrq0_IRQHandler, %function
FabricIrq0_IRQHandler:
    B .
200003d4:	e7fe      	b.n	200003d4 <FabricIrq0_IRQHandler>

200003d6 <FabricIrq1_IRQHandler>:
FabricIrq1_IRQHandler():
C:\Microchip\Libero_SoC_v2024.2\Designer\bin\projects\SMF2000-M3_ProjectRad\SC2021_Workspace_PRad\eNVM\Debug/../CMSIS/startup_gcc/startup_m2sxxx.S:906
 * FabricIrq1_IRQHandler
 */
    .weak   FabricIrq1_IRQHandler
    .type   FabricIrq1_IRQHandler, %function
FabricIrq1_IRQHandler:
    B .
200003d6:	e7fe      	b.n	200003d6 <FabricIrq1_IRQHandler>

200003d8 <FabricIrq2_IRQHandler>:
FabricIrq2_IRQHandler():
C:\Microchip\Libero_SoC_v2024.2\Designer\bin\projects\SMF2000-M3_ProjectRad\SC2021_Workspace_PRad\eNVM\Debug/../CMSIS/startup_gcc/startup_m2sxxx.S:914
 * FabricIrq2_IRQHandler
 */
    .weak   FabricIrq2_IRQHandler
    .type   FabricIrq2_IRQHandler, %function
FabricIrq2_IRQHandler:
    B .
200003d8:	e7fe      	b.n	200003d8 <FabricIrq2_IRQHandler>

200003da <FabricIrq3_IRQHandler>:
FabricIrq3_IRQHandler():
C:\Microchip\Libero_SoC_v2024.2\Designer\bin\projects\SMF2000-M3_ProjectRad\SC2021_Workspace_PRad\eNVM\Debug/../CMSIS/startup_gcc/startup_m2sxxx.S:922
 * FabricIrq3_IRQHandler
 */
    .weak   FabricIrq3_IRQHandler
    .type   FabricIrq3_IRQHandler, %function
FabricIrq3_IRQHandler:
    B .
200003da:	e7fe      	b.n	200003da <FabricIrq3_IRQHandler>

200003dc <FabricIrq4_IRQHandler>:
FabricIrq4_IRQHandler():
C:\Microchip\Libero_SoC_v2024.2\Designer\bin\projects\SMF2000-M3_ProjectRad\SC2021_Workspace_PRad\eNVM\Debug/../CMSIS/startup_gcc/startup_m2sxxx.S:930
 * FabricIrq4_IRQHandler
 */
    .weak   FabricIrq4_IRQHandler
    .type   FabricIrq4_IRQHandler, %function
FabricIrq4_IRQHandler:
    B .
200003dc:	e7fe      	b.n	200003dc <FabricIrq4_IRQHandler>

200003de <FabricIrq5_IRQHandler>:
FabricIrq5_IRQHandler():
C:\Microchip\Libero_SoC_v2024.2\Designer\bin\projects\SMF2000-M3_ProjectRad\SC2021_Workspace_PRad\eNVM\Debug/../CMSIS/startup_gcc/startup_m2sxxx.S:938
 * FabricIrq5_IRQHandler
 */
    .weak   FabricIrq5_IRQHandler
    .type   FabricIrq5_IRQHandler, %function
FabricIrq5_IRQHandler:
    B .
200003de:	e7fe      	b.n	200003de <FabricIrq5_IRQHandler>

200003e0 <FabricIrq6_IRQHandler>:
FabricIrq6_IRQHandler():
C:\Microchip\Libero_SoC_v2024.2\Designer\bin\projects\SMF2000-M3_ProjectRad\SC2021_Workspace_PRad\eNVM\Debug/../CMSIS/startup_gcc/startup_m2sxxx.S:946
 * FabricIrq6_IRQHandler
 */
    .weak   FabricIrq6_IRQHandler
    .type   FabricIrq6_IRQHandler, %function
FabricIrq6_IRQHandler:
    B .
200003e0:	e7fe      	b.n	200003e0 <FabricIrq6_IRQHandler>

200003e2 <FabricIrq7_IRQHandler>:
FabricIrq7_IRQHandler():
C:\Microchip\Libero_SoC_v2024.2\Designer\bin\projects\SMF2000-M3_ProjectRad\SC2021_Workspace_PRad\eNVM\Debug/../CMSIS/startup_gcc/startup_m2sxxx.S:954
 * FabricIrq7_IRQHandler
 */
    .weak   FabricIrq7_IRQHandler
    .type   FabricIrq7_IRQHandler, %function
FabricIrq7_IRQHandler:
    B .
200003e2:	e7fe      	b.n	200003e2 <FabricIrq7_IRQHandler>

200003e4 <FabricIrq8_IRQHandler>:
FabricIrq8_IRQHandler():
C:\Microchip\Libero_SoC_v2024.2\Designer\bin\projects\SMF2000-M3_ProjectRad\SC2021_Workspace_PRad\eNVM\Debug/../CMSIS/startup_gcc/startup_m2sxxx.S:962
 * FabricIrq8_IRQHandler
 */
    .weak   FabricIrq8_IRQHandler
    .type   FabricIrq8_IRQHandler, %function
FabricIrq8_IRQHandler:
    B .
200003e4:	e7fe      	b.n	200003e4 <FabricIrq8_IRQHandler>

200003e6 <FabricIrq9_IRQHandler>:
FabricIrq9_IRQHandler():
C:\Microchip\Libero_SoC_v2024.2\Designer\bin\projects\SMF2000-M3_ProjectRad\SC2021_Workspace_PRad\eNVM\Debug/../CMSIS/startup_gcc/startup_m2sxxx.S:970
 * FabricIrq9_IRQHandler
 */
    .weak   FabricIrq9_IRQHandler
    .type   FabricIrq9_IRQHandler, %function
FabricIrq9_IRQHandler:
    B .
200003e6:	e7fe      	b.n	200003e6 <FabricIrq9_IRQHandler>

200003e8 <FabricIrq10_IRQHandler>:
FabricIrq10_IRQHandler():
C:\Microchip\Libero_SoC_v2024.2\Designer\bin\projects\SMF2000-M3_ProjectRad\SC2021_Workspace_PRad\eNVM\Debug/../CMSIS/startup_gcc/startup_m2sxxx.S:978
 * FabricIrq10_IRQHandler
 */
    .weak   FabricIrq10_IRQHandler
    .type   FabricIrq10_IRQHandler, %function
FabricIrq10_IRQHandler:
    B .
200003e8:	e7fe      	b.n	200003e8 <FabricIrq10_IRQHandler>

200003ea <FabricIrq11_IRQHandler>:
FabricIrq11_IRQHandler():
C:\Microchip\Libero_SoC_v2024.2\Designer\bin\projects\SMF2000-M3_ProjectRad\SC2021_Workspace_PRad\eNVM\Debug/../CMSIS/startup_gcc/startup_m2sxxx.S:986
 * FabricIrq11_IRQHandler
 */
    .weak   FabricIrq11_IRQHandler
    .type   FabricIrq11_IRQHandler, %function
FabricIrq11_IRQHandler:
    B .
200003ea:	e7fe      	b.n	200003ea <FabricIrq11_IRQHandler>

200003ec <FabricIrq12_IRQHandler>:
FabricIrq12_IRQHandler():
C:\Microchip\Libero_SoC_v2024.2\Designer\bin\projects\SMF2000-M3_ProjectRad\SC2021_Workspace_PRad\eNVM\Debug/../CMSIS/startup_gcc/startup_m2sxxx.S:994
 * FabricIrq12_IRQHandler
 */
    .weak   FabricIrq12_IRQHandler
    .type   FabricIrq12_IRQHandler, %function
FabricIrq12_IRQHandler:
    B .
200003ec:	e7fe      	b.n	200003ec <FabricIrq12_IRQHandler>

200003ee <FabricIrq13_IRQHandler>:
FabricIrq13_IRQHandler():
C:\Microchip\Libero_SoC_v2024.2\Designer\bin\projects\SMF2000-M3_ProjectRad\SC2021_Workspace_PRad\eNVM\Debug/../CMSIS/startup_gcc/startup_m2sxxx.S:1002
 * FabricIrq13_IRQHandler
 */
    .weak   FabricIrq13_IRQHandler
    .type   FabricIrq13_IRQHandler, %function
FabricIrq13_IRQHandler:
    B .
200003ee:	e7fe      	b.n	200003ee <FabricIrq13_IRQHandler>

200003f0 <FabricIrq14_IRQHandler>:
FabricIrq14_IRQHandler():
C:\Microchip\Libero_SoC_v2024.2\Designer\bin\projects\SMF2000-M3_ProjectRad\SC2021_Workspace_PRad\eNVM\Debug/../CMSIS/startup_gcc/startup_m2sxxx.S:1010
 * FabricIrq14_IRQHandler
 */
    .weak   FabricIrq14_IRQHandler
    .type   FabricIrq14_IRQHandler, %function
FabricIrq14_IRQHandler:
    B .
200003f0:	e7fe      	b.n	200003f0 <FabricIrq14_IRQHandler>

200003f2 <FabricIrq15_IRQHandler>:
FabricIrq15_IRQHandler():
C:\Microchip\Libero_SoC_v2024.2\Designer\bin\projects\SMF2000-M3_ProjectRad\SC2021_Workspace_PRad\eNVM\Debug/../CMSIS/startup_gcc/startup_m2sxxx.S:1018
 * FabricIrq15_IRQHandler
 */
    .weak   FabricIrq15_IRQHandler
    .type   FabricIrq15_IRQHandler, %function
FabricIrq15_IRQHandler:
    B .    
200003f2:	e7fe      	b.n	200003f2 <FabricIrq15_IRQHandler>

200003f4 <GPIO0_IRQHandler>:
GPIO0_IRQHandler():
C:\Microchip\Libero_SoC_v2024.2\Designer\bin\projects\SMF2000-M3_ProjectRad\SC2021_Workspace_PRad\eNVM\Debug/../CMSIS/startup_gcc/startup_m2sxxx.S:1026
 * GPIO0_IRQHandler
 */
    .weak   GPIO0_IRQHandler
    .type   GPIO0_IRQHandler, %function
GPIO0_IRQHandler:
    B .
200003f4:	e7fe      	b.n	200003f4 <GPIO0_IRQHandler>

200003f6 <GPIO1_IRQHandler>:
GPIO1_IRQHandler():
C:\Microchip\Libero_SoC_v2024.2\Designer\bin\projects\SMF2000-M3_ProjectRad\SC2021_Workspace_PRad\eNVM\Debug/../CMSIS/startup_gcc/startup_m2sxxx.S:1034
 * GPIO1_IRQHandler
 */
    .weak   GPIO1_IRQHandler
    .type   GPIO1_IRQHandler, %function
GPIO1_IRQHandler:
    B .
200003f6:	e7fe      	b.n	200003f6 <GPIO1_IRQHandler>

200003f8 <GPIO2_IRQHandler>:
GPIO2_IRQHandler():
C:\Microchip\Libero_SoC_v2024.2\Designer\bin\projects\SMF2000-M3_ProjectRad\SC2021_Workspace_PRad\eNVM\Debug/../CMSIS/startup_gcc/startup_m2sxxx.S:1042
 * GPIO2_IRQHandler
 */
    .weak   GPIO2_IRQHandler
    .type   GPIO2_IRQHandler, %function
GPIO2_IRQHandler:
    B .
200003f8:	e7fe      	b.n	200003f8 <GPIO2_IRQHandler>

200003fa <GPIO3_IRQHandler>:
GPIO3_IRQHandler():
C:\Microchip\Libero_SoC_v2024.2\Designer\bin\projects\SMF2000-M3_ProjectRad\SC2021_Workspace_PRad\eNVM\Debug/../CMSIS/startup_gcc/startup_m2sxxx.S:1050
 * GPIO3_IRQHandler
 */
    .weak   GPIO3_IRQHandler
    .type   GPIO3_IRQHandler, %function
GPIO3_IRQHandler:
    B .
200003fa:	e7fe      	b.n	200003fa <GPIO3_IRQHandler>

200003fc <GPIO4_IRQHandler>:
GPIO4_IRQHandler():
C:\Microchip\Libero_SoC_v2024.2\Designer\bin\projects\SMF2000-M3_ProjectRad\SC2021_Workspace_PRad\eNVM\Debug/../CMSIS/startup_gcc/startup_m2sxxx.S:1058
 * GPIO4_IRQHandler
 */
    .weak   GPIO4_IRQHandler
    .type   GPIO4_IRQHandler, %function
GPIO4_IRQHandler:
    B .
200003fc:	e7fe      	b.n	200003fc <GPIO4_IRQHandler>

200003fe <GPIO5_IRQHandler>:
GPIO5_IRQHandler():
C:\Microchip\Libero_SoC_v2024.2\Designer\bin\projects\SMF2000-M3_ProjectRad\SC2021_Workspace_PRad\eNVM\Debug/../CMSIS/startup_gcc/startup_m2sxxx.S:1066
 * GPIO5_IRQHandler
 */
    .weak   GPIO5_IRQHandler
    .type   GPIO5_IRQHandler, %function
GPIO5_IRQHandler:
    B .
200003fe:	e7fe      	b.n	200003fe <GPIO5_IRQHandler>

20000400 <GPIO6_IRQHandler>:
GPIO6_IRQHandler():
C:\Microchip\Libero_SoC_v2024.2\Designer\bin\projects\SMF2000-M3_ProjectRad\SC2021_Workspace_PRad\eNVM\Debug/../CMSIS/startup_gcc/startup_m2sxxx.S:1074
 * GPIO6_IRQHandler
 */
    .weak   GPIO6_IRQHandler
    .type   GPIO6_IRQHandler, %function
GPIO6_IRQHandler:
    B .
20000400:	e7fe      	b.n	20000400 <GPIO6_IRQHandler>

20000402 <GPIO7_IRQHandler>:
GPIO7_IRQHandler():
C:\Microchip\Libero_SoC_v2024.2\Designer\bin\projects\SMF2000-M3_ProjectRad\SC2021_Workspace_PRad\eNVM\Debug/../CMSIS/startup_gcc/startup_m2sxxx.S:1082
 * GPIO7_IRQHandler
 */
    .weak   GPIO7_IRQHandler
    .type   GPIO7_IRQHandler, %function
GPIO7_IRQHandler:
    B .
20000402:	e7fe      	b.n	20000402 <GPIO7_IRQHandler>

20000404 <GPIO8_IRQHandler>:
GPIO8_IRQHandler():
C:\Microchip\Libero_SoC_v2024.2\Designer\bin\projects\SMF2000-M3_ProjectRad\SC2021_Workspace_PRad\eNVM\Debug/../CMSIS/startup_gcc/startup_m2sxxx.S:1090
 * GPIO8_IRQHandler
 */
    .weak   GPIO8_IRQHandler
    .type   GPIO8_IRQHandler, %function
GPIO8_IRQHandler:
    B .
20000404:	e7fe      	b.n	20000404 <GPIO8_IRQHandler>

20000406 <GPIO9_IRQHandler>:
GPIO9_IRQHandler():
C:\Microchip\Libero_SoC_v2024.2\Designer\bin\projects\SMF2000-M3_ProjectRad\SC2021_Workspace_PRad\eNVM\Debug/../CMSIS/startup_gcc/startup_m2sxxx.S:1098
 * GPIO9_IRQHandler
 */
    .weak   GPIO9_IRQHandler
    .type   GPIO9_IRQHandler, %function
GPIO9_IRQHandler:
    B .
20000406:	e7fe      	b.n	20000406 <GPIO9_IRQHandler>

20000408 <GPIO10_IRQHandler>:
GPIO10_IRQHandler():
C:\Microchip\Libero_SoC_v2024.2\Designer\bin\projects\SMF2000-M3_ProjectRad\SC2021_Workspace_PRad\eNVM\Debug/../CMSIS/startup_gcc/startup_m2sxxx.S:1106
 * GPIO10_IRQHandler
 */
    .weak   GPIO10_IRQHandler
    .type   GPIO10_IRQHandler, %function
GPIO10_IRQHandler:
    B .
20000408:	e7fe      	b.n	20000408 <GPIO10_IRQHandler>

2000040a <GPIO11_IRQHandler>:
GPIO11_IRQHandler():
C:\Microchip\Libero_SoC_v2024.2\Designer\bin\projects\SMF2000-M3_ProjectRad\SC2021_Workspace_PRad\eNVM\Debug/../CMSIS/startup_gcc/startup_m2sxxx.S:1114
 * GPIO11_IRQHandler
 */
    .weak   GPIO11_IRQHandler
    .type   GPIO11_IRQHandler, %function
GPIO11_IRQHandler:
    B .
2000040a:	e7fe      	b.n	2000040a <GPIO11_IRQHandler>

2000040c <GPIO12_IRQHandler>:
GPIO12_IRQHandler():
C:\Microchip\Libero_SoC_v2024.2\Designer\bin\projects\SMF2000-M3_ProjectRad\SC2021_Workspace_PRad\eNVM\Debug/../CMSIS/startup_gcc/startup_m2sxxx.S:1122
 * GPIO12_IRQHandler
 */
    .weak   GPIO12_IRQHandler
    .type   GPIO12_IRQHandler, %function
GPIO12_IRQHandler:
    B .
2000040c:	e7fe      	b.n	2000040c <GPIO12_IRQHandler>

2000040e <GPIO13_IRQHandler>:
GPIO13_IRQHandler():
C:\Microchip\Libero_SoC_v2024.2\Designer\bin\projects\SMF2000-M3_ProjectRad\SC2021_Workspace_PRad\eNVM\Debug/../CMSIS/startup_gcc/startup_m2sxxx.S:1130
 * GPIO13_IRQHandler
 */
    .weak   GPIO13_IRQHandler
    .type   GPIO13_IRQHandler, %function
GPIO13_IRQHandler:
    B .
2000040e:	e7fe      	b.n	2000040e <GPIO13_IRQHandler>

20000410 <GPIO14_IRQHandler>:
GPIO14_IRQHandler():
C:\Microchip\Libero_SoC_v2024.2\Designer\bin\projects\SMF2000-M3_ProjectRad\SC2021_Workspace_PRad\eNVM\Debug/../CMSIS/startup_gcc/startup_m2sxxx.S:1138
 * GPIO14_IRQHandler
 */
    .weak   GPIO14_IRQHandler
    .type   GPIO14_IRQHandler, %function
GPIO14_IRQHandler:
    B .
20000410:	e7fe      	b.n	20000410 <GPIO14_IRQHandler>

20000412 <GPIO15_IRQHandler>:
GPIO15_IRQHandler():
C:\Microchip\Libero_SoC_v2024.2\Designer\bin\projects\SMF2000-M3_ProjectRad\SC2021_Workspace_PRad\eNVM\Debug/../CMSIS/startup_gcc/startup_m2sxxx.S:1146
 * GPIO15_IRQHandler
 */
    .weak   GPIO15_IRQHandler
    .type   GPIO15_IRQHandler, %function
GPIO15_IRQHandler:
    B .
20000412:	e7fe      	b.n	20000412 <GPIO15_IRQHandler>

20000414 <GPIO16_IRQHandler>:
GPIO16_IRQHandler():
C:\Microchip\Libero_SoC_v2024.2\Designer\bin\projects\SMF2000-M3_ProjectRad\SC2021_Workspace_PRad\eNVM\Debug/../CMSIS/startup_gcc/startup_m2sxxx.S:1154
 * GPIO16_IRQHandler
 */
    .weak   GPIO16_IRQHandler
    .type   GPIO16_IRQHandler, %function
GPIO16_IRQHandler:
    B .
20000414:	e7fe      	b.n	20000414 <GPIO16_IRQHandler>

20000416 <GPIO17_IRQHandler>:
GPIO17_IRQHandler():
C:\Microchip\Libero_SoC_v2024.2\Designer\bin\projects\SMF2000-M3_ProjectRad\SC2021_Workspace_PRad\eNVM\Debug/../CMSIS/startup_gcc/startup_m2sxxx.S:1162
 * GPIO17_IRQHandler
 */
    .weak   GPIO17_IRQHandler
    .type   GPIO17_IRQHandler, %function
GPIO17_IRQHandler:
    B .
20000416:	e7fe      	b.n	20000416 <GPIO17_IRQHandler>

20000418 <GPIO18_IRQHandler>:
GPIO18_IRQHandler():
C:\Microchip\Libero_SoC_v2024.2\Designer\bin\projects\SMF2000-M3_ProjectRad\SC2021_Workspace_PRad\eNVM\Debug/../CMSIS/startup_gcc/startup_m2sxxx.S:1170
 * GPIO18_IRQHandler
 */
    .weak   GPIO18_IRQHandler
    .type   GPIO18_IRQHandler, %function
GPIO18_IRQHandler:
    B .
20000418:	e7fe      	b.n	20000418 <GPIO18_IRQHandler>

2000041a <GPIO19_IRQHandler>:
GPIO19_IRQHandler():
C:\Microchip\Libero_SoC_v2024.2\Designer\bin\projects\SMF2000-M3_ProjectRad\SC2021_Workspace_PRad\eNVM\Debug/../CMSIS/startup_gcc/startup_m2sxxx.S:1178
 * GPIO19_IRQHandler
 */
    .weak   GPIO19_IRQHandler
    .type   GPIO19_IRQHandler, %function
GPIO19_IRQHandler:
    B .
2000041a:	e7fe      	b.n	2000041a <GPIO19_IRQHandler>

2000041c <GPIO20_IRQHandler>:
GPIO20_IRQHandler():
C:\Microchip\Libero_SoC_v2024.2\Designer\bin\projects\SMF2000-M3_ProjectRad\SC2021_Workspace_PRad\eNVM\Debug/../CMSIS/startup_gcc/startup_m2sxxx.S:1186
 * GPIO20_IRQHandler
 */
    .weak   GPIO20_IRQHandler
    .type   GPIO20_IRQHandler, %function
GPIO20_IRQHandler:
    B .
2000041c:	e7fe      	b.n	2000041c <GPIO20_IRQHandler>

2000041e <GPIO21_IRQHandler>:
GPIO21_IRQHandler():
C:\Microchip\Libero_SoC_v2024.2\Designer\bin\projects\SMF2000-M3_ProjectRad\SC2021_Workspace_PRad\eNVM\Debug/../CMSIS/startup_gcc/startup_m2sxxx.S:1194
 * GPIO21_IRQHandler
 */
    .weak   GPIO21_IRQHandler
    .type   GPIO21_IRQHandler, %function
GPIO21_IRQHandler:
    B .
2000041e:	e7fe      	b.n	2000041e <GPIO21_IRQHandler>

20000420 <GPIO22_IRQHandler>:
GPIO22_IRQHandler():
C:\Microchip\Libero_SoC_v2024.2\Designer\bin\projects\SMF2000-M3_ProjectRad\SC2021_Workspace_PRad\eNVM\Debug/../CMSIS/startup_gcc/startup_m2sxxx.S:1202
 * GPIO22_IRQHandler
 */
    .weak   GPIO22_IRQHandler
    .type   GPIO22_IRQHandler, %function
GPIO22_IRQHandler:
    B .
20000420:	e7fe      	b.n	20000420 <GPIO22_IRQHandler>

20000422 <GPIO23_IRQHandler>:
GPIO23_IRQHandler():
C:\Microchip\Libero_SoC_v2024.2\Designer\bin\projects\SMF2000-M3_ProjectRad\SC2021_Workspace_PRad\eNVM\Debug/../CMSIS/startup_gcc/startup_m2sxxx.S:1210
 * GPIO23_IRQHandler
 */
    .weak   GPIO23_IRQHandler
    .type   GPIO23_IRQHandler, %function
GPIO23_IRQHandler:
    B .
20000422:	e7fe      	b.n	20000422 <GPIO23_IRQHandler>

20000424 <GPIO24_IRQHandler>:
GPIO24_IRQHandler():
C:\Microchip\Libero_SoC_v2024.2\Designer\bin\projects\SMF2000-M3_ProjectRad\SC2021_Workspace_PRad\eNVM\Debug/../CMSIS/startup_gcc/startup_m2sxxx.S:1218
 * GPIO24_IRQHandler
 */
    .weak   GPIO24_IRQHandler
    .type   GPIO24_IRQHandler, %function
GPIO24_IRQHandler:
    B .
20000424:	e7fe      	b.n	20000424 <GPIO24_IRQHandler>

20000426 <GPIO25_IRQHandler>:
GPIO25_IRQHandler():
C:\Microchip\Libero_SoC_v2024.2\Designer\bin\projects\SMF2000-M3_ProjectRad\SC2021_Workspace_PRad\eNVM\Debug/../CMSIS/startup_gcc/startup_m2sxxx.S:1226
 * GPIO25_IRQHandler
 */
    .weak   GPIO25_IRQHandler
    .type   GPIO25_IRQHandler, %function
GPIO25_IRQHandler:
    B .
20000426:	e7fe      	b.n	20000426 <GPIO25_IRQHandler>

20000428 <GPIO26_IRQHandler>:
GPIO26_IRQHandler():
C:\Microchip\Libero_SoC_v2024.2\Designer\bin\projects\SMF2000-M3_ProjectRad\SC2021_Workspace_PRad\eNVM\Debug/../CMSIS/startup_gcc/startup_m2sxxx.S:1234
 * GPIO26_IRQHandler
 */
    .weak   GPIO26_IRQHandler
    .type   GPIO26_IRQHandler, %function
GPIO26_IRQHandler:
    B .
20000428:	e7fe      	b.n	20000428 <GPIO26_IRQHandler>

2000042a <GPIO27_IRQHandler>:
GPIO27_IRQHandler():
C:\Microchip\Libero_SoC_v2024.2\Designer\bin\projects\SMF2000-M3_ProjectRad\SC2021_Workspace_PRad\eNVM\Debug/../CMSIS/startup_gcc/startup_m2sxxx.S:1242
 * GPIO27_IRQHandler
 */
    .weak   GPIO27_IRQHandler
    .type   GPIO27_IRQHandler, %function
GPIO27_IRQHandler:
    B .
2000042a:	e7fe      	b.n	2000042a <GPIO27_IRQHandler>

2000042c <GPIO28_IRQHandler>:
GPIO28_IRQHandler():
C:\Microchip\Libero_SoC_v2024.2\Designer\bin\projects\SMF2000-M3_ProjectRad\SC2021_Workspace_PRad\eNVM\Debug/../CMSIS/startup_gcc/startup_m2sxxx.S:1250
 * GPIO28_IRQHandler
 */
    .weak   GPIO28_IRQHandler
    .type   GPIO28_IRQHandler, %function
GPIO28_IRQHandler:
    B .
2000042c:	e7fe      	b.n	2000042c <GPIO28_IRQHandler>

2000042e <GPIO29_IRQHandler>:
GPIO29_IRQHandler():
C:\Microchip\Libero_SoC_v2024.2\Designer\bin\projects\SMF2000-M3_ProjectRad\SC2021_Workspace_PRad\eNVM\Debug/../CMSIS/startup_gcc/startup_m2sxxx.S:1258
 * GPIO29_IRQHandler
 */
    .weak   GPIO29_IRQHandler
    .type   GPIO29_IRQHandler, %function
GPIO29_IRQHandler:
    B .
2000042e:	e7fe      	b.n	2000042e <GPIO29_IRQHandler>

20000430 <GPIO30_IRQHandler>:
GPIO30_IRQHandler():
C:\Microchip\Libero_SoC_v2024.2\Designer\bin\projects\SMF2000-M3_ProjectRad\SC2021_Workspace_PRad\eNVM\Debug/../CMSIS/startup_gcc/startup_m2sxxx.S:1266
 * GPIO30_IRQHandler
 */
    .weak   GPIO30_IRQHandler
    .type   GPIO30_IRQHandler, %function
GPIO30_IRQHandler:
    B .
20000430:	e7fe      	b.n	20000430 <GPIO30_IRQHandler>

20000432 <GPIO31_IRQHandler>:
GPIO31_IRQHandler():
C:\Microchip\Libero_SoC_v2024.2\Designer\bin\projects\SMF2000-M3_ProjectRad\SC2021_Workspace_PRad\eNVM\Debug/../CMSIS/startup_gcc/startup_m2sxxx.S:1274
 * GPIO31_IRQHandler
 */
    .weak   GPIO31_IRQHandler
    .type   GPIO31_IRQHandler, %function
GPIO31_IRQHandler:
    B .
20000432:	e7fe      	b.n	20000432 <GPIO31_IRQHandler>

20000434 <mscc_post_hw_cfg_init>:
mscc_post_hw_cfg_init():
C:\Microchip\Libero_SoC_v2024.2\Designer\bin\projects\SMF2000-M3_ProjectRad\SC2021_Workspace_PRad\eNVM\Debug/../CMSIS/startup_gcc/startup_m2sxxx.S:1282
 * mscc_post_hw_cfg_init
 */
    .weak   mscc_post_hw_cfg_init
    .type   mscc_post_hw_cfg_init, %function
mscc_post_hw_cfg_init:
    BX LR
20000434:	4770      	bx	lr

20000436 <RAM_INIT_PATTERN>:
RAM_INIT_PATTERN():
C:\Microchip\Libero_SoC_v2024.2\Designer\bin\projects\SMF2000-M3_ProjectRad\SC2021_Workspace_PRad\eNVM\Debug/../CMSIS/startup_gcc/startup_m2sxxx.S:1282
20000436:	0000      	.short	0x0000
	...

2000043a <HEAP_INIT_PATTERN>:
HEAP_INIT_PATTERN():
C:\Microchip\Libero_SoC_v2024.2\Designer\bin\projects\SMF2000-M3_ProjectRad\SC2021_Workspace_PRad\eNVM\Debug/../CMSIS/startup_gcc/startup_m2sxxx.S:1282
2000043a:	a2a2      	.short	0xa2a2
2000043c:	a2a2      	.short	0xa2a2

2000043e <SF2_ESRAM_CR>:
SF2_ESRAM_CR():
C:\Microchip\Libero_SoC_v2024.2\Designer\bin\projects\SMF2000-M3_ProjectRad\SC2021_Workspace_PRad\eNVM\Debug/../CMSIS/startup_gcc/startup_m2sxxx.S:1282
2000043e:	8000      	.short	0x8000
20000440:	4003      	.short	0x4003

20000442 <SF2_DDR_CR>:
SF2_DDR_CR():
C:\Microchip\Libero_SoC_v2024.2\Designer\bin\projects\SMF2000-M3_ProjectRad\SC2021_Workspace_PRad\eNVM\Debug/../CMSIS/startup_gcc/startup_m2sxxx.S:1282
20000442:	8008      	.short	0x8008
20000444:	4003      	.short	0x4003

20000446 <SF2_ENVM_REMAP_CR>:
SF2_ENVM_REMAP_CR():
C:\Microchip\Libero_SoC_v2024.2\Designer\bin\projects\SMF2000-M3_ProjectRad\SC2021_Workspace_PRad\eNVM\Debug/../CMSIS/startup_gcc/startup_m2sxxx.S:1282
20000446:	8010      	.short	0x8010
20000448:	4003      	.short	0x4003

2000044a <SF2_DDRB_NB_SIZE>:
SF2_DDRB_NB_SIZE():
C:\Microchip\Libero_SoC_v2024.2\Designer\bin\projects\SMF2000-M3_ProjectRad\SC2021_Workspace_PRad\eNVM\Debug/../CMSIS/startup_gcc/startup_m2sxxx.S:1282
2000044a:	8030      	.short	0x8030
2000044c:	4003      	.short	0x4003

2000044e <SF2_DDRB_CR>:
SF2_DDRB_CR():
C:\Microchip\Libero_SoC_v2024.2\Designer\bin\projects\SMF2000-M3_ProjectRad\SC2021_Workspace_PRad\eNVM\Debug/../CMSIS/startup_gcc/startup_m2sxxx.S:1282
2000044e:	8034      	.short	0x8034
20000450:	4003      	.short	0x4003

20000452 <SF2_EDAC_CR>:
SF2_EDAC_CR():
C:\Microchip\Libero_SoC_v2024.2\Designer\bin\projects\SMF2000-M3_ProjectRad\SC2021_Workspace_PRad\eNVM\Debug/../CMSIS/startup_gcc/startup_m2sxxx.S:1282
20000452:	8038      	.short	0x8038
20000454:	4003      	.short	0x4003

20000456 <SF2_MDDR_MODE_CR>:
SF2_MDDR_MODE_CR():
C:\Microchip\Libero_SoC_v2024.2\Designer\bin\projects\SMF2000-M3_ProjectRad\SC2021_Workspace_PRad\eNVM\Debug/../CMSIS/startup_gcc/startup_m2sxxx.S:1282
20000456:	0818      	.short	0x0818
20000458:	00004002 	.word	0x00004002
C:\Microchip\Libero_SoC_v2024.2\Designer\bin\projects\SMF2000-M3_ProjectRad\SC2021_Workspace_PRad\eNVM\Debug/../CMSIS/startup_gcc/startup_m2sxxx.S:168
    ldr r0, = __stack_start__
2000045c:	2000f000 	.word	0x2000f000
C:\Microchip\Libero_SoC_v2024.2\Designer\bin\projects\SMF2000-M3_ProjectRad\SC2021_Workspace_PRad\eNVM\Debug/../CMSIS/startup_gcc/startup_m2sxxx.S:169
    ldr r1, =_estack
20000460:	20010000 	.word	0x20010000
C:\Microchip\Libero_SoC_v2024.2\Designer\bin\projects\SMF2000-M3_ProjectRad\SC2021_Workspace_PRad\eNVM\Debug/../CMSIS/startup_gcc/startup_m2sxxx.S:177
    ldr r0, =SystemInit
20000464:	200026dd 	.word	0x200026dd
	...
C:\Microchip\Libero_SoC_v2024.2\Designer\bin\projects\SMF2000-M3_ProjectRad\SC2021_Workspace_PRad\eNVM\Debug/../CMSIS/startup_gcc/startup_m2sxxx.S:243
    ldr r0, =__vector_table_load
20000470:	20000000 	.word	0x20000000
C:\Microchip\Libero_SoC_v2024.2\Designer\bin\projects\SMF2000-M3_ProjectRad\SC2021_Workspace_PRad\eNVM\Debug/../CMSIS/startup_gcc/startup_m2sxxx.S:244
    ldr r1, =__vector_table_start
20000474:	20000000 	.word	0x20000000
C:\Microchip\Libero_SoC_v2024.2\Designer\bin\projects\SMF2000-M3_ProjectRad\SC2021_Workspace_PRad\eNVM\Debug/../CMSIS/startup_gcc/startup_m2sxxx.S:245
    ldr r2, =_evector_table
20000478:	20000190 	.word	0x20000190
C:\Microchip\Libero_SoC_v2024.2\Designer\bin\projects\SMF2000-M3_ProjectRad\SC2021_Workspace_PRad\eNVM\Debug/../CMSIS/startup_gcc/startup_m2sxxx.S:252
    ldr r0, =__text_load
2000047c:	200004b0 	.word	0x200004b0
C:\Microchip\Libero_SoC_v2024.2\Designer\bin\projects\SMF2000-M3_ProjectRad\SC2021_Workspace_PRad\eNVM\Debug/../CMSIS/startup_gcc/startup_m2sxxx.S:253
    ldr r1, =__text_start
20000480:	200004b0 	.word	0x200004b0
C:\Microchip\Libero_SoC_v2024.2\Designer\bin\projects\SMF2000-M3_ProjectRad\SC2021_Workspace_PRad\eNVM\Debug/../CMSIS/startup_gcc/startup_m2sxxx.S:254
    ldr r2, =_etext
20000484:	20008968 	.word	0x20008968
C:\Microchip\Libero_SoC_v2024.2\Designer\bin\projects\SMF2000-M3_ProjectRad\SC2021_Workspace_PRad\eNVM\Debug/../CMSIS/startup_gcc/startup_m2sxxx.S:262
    ldr r0, =__data_load
20000488:	20008970 	.word	0x20008970
C:\Microchip\Libero_SoC_v2024.2\Designer\bin\projects\SMF2000-M3_ProjectRad\SC2021_Workspace_PRad\eNVM\Debug/../CMSIS/startup_gcc/startup_m2sxxx.S:263
    ldr r1, =__data_start
2000048c:	20008970 	.word	0x20008970
C:\Microchip\Libero_SoC_v2024.2\Designer\bin\projects\SMF2000-M3_ProjectRad\SC2021_Workspace_PRad\eNVM\Debug/../CMSIS/startup_gcc/startup_m2sxxx.S:264
    ldr r2, =_edata
20000490:	20009340 	.word	0x20009340
C:\Microchip\Libero_SoC_v2024.2\Designer\bin\projects\SMF2000-M3_ProjectRad\SC2021_Workspace_PRad\eNVM\Debug/../CMSIS/startup_gcc/startup_m2sxxx.S:271
    ldr r0, =__bss_start__
20000494:	20009340 	.word	0x20009340
C:\Microchip\Libero_SoC_v2024.2\Designer\bin\projects\SMF2000-M3_ProjectRad\SC2021_Workspace_PRad\eNVM\Debug/../CMSIS/startup_gcc/startup_m2sxxx.S:272
    ldr r1, =__bss_end__
20000498:	200094a0 	.word	0x200094a0
C:\Microchip\Libero_SoC_v2024.2\Designer\bin\projects\SMF2000-M3_ProjectRad\SC2021_Workspace_PRad\eNVM\Debug/../CMSIS/startup_gcc/startup_m2sxxx.S:289
    ldr r0, =__heap_start__
2000049c:	200094a0 	.word	0x200094a0
C:\Microchip\Libero_SoC_v2024.2\Designer\bin\projects\SMF2000-M3_ProjectRad\SC2021_Workspace_PRad\eNVM\Debug/../CMSIS/startup_gcc/startup_m2sxxx.S:290
    ldr r1, =_eheap
200004a0:	2000f000 	.word	0x2000f000
C:\Microchip\Libero_SoC_v2024.2\Designer\bin\projects\SMF2000-M3_ProjectRad\SC2021_Workspace_PRad\eNVM\Debug/../CMSIS/startup_gcc/startup_m2sxxx.S:313
    ldr.w r0, =__libc_init_array
200004a4:	2000321d 	.word	0x2000321d
C:\Microchip\Libero_SoC_v2024.2\Designer\bin\projects\SMF2000-M3_ProjectRad\SC2021_Workspace_PRad\eNVM\Debug/../CMSIS/startup_gcc/startup_m2sxxx.S:323
    ldr pc, =main
200004a8:	20002eb1 	.word	0x20002eb1
200004ac:	00000000 	.word	0x00000000

Disassembly of section .text:

200004b0 <__do_global_dtors_aux>:
__text_start():
200004b0:	b510      	push	{r4, lr}
200004b2:	4c05      	ldr	r4, [pc, #20]	; (200004c8 <__text_load+0x18>)
200004b4:	7823      	ldrb	r3, [r4, #0]
200004b6:	b933      	cbnz	r3, 200004c6 <__do_global_dtors_aux+0x16>
200004b8:	4b04      	ldr	r3, [pc, #16]	; (200004cc <__text_load+0x1c>)
200004ba:	b113      	cbz	r3, 200004c2 <__do_global_dtors_aux+0x12>
200004bc:	4804      	ldr	r0, [pc, #16]	; (200004d0 <__text_load+0x20>)
200004be:	f3af 8000 	nop.w
200004c2:	2301      	movs	r3, #1
200004c4:	7023      	strb	r3, [r4, #0]
200004c6:	bd10      	pop	{r4, pc}
200004c8:	20009340 	.word	0x20009340
200004cc:	00000000 	.word	0x00000000
200004d0:	20008930 	.word	0x20008930

200004d4 <frame_dummy>:
frame_dummy():
200004d4:	b508      	push	{r3, lr}
200004d6:	4b03      	ldr	r3, [pc, #12]	; (200004e4 <frame_dummy+0x10>)
200004d8:	b11b      	cbz	r3, 200004e2 <frame_dummy+0xe>
200004da:	4903      	ldr	r1, [pc, #12]	; (200004e8 <frame_dummy+0x14>)
200004dc:	4803      	ldr	r0, [pc, #12]	; (200004ec <frame_dummy+0x18>)
200004de:	f3af 8000 	nop.w
200004e2:	bd08      	pop	{r3, pc}
200004e4:	00000000 	.word	0x00000000
200004e8:	20009344 	.word	0x20009344
200004ec:	20008930 	.word	0x20008930

200004f0 <NVIC_ClearPendingIRQ>:
NVIC_ClearPendingIRQ():
c:\microchip\softconsole-v2021.1\cmsis\v4.5\include/core_cm3.h:1499
  \brief   Clear Pending Interrupt
  \details Clears the pending bit of an external interrupt.
  \param [in]      IRQn  External interrupt number. Value cannot be negative.
 */
__STATIC_INLINE void NVIC_ClearPendingIRQ(IRQn_Type IRQn)
{
200004f0:	b480      	push	{r7}
200004f2:	b083      	sub	sp, #12
200004f4:	af00      	add	r7, sp, #0
200004f6:	4603      	mov	r3, r0
200004f8:	71fb      	strb	r3, [r7, #7]
c:\microchip\softconsole-v2021.1\cmsis\v4.5\include/core_cm3.h:1500
  NVIC->ICPR[(((uint32_t)(int32_t)IRQn) >> 5UL)] = (uint32_t)(1UL << (((uint32_t)(int32_t)IRQn) & 0x1FUL));
200004fa:	79fb      	ldrb	r3, [r7, #7]
200004fc:	f003 021f 	and.w	r2, r3, #31
20000500:	4907      	ldr	r1, [pc, #28]	; (20000520 <NVIC_ClearPendingIRQ+0x30>)
20000502:	f997 3007 	ldrsb.w	r3, [r7, #7]
20000506:	095b      	lsrs	r3, r3, #5
20000508:	2001      	movs	r0, #1
2000050a:	fa00 f202 	lsl.w	r2, r0, r2
2000050e:	3360      	adds	r3, #96	; 0x60
20000510:	f841 2023 	str.w	r2, [r1, r3, lsl #2]
c:\microchip\softconsole-v2021.1\cmsis\v4.5\include/core_cm3.h:1501
}
20000514:	bf00      	nop
20000516:	370c      	adds	r7, #12
20000518:	46bd      	mov	sp, r7
2000051a:	bc80      	pop	{r7}
2000051c:	4770      	bx	lr
2000051e:	bf00      	nop
20000520:	e000e100 	.word	0xe000e100

20000524 <set_bit_reg8>:
set_bit_reg8():
C:\Microchip\Libero_SoC_v2024.2\Designer\bin\projects\SMF2000-M3_ProjectRad\SC2021_Workspace_PRad\eNVM\Debug/../drivers/mss_uart/../../CMSIS/hw_reg_io.h:79
static __INLINE void set_bit_reg16(volatile uint16_t * reg, uint8_t bit)
{
    HW_REG_BIT(reg,bit) = 0x1;
}
static __INLINE void set_bit_reg8(volatile uint8_t * reg, uint8_t bit)
{
20000524:	b480      	push	{r7}
20000526:	b083      	sub	sp, #12
20000528:	af00      	add	r7, sp, #0
2000052a:	6078      	str	r0, [r7, #4]
2000052c:	460b      	mov	r3, r1
2000052e:	70fb      	strb	r3, [r7, #3]
C:\Microchip\Libero_SoC_v2024.2\Designer\bin\projects\SMF2000-M3_ProjectRad\SC2021_Workspace_PRad\eNVM\Debug/../drivers/mss_uart/../../CMSIS/hw_reg_io.h:80
    HW_REG_BIT(reg,bit) = 0x1;
20000530:	687b      	ldr	r3, [r7, #4]
20000532:	f003 4270 	and.w	r2, r3, #4026531840	; 0xf0000000
20000536:	687b      	ldr	r3, [r7, #4]
20000538:	015b      	lsls	r3, r3, #5
2000053a:	f023 437e 	bic.w	r3, r3, #4261412864	; 0xfe000000
2000053e:	f023 031f 	bic.w	r3, r3, #31
20000542:	4313      	orrs	r3, r2
20000544:	78fa      	ldrb	r2, [r7, #3]
20000546:	0092      	lsls	r2, r2, #2
20000548:	4413      	add	r3, r2
2000054a:	f103 7300 	add.w	r3, r3, #33554432	; 0x2000000
2000054e:	461a      	mov	r2, r3
20000550:	2301      	movs	r3, #1
20000552:	6013      	str	r3, [r2, #0]
C:\Microchip\Libero_SoC_v2024.2\Designer\bin\projects\SMF2000-M3_ProjectRad\SC2021_Workspace_PRad\eNVM\Debug/../drivers/mss_uart/../../CMSIS/hw_reg_io.h:81
}
20000554:	bf00      	nop
20000556:	370c      	adds	r7, #12
20000558:	46bd      	mov	sp, r7
2000055a:	bc80      	pop	{r7}
2000055c:	4770      	bx	lr

2000055e <clear_bit_reg8>:
clear_bit_reg8():
C:\Microchip\Libero_SoC_v2024.2\Designer\bin\projects\SMF2000-M3_ProjectRad\SC2021_Workspace_PRad\eNVM\Debug/../drivers/mss_uart/../../CMSIS/hw_reg_io.h:94
static __INLINE void clear_bit_reg16(volatile uint16_t * reg, uint8_t bit)
{
    HW_REG_BIT(reg,bit) = 0x0;
}
static __INLINE void clear_bit_reg8(volatile uint8_t * reg, uint8_t bit)
{
2000055e:	b480      	push	{r7}
20000560:	b083      	sub	sp, #12
20000562:	af00      	add	r7, sp, #0
20000564:	6078      	str	r0, [r7, #4]
20000566:	460b      	mov	r3, r1
20000568:	70fb      	strb	r3, [r7, #3]
C:\Microchip\Libero_SoC_v2024.2\Designer\bin\projects\SMF2000-M3_ProjectRad\SC2021_Workspace_PRad\eNVM\Debug/../drivers/mss_uart/../../CMSIS/hw_reg_io.h:95
    HW_REG_BIT(reg,bit) = 0x0;
2000056a:	687b      	ldr	r3, [r7, #4]
2000056c:	f003 4270 	and.w	r2, r3, #4026531840	; 0xf0000000
20000570:	687b      	ldr	r3, [r7, #4]
20000572:	015b      	lsls	r3, r3, #5
20000574:	f023 437e 	bic.w	r3, r3, #4261412864	; 0xfe000000
20000578:	f023 031f 	bic.w	r3, r3, #31
2000057c:	4313      	orrs	r3, r2
2000057e:	78fa      	ldrb	r2, [r7, #3]
20000580:	0092      	lsls	r2, r2, #2
20000582:	4413      	add	r3, r2
20000584:	f103 7300 	add.w	r3, r3, #33554432	; 0x2000000
20000588:	461a      	mov	r2, r3
2000058a:	2300      	movs	r3, #0
2000058c:	6013      	str	r3, [r2, #0]
C:\Microchip\Libero_SoC_v2024.2\Designer\bin\projects\SMF2000-M3_ProjectRad\SC2021_Workspace_PRad\eNVM\Debug/../drivers/mss_uart/../../CMSIS/hw_reg_io.h:96
}
2000058e:	bf00      	nop
20000590:	370c      	adds	r7, #12
20000592:	46bd      	mov	sp, r7
20000594:	bc80      	pop	{r7}
20000596:	4770      	bx	lr

20000598 <read_bit_reg8>:
read_bit_reg8():
C:\Microchip\Libero_SoC_v2024.2\Designer\bin\projects\SMF2000-M3_ProjectRad\SC2021_Workspace_PRad\eNVM\Debug/../drivers/mss_uart/../../CMSIS/hw_reg_io.h:109
static __INLINE uint8_t read_bit_reg16(volatile uint16_t * reg, uint8_t bit)
{
    return (HW_REG_BIT(reg,bit));
}
static __INLINE uint8_t read_bit_reg8(volatile uint8_t * reg, uint8_t bit)
{
20000598:	b480      	push	{r7}
2000059a:	b083      	sub	sp, #12
2000059c:	af00      	add	r7, sp, #0
2000059e:	6078      	str	r0, [r7, #4]
200005a0:	460b      	mov	r3, r1
200005a2:	70fb      	strb	r3, [r7, #3]
C:\Microchip\Libero_SoC_v2024.2\Designer\bin\projects\SMF2000-M3_ProjectRad\SC2021_Workspace_PRad\eNVM\Debug/../drivers/mss_uart/../../CMSIS/hw_reg_io.h:110
    return (HW_REG_BIT(reg,bit));
200005a4:	687b      	ldr	r3, [r7, #4]
200005a6:	f003 4270 	and.w	r2, r3, #4026531840	; 0xf0000000
200005aa:	687b      	ldr	r3, [r7, #4]
200005ac:	015b      	lsls	r3, r3, #5
200005ae:	f023 437e 	bic.w	r3, r3, #4261412864	; 0xfe000000
200005b2:	f023 031f 	bic.w	r3, r3, #31
200005b6:	4313      	orrs	r3, r2
200005b8:	78fa      	ldrb	r2, [r7, #3]
200005ba:	0092      	lsls	r2, r2, #2
200005bc:	4413      	add	r3, r2
200005be:	f103 7300 	add.w	r3, r3, #33554432	; 0x2000000
200005c2:	681b      	ldr	r3, [r3, #0]
200005c4:	b2db      	uxtb	r3, r3
C:\Microchip\Libero_SoC_v2024.2\Designer\bin\projects\SMF2000-M3_ProjectRad\SC2021_Workspace_PRad\eNVM\Debug/../drivers/mss_uart/../../CMSIS/hw_reg_io.h:111
}
200005c6:	4618      	mov	r0, r3
200005c8:	370c      	adds	r7, #12
200005ca:	46bd      	mov	sp, r7
200005cc:	bc80      	pop	{r7}
200005ce:	4770      	bx	lr

200005d0 <MSS_UART_init>:
MSS_UART_init():
C:\Microchip\Libero_SoC_v2024.2\Designer\bin\projects\SMF2000-M3_ProjectRad\SC2021_Workspace_PRad\eNVM\Debug/../drivers/mss_uart/mss_uart.c:105
(
    mss_uart_instance_t* this_uart, 
    uint32_t baud_rate,
    uint8_t line_config
)
{
200005d0:	b580      	push	{r7, lr}
200005d2:	b084      	sub	sp, #16
200005d4:	af00      	add	r7, sp, #0
200005d6:	60f8      	str	r0, [r7, #12]
200005d8:	60b9      	str	r1, [r7, #8]
200005da:	4613      	mov	r3, r2
200005dc:	71fb      	strb	r3, [r7, #7]
C:\Microchip\Libero_SoC_v2024.2\Designer\bin\projects\SMF2000-M3_ProjectRad\SC2021_Workspace_PRad\eNVM\Debug/../drivers/mss_uart/mss_uart.c:108
    /* The driver expects g_mss_uart0 and g_mss_uart1 to be the only
     * mss_uart_instance_t instances used to identify UART0 and UART1. */
    ASSERT((this_uart == &g_mss_uart0) || (this_uart == &g_mss_uart1));
200005de:	68fb      	ldr	r3, [r7, #12]
200005e0:	4a14      	ldr	r2, [pc, #80]	; (20000634 <MSS_UART_init+0x64>)
200005e2:	4293      	cmp	r3, r2
200005e4:	d004      	beq.n	200005f0 <MSS_UART_init+0x20>
C:\Microchip\Libero_SoC_v2024.2\Designer\bin\projects\SMF2000-M3_ProjectRad\SC2021_Workspace_PRad\eNVM\Debug/../drivers/mss_uart/mss_uart.c:108 (discriminator 1)
200005e6:	68fb      	ldr	r3, [r7, #12]
200005e8:	4a13      	ldr	r2, [pc, #76]	; (20000638 <MSS_UART_init+0x68>)
200005ea:	4293      	cmp	r3, r2
200005ec:	d000      	beq.n	200005f0 <MSS_UART_init+0x20>
C:\Microchip\Libero_SoC_v2024.2\Designer\bin\projects\SMF2000-M3_ProjectRad\SC2021_Workspace_PRad\eNVM\Debug/../drivers/mss_uart/mss_uart.c:108 (discriminator 2)
200005ee:	be00      	bkpt	0x0000
C:\Microchip\Libero_SoC_v2024.2\Designer\bin\projects\SMF2000-M3_ProjectRad\SC2021_Workspace_PRad\eNVM\Debug/../drivers/mss_uart/mss_uart.c:111

    /* Perform generic initialization */
    global_init(this_uart, baud_rate, line_config);
200005f0:	79fb      	ldrb	r3, [r7, #7]
200005f2:	461a      	mov	r2, r3
200005f4:	68b9      	ldr	r1, [r7, #8]
200005f6:	68f8      	ldr	r0, [r7, #12]
200005f8:	f000 f9a4 	bl	20000944 <global_init>
C:\Microchip\Libero_SoC_v2024.2\Designer\bin\projects\SMF2000-M3_ProjectRad\SC2021_Workspace_PRad\eNVM\Debug/../drivers/mss_uart/mss_uart.c:114

    /* Disable LIN mode */
    clear_bit_reg8(&this_uart->hw_reg->MM0, ELIN);
200005fc:	68fb      	ldr	r3, [r7, #12]
200005fe:	681b      	ldr	r3, [r3, #0]
20000600:	3330      	adds	r3, #48	; 0x30
20000602:	2103      	movs	r1, #3
20000604:	4618      	mov	r0, r3
20000606:	f7ff ffaa 	bl	2000055e <clear_bit_reg8>
C:\Microchip\Libero_SoC_v2024.2\Designer\bin\projects\SMF2000-M3_ProjectRad\SC2021_Workspace_PRad\eNVM\Debug/../drivers/mss_uart/mss_uart.c:117

    /* Disable IrDA mode */
    clear_bit_reg8(&this_uart->hw_reg->MM1, EIRD);
2000060a:	68fb      	ldr	r3, [r7, #12]
2000060c:	681b      	ldr	r3, [r3, #0]
2000060e:	3334      	adds	r3, #52	; 0x34
20000610:	2102      	movs	r1, #2
20000612:	4618      	mov	r0, r3
20000614:	f7ff ffa3 	bl	2000055e <clear_bit_reg8>
C:\Microchip\Libero_SoC_v2024.2\Designer\bin\projects\SMF2000-M3_ProjectRad\SC2021_Workspace_PRad\eNVM\Debug/../drivers/mss_uart/mss_uart.c:120

    /* Disable SmartCard Mode */
    clear_bit_reg8(&this_uart->hw_reg->MM2, EERR);
20000618:	68fb      	ldr	r3, [r7, #12]
2000061a:	681b      	ldr	r3, [r3, #0]
2000061c:	3338      	adds	r3, #56	; 0x38
2000061e:	2100      	movs	r1, #0
20000620:	4618      	mov	r0, r3
20000622:	f7ff ff9c 	bl	2000055e <clear_bit_reg8>
C:\Microchip\Libero_SoC_v2024.2\Designer\bin\projects\SMF2000-M3_ProjectRad\SC2021_Workspace_PRad\eNVM\Debug/../drivers/mss_uart/mss_uart.c:123

    /* set default tx handler for automated TX using interrupt in USART mode */
    this_uart->tx_handler = default_tx_handler;
20000626:	68fb      	ldr	r3, [r7, #12]
20000628:	4a04      	ldr	r2, [pc, #16]	; (2000063c <MSS_UART_init+0x6c>)
2000062a:	625a      	str	r2, [r3, #36]	; 0x24
C:\Microchip\Libero_SoC_v2024.2\Designer\bin\projects\SMF2000-M3_ProjectRad\SC2021_Workspace_PRad\eNVM\Debug/../drivers/mss_uart/mss_uart.c:124
}
2000062c:	bf00      	nop
2000062e:	3710      	adds	r7, #16
20000630:	46bd      	mov	sp, r7
20000632:	bd80      	pop	{r7, pc}
20000634:	2000942c 	.word	0x2000942c
20000638:	200093ec 	.word	0x200093ec
2000063c:	20000d25 	.word	0x20000d25

20000640 <MSS_UART_polled_tx_string>:
MSS_UART_polled_tx_string():
C:\Microchip\Libero_SoC_v2024.2\Designer\bin\projects\SMF2000-M3_ProjectRad\SC2021_Workspace_PRad\eNVM\Debug/../drivers/mss_uart/mss_uart.c:290
MSS_UART_polled_tx_string
(
    mss_uart_instance_t * this_uart,
    const uint8_t * p_sz_string
)
{
20000640:	b480      	push	{r7}
20000642:	b087      	sub	sp, #28
20000644:	af00      	add	r7, sp, #0
20000646:	6078      	str	r0, [r7, #4]
20000648:	6039      	str	r1, [r7, #0]
C:\Microchip\Libero_SoC_v2024.2\Designer\bin\projects\SMF2000-M3_ProjectRad\SC2021_Workspace_PRad\eNVM\Debug/../drivers/mss_uart/mss_uart.c:291
    uint32_t char_idx = 0u;
2000064a:	2300      	movs	r3, #0
2000064c:	617b      	str	r3, [r7, #20]
C:\Microchip\Libero_SoC_v2024.2\Designer\bin\projects\SMF2000-M3_ProjectRad\SC2021_Workspace_PRad\eNVM\Debug/../drivers/mss_uart/mss_uart.c:296
    uint32_t fill_size;
    uint8_t data_byte;
    uint8_t status;

    ASSERT((this_uart == &g_mss_uart0) || (this_uart == &g_mss_uart1));
2000064e:	687b      	ldr	r3, [r7, #4]
20000650:	4a26      	ldr	r2, [pc, #152]	; (200006ec <MSS_UART_polled_tx_string+0xac>)
20000652:	4293      	cmp	r3, r2
20000654:	d004      	beq.n	20000660 <MSS_UART_polled_tx_string+0x20>
C:\Microchip\Libero_SoC_v2024.2\Designer\bin\projects\SMF2000-M3_ProjectRad\SC2021_Workspace_PRad\eNVM\Debug/../drivers/mss_uart/mss_uart.c:296 (discriminator 1)
20000656:	687b      	ldr	r3, [r7, #4]
20000658:	4a25      	ldr	r2, [pc, #148]	; (200006f0 <MSS_UART_polled_tx_string+0xb0>)
2000065a:	4293      	cmp	r3, r2
2000065c:	d000      	beq.n	20000660 <MSS_UART_polled_tx_string+0x20>
C:\Microchip\Libero_SoC_v2024.2\Designer\bin\projects\SMF2000-M3_ProjectRad\SC2021_Workspace_PRad\eNVM\Debug/../drivers/mss_uart/mss_uart.c:296 (discriminator 2)
2000065e:	be00      	bkpt	0x0000
C:\Microchip\Libero_SoC_v2024.2\Designer\bin\projects\SMF2000-M3_ProjectRad\SC2021_Workspace_PRad\eNVM\Debug/../drivers/mss_uart/mss_uart.c:297
    ASSERT(p_sz_string != ((uint8_t *)0));
20000660:	683b      	ldr	r3, [r7, #0]
20000662:	2b00      	cmp	r3, #0
20000664:	d100      	bne.n	20000668 <MSS_UART_polled_tx_string+0x28>
C:\Microchip\Libero_SoC_v2024.2\Designer\bin\projects\SMF2000-M3_ProjectRad\SC2021_Workspace_PRad\eNVM\Debug/../drivers/mss_uart/mss_uart.c:297 (discriminator 1)
20000666:	be00      	bkpt	0x0000
C:\Microchip\Libero_SoC_v2024.2\Designer\bin\projects\SMF2000-M3_ProjectRad\SC2021_Workspace_PRad\eNVM\Debug/../drivers/mss_uart/mss_uart.c:299

    if(((this_uart == &g_mss_uart0) || (this_uart == &g_mss_uart1)) &&
20000668:	687b      	ldr	r3, [r7, #4]
2000066a:	4a20      	ldr	r2, [pc, #128]	; (200006ec <MSS_UART_polled_tx_string+0xac>)
2000066c:	4293      	cmp	r3, r2
2000066e:	d003      	beq.n	20000678 <MSS_UART_polled_tx_string+0x38>
C:\Microchip\Libero_SoC_v2024.2\Designer\bin\projects\SMF2000-M3_ProjectRad\SC2021_Workspace_PRad\eNVM\Debug/../drivers/mss_uart/mss_uart.c:299 (discriminator 2)
20000670:	687b      	ldr	r3, [r7, #4]
20000672:	4a1f      	ldr	r2, [pc, #124]	; (200006f0 <MSS_UART_polled_tx_string+0xb0>)
20000674:	4293      	cmp	r3, r2
20000676:	d133      	bne.n	200006e0 <MSS_UART_polled_tx_string+0xa0>
C:\Microchip\Libero_SoC_v2024.2\Designer\bin\projects\SMF2000-M3_ProjectRad\SC2021_Workspace_PRad\eNVM\Debug/../drivers/mss_uart/mss_uart.c:299 (discriminator 3)
20000678:	683b      	ldr	r3, [r7, #0]
2000067a:	2b00      	cmp	r3, #0
2000067c:	d030      	beq.n	200006e0 <MSS_UART_polled_tx_string+0xa0>
C:\Microchip\Libero_SoC_v2024.2\Designer\bin\projects\SMF2000-M3_ProjectRad\SC2021_Workspace_PRad\eNVM\Debug/../drivers/mss_uart/mss_uart.c:303
       (p_sz_string != ((uint8_t *)0)))
    {
        /* Get the first data byte from the input buffer */
        data_byte = p_sz_string[char_idx];
2000067e:	683a      	ldr	r2, [r7, #0]
20000680:	697b      	ldr	r3, [r7, #20]
20000682:	4413      	add	r3, r2
20000684:	781b      	ldrb	r3, [r3, #0]
20000686:	73fb      	strb	r3, [r7, #15]
C:\Microchip\Libero_SoC_v2024.2\Designer\bin\projects\SMF2000-M3_ProjectRad\SC2021_Workspace_PRad\eNVM\Debug/../drivers/mss_uart/mss_uart.c:309

        /* First check for the NULL terminator byte.
         * Then remain in this loop until the entire string in the input buffer
         * has been transferred to the UART.
         */
        while(0u != data_byte)
20000688:	e027      	b.n	200006da <MSS_UART_polled_tx_string+0x9a>
C:\Microchip\Libero_SoC_v2024.2\Designer\bin\projects\SMF2000-M3_ProjectRad\SC2021_Workspace_PRad\eNVM\Debug/../drivers/mss_uart/mss_uart.c:313 (discriminator 1)
        {
            /* Wait until TX FIFO is empty. */
            do {
                status = this_uart->hw_reg->LSR;
2000068a:	687b      	ldr	r3, [r7, #4]
2000068c:	681b      	ldr	r3, [r3, #0]
2000068e:	7d1b      	ldrb	r3, [r3, #20]
20000690:	73bb      	strb	r3, [r7, #14]
C:\Microchip\Libero_SoC_v2024.2\Designer\bin\projects\SMF2000-M3_ProjectRad\SC2021_Workspace_PRad\eNVM\Debug/../drivers/mss_uart/mss_uart.c:314 (discriminator 1)
                this_uart->status |= status;
20000692:	687b      	ldr	r3, [r7, #4]
20000694:	7b5a      	ldrb	r2, [r3, #13]
20000696:	7bbb      	ldrb	r3, [r7, #14]
20000698:	4313      	orrs	r3, r2
2000069a:	b2da      	uxtb	r2, r3
2000069c:	687b      	ldr	r3, [r7, #4]
2000069e:	735a      	strb	r2, [r3, #13]
C:\Microchip\Libero_SoC_v2024.2\Designer\bin\projects\SMF2000-M3_ProjectRad\SC2021_Workspace_PRad\eNVM\Debug/../drivers/mss_uart/mss_uart.c:315 (discriminator 1)
            } while (0u == (status & MSS_UART_THRE));
200006a0:	7bbb      	ldrb	r3, [r7, #14]
200006a2:	f003 0320 	and.w	r3, r3, #32
200006a6:	2b00      	cmp	r3, #0
200006a8:	d0ef      	beq.n	2000068a <MSS_UART_polled_tx_string+0x4a>
C:\Microchip\Libero_SoC_v2024.2\Designer\bin\projects\SMF2000-M3_ProjectRad\SC2021_Workspace_PRad\eNVM\Debug/../drivers/mss_uart/mss_uart.c:320

            /* Send bytes from the input buffer until the TX FIFO is full
             * or we reach the NULL terminator byte.
             */
            fill_size = 0u;
200006aa:	2300      	movs	r3, #0
200006ac:	613b      	str	r3, [r7, #16]
C:\Microchip\Libero_SoC_v2024.2\Designer\bin\projects\SMF2000-M3_ProjectRad\SC2021_Workspace_PRad\eNVM\Debug/../drivers/mss_uart/mss_uart.c:321
            while((0u != data_byte) && (fill_size < TX_FIFO_SIZE))
200006ae:	e00e      	b.n	200006ce <MSS_UART_polled_tx_string+0x8e>
C:\Microchip\Libero_SoC_v2024.2\Designer\bin\projects\SMF2000-M3_ProjectRad\SC2021_Workspace_PRad\eNVM\Debug/../drivers/mss_uart/mss_uart.c:324
            {
                /* Send the data byte */
                this_uart->hw_reg->THR = data_byte;
200006b0:	687b      	ldr	r3, [r7, #4]
200006b2:	681b      	ldr	r3, [r3, #0]
200006b4:	7bfa      	ldrb	r2, [r7, #15]
200006b6:	701a      	strb	r2, [r3, #0]
C:\Microchip\Libero_SoC_v2024.2\Designer\bin\projects\SMF2000-M3_ProjectRad\SC2021_Workspace_PRad\eNVM\Debug/../drivers/mss_uart/mss_uart.c:325
                ++fill_size;
200006b8:	693b      	ldr	r3, [r7, #16]
200006ba:	3301      	adds	r3, #1
200006bc:	613b      	str	r3, [r7, #16]
C:\Microchip\Libero_SoC_v2024.2\Designer\bin\projects\SMF2000-M3_ProjectRad\SC2021_Workspace_PRad\eNVM\Debug/../drivers/mss_uart/mss_uart.c:326
                char_idx++;
200006be:	697b      	ldr	r3, [r7, #20]
200006c0:	3301      	adds	r3, #1
200006c2:	617b      	str	r3, [r7, #20]
C:\Microchip\Libero_SoC_v2024.2\Designer\bin\projects\SMF2000-M3_ProjectRad\SC2021_Workspace_PRad\eNVM\Debug/../drivers/mss_uart/mss_uart.c:328
                /* Get the next data byte from the input buffer */
                data_byte = p_sz_string[char_idx];
200006c4:	683a      	ldr	r2, [r7, #0]
200006c6:	697b      	ldr	r3, [r7, #20]
200006c8:	4413      	add	r3, r2
200006ca:	781b      	ldrb	r3, [r3, #0]
200006cc:	73fb      	strb	r3, [r7, #15]
C:\Microchip\Libero_SoC_v2024.2\Designer\bin\projects\SMF2000-M3_ProjectRad\SC2021_Workspace_PRad\eNVM\Debug/../drivers/mss_uart/mss_uart.c:321
            while((0u != data_byte) && (fill_size < TX_FIFO_SIZE))
200006ce:	7bfb      	ldrb	r3, [r7, #15]
200006d0:	2b00      	cmp	r3, #0
200006d2:	d002      	beq.n	200006da <MSS_UART_polled_tx_string+0x9a>
C:\Microchip\Libero_SoC_v2024.2\Designer\bin\projects\SMF2000-M3_ProjectRad\SC2021_Workspace_PRad\eNVM\Debug/../drivers/mss_uart/mss_uart.c:321 (discriminator 1)
200006d4:	693b      	ldr	r3, [r7, #16]
200006d6:	2b0f      	cmp	r3, #15
200006d8:	d9ea      	bls.n	200006b0 <MSS_UART_polled_tx_string+0x70>
C:\Microchip\Libero_SoC_v2024.2\Designer\bin\projects\SMF2000-M3_ProjectRad\SC2021_Workspace_PRad\eNVM\Debug/../drivers/mss_uart/mss_uart.c:309
        while(0u != data_byte)
200006da:	7bfb      	ldrb	r3, [r7, #15]
200006dc:	2b00      	cmp	r3, #0
200006de:	d1d4      	bne.n	2000068a <MSS_UART_polled_tx_string+0x4a>
C:\Microchip\Libero_SoC_v2024.2\Designer\bin\projects\SMF2000-M3_ProjectRad\SC2021_Workspace_PRad\eNVM\Debug/../drivers/mss_uart/mss_uart.c:332
            }
        }
    }
}
200006e0:	bf00      	nop
200006e2:	371c      	adds	r7, #28
200006e4:	46bd      	mov	sp, r7
200006e6:	bc80      	pop	{r7}
200006e8:	4770      	bx	lr
200006ea:	bf00      	nop
200006ec:	2000942c 	.word	0x2000942c
200006f0:	200093ec 	.word	0x200093ec

200006f4 <MSS_UART_get_rx>:
MSS_UART_get_rx():
C:\Microchip\Libero_SoC_v2024.2\Designer\bin\projects\SMF2000-M3_ProjectRad\SC2021_Workspace_PRad\eNVM\Debug/../drivers/mss_uart/mss_uart.c:411
(
    mss_uart_instance_t * this_uart,
    uint8_t * rx_buff,
    size_t buff_size
)
{
200006f4:	b480      	push	{r7}
200006f6:	b087      	sub	sp, #28
200006f8:	af00      	add	r7, sp, #0
200006fa:	60f8      	str	r0, [r7, #12]
200006fc:	60b9      	str	r1, [r7, #8]
200006fe:	607a      	str	r2, [r7, #4]
C:\Microchip\Libero_SoC_v2024.2\Designer\bin\projects\SMF2000-M3_ProjectRad\SC2021_Workspace_PRad\eNVM\Debug/../drivers/mss_uart/mss_uart.c:412
    size_t rx_size = 0u;
20000700:	2300      	movs	r3, #0
20000702:	617b      	str	r3, [r7, #20]
C:\Microchip\Libero_SoC_v2024.2\Designer\bin\projects\SMF2000-M3_ProjectRad\SC2021_Workspace_PRad\eNVM\Debug/../drivers/mss_uart/mss_uart.c:413
    uint8_t status = 0u;
20000704:	2300      	movs	r3, #0
20000706:	74fb      	strb	r3, [r7, #19]
C:\Microchip\Libero_SoC_v2024.2\Designer\bin\projects\SMF2000-M3_ProjectRad\SC2021_Workspace_PRad\eNVM\Debug/../drivers/mss_uart/mss_uart.c:415

    ASSERT((this_uart == &g_mss_uart0) || (this_uart == &g_mss_uart1));
20000708:	68fb      	ldr	r3, [r7, #12]
2000070a:	4a27      	ldr	r2, [pc, #156]	; (200007a8 <MSS_UART_get_rx+0xb4>)
2000070c:	4293      	cmp	r3, r2
2000070e:	d004      	beq.n	2000071a <MSS_UART_get_rx+0x26>
C:\Microchip\Libero_SoC_v2024.2\Designer\bin\projects\SMF2000-M3_ProjectRad\SC2021_Workspace_PRad\eNVM\Debug/../drivers/mss_uart/mss_uart.c:415 (discriminator 1)
20000710:	68fb      	ldr	r3, [r7, #12]
20000712:	4a26      	ldr	r2, [pc, #152]	; (200007ac <MSS_UART_get_rx+0xb8>)
20000714:	4293      	cmp	r3, r2
20000716:	d000      	beq.n	2000071a <MSS_UART_get_rx+0x26>
C:\Microchip\Libero_SoC_v2024.2\Designer\bin\projects\SMF2000-M3_ProjectRad\SC2021_Workspace_PRad\eNVM\Debug/../drivers/mss_uart/mss_uart.c:415 (discriminator 2)
20000718:	be00      	bkpt	0x0000
C:\Microchip\Libero_SoC_v2024.2\Designer\bin\projects\SMF2000-M3_ProjectRad\SC2021_Workspace_PRad\eNVM\Debug/../drivers/mss_uart/mss_uart.c:416
    ASSERT(rx_buff != ((uint8_t *)0));
2000071a:	68bb      	ldr	r3, [r7, #8]
2000071c:	2b00      	cmp	r3, #0
2000071e:	d100      	bne.n	20000722 <MSS_UART_get_rx+0x2e>
C:\Microchip\Libero_SoC_v2024.2\Designer\bin\projects\SMF2000-M3_ProjectRad\SC2021_Workspace_PRad\eNVM\Debug/../drivers/mss_uart/mss_uart.c:416 (discriminator 1)
20000720:	be00      	bkpt	0x0000
C:\Microchip\Libero_SoC_v2024.2\Designer\bin\projects\SMF2000-M3_ProjectRad\SC2021_Workspace_PRad\eNVM\Debug/../drivers/mss_uart/mss_uart.c:417
    ASSERT(buff_size > 0u);
20000722:	687b      	ldr	r3, [r7, #4]
20000724:	2b00      	cmp	r3, #0
20000726:	d100      	bne.n	2000072a <MSS_UART_get_rx+0x36>
C:\Microchip\Libero_SoC_v2024.2\Designer\bin\projects\SMF2000-M3_ProjectRad\SC2021_Workspace_PRad\eNVM\Debug/../drivers/mss_uart/mss_uart.c:417 (discriminator 1)
20000728:	be00      	bkpt	0x0000
C:\Microchip\Libero_SoC_v2024.2\Designer\bin\projects\SMF2000-M3_ProjectRad\SC2021_Workspace_PRad\eNVM\Debug/../drivers/mss_uart/mss_uart.c:419

    if(((this_uart == &g_mss_uart0) || (this_uart == &g_mss_uart1)) &&
2000072a:	68fb      	ldr	r3, [r7, #12]
2000072c:	4a1e      	ldr	r2, [pc, #120]	; (200007a8 <MSS_UART_get_rx+0xb4>)
2000072e:	4293      	cmp	r3, r2
20000730:	d003      	beq.n	2000073a <MSS_UART_get_rx+0x46>
C:\Microchip\Libero_SoC_v2024.2\Designer\bin\projects\SMF2000-M3_ProjectRad\SC2021_Workspace_PRad\eNVM\Debug/../drivers/mss_uart/mss_uart.c:419 (discriminator 2)
20000732:	68fb      	ldr	r3, [r7, #12]
20000734:	4a1d      	ldr	r2, [pc, #116]	; (200007ac <MSS_UART_get_rx+0xb8>)
20000736:	4293      	cmp	r3, r2
20000738:	d130      	bne.n	2000079c <MSS_UART_get_rx+0xa8>
C:\Microchip\Libero_SoC_v2024.2\Designer\bin\projects\SMF2000-M3_ProjectRad\SC2021_Workspace_PRad\eNVM\Debug/../drivers/mss_uart/mss_uart.c:419 (discriminator 3)
2000073a:	68bb      	ldr	r3, [r7, #8]
2000073c:	2b00      	cmp	r3, #0
2000073e:	d02d      	beq.n	2000079c <MSS_UART_get_rx+0xa8>
C:\Microchip\Libero_SoC_v2024.2\Designer\bin\projects\SMF2000-M3_ProjectRad\SC2021_Workspace_PRad\eNVM\Debug/../drivers/mss_uart/mss_uart.c:420
       (rx_buff != ((uint8_t *)0)) && (buff_size > 0u))
20000740:	687b      	ldr	r3, [r7, #4]
20000742:	2b00      	cmp	r3, #0
20000744:	d02a      	beq.n	2000079c <MSS_UART_get_rx+0xa8>
C:\Microchip\Libero_SoC_v2024.2\Designer\bin\projects\SMF2000-M3_ProjectRad\SC2021_Workspace_PRad\eNVM\Debug/../drivers/mss_uart/mss_uart.c:422
    {
        status = this_uart->hw_reg->LSR;
20000746:	68fb      	ldr	r3, [r7, #12]
20000748:	681b      	ldr	r3, [r3, #0]
2000074a:	7d1b      	ldrb	r3, [r3, #20]
2000074c:	74fb      	strb	r3, [r7, #19]
C:\Microchip\Libero_SoC_v2024.2\Designer\bin\projects\SMF2000-M3_ProjectRad\SC2021_Workspace_PRad\eNVM\Debug/../drivers/mss_uart/mss_uart.c:423
        this_uart->status |= status;
2000074e:	68fb      	ldr	r3, [r7, #12]
20000750:	7b5a      	ldrb	r2, [r3, #13]
20000752:	7cfb      	ldrb	r3, [r7, #19]
20000754:	4313      	orrs	r3, r2
20000756:	b2da      	uxtb	r2, r3
20000758:	68fb      	ldr	r3, [r7, #12]
2000075a:	735a      	strb	r2, [r3, #13]
C:\Microchip\Libero_SoC_v2024.2\Designer\bin\projects\SMF2000-M3_ProjectRad\SC2021_Workspace_PRad\eNVM\Debug/../drivers/mss_uart/mss_uart.c:425

        while(((status & MSS_UART_DATA_READY) != 0u) &&
2000075c:	e015      	b.n	2000078a <MSS_UART_get_rx+0x96>
C:\Microchip\Libero_SoC_v2024.2\Designer\bin\projects\SMF2000-M3_ProjectRad\SC2021_Workspace_PRad\eNVM\Debug/../drivers/mss_uart/mss_uart.c:428
              (rx_size < buff_size))
        {
            rx_buff[rx_size] = this_uart->hw_reg->RBR;
2000075e:	68fb      	ldr	r3, [r7, #12]
20000760:	681a      	ldr	r2, [r3, #0]
20000762:	68b9      	ldr	r1, [r7, #8]
20000764:	697b      	ldr	r3, [r7, #20]
20000766:	440b      	add	r3, r1
20000768:	7812      	ldrb	r2, [r2, #0]
2000076a:	b2d2      	uxtb	r2, r2
2000076c:	701a      	strb	r2, [r3, #0]
C:\Microchip\Libero_SoC_v2024.2\Designer\bin\projects\SMF2000-M3_ProjectRad\SC2021_Workspace_PRad\eNVM\Debug/../drivers/mss_uart/mss_uart.c:429
            ++rx_size;
2000076e:	697b      	ldr	r3, [r7, #20]
20000770:	3301      	adds	r3, #1
20000772:	617b      	str	r3, [r7, #20]
C:\Microchip\Libero_SoC_v2024.2\Designer\bin\projects\SMF2000-M3_ProjectRad\SC2021_Workspace_PRad\eNVM\Debug/../drivers/mss_uart/mss_uart.c:430
            status = this_uart->hw_reg->LSR;
20000774:	68fb      	ldr	r3, [r7, #12]
20000776:	681b      	ldr	r3, [r3, #0]
20000778:	7d1b      	ldrb	r3, [r3, #20]
2000077a:	74fb      	strb	r3, [r7, #19]
C:\Microchip\Libero_SoC_v2024.2\Designer\bin\projects\SMF2000-M3_ProjectRad\SC2021_Workspace_PRad\eNVM\Debug/../drivers/mss_uart/mss_uart.c:431
            this_uart->status |= status;
2000077c:	68fb      	ldr	r3, [r7, #12]
2000077e:	7b5a      	ldrb	r2, [r3, #13]
20000780:	7cfb      	ldrb	r3, [r7, #19]
20000782:	4313      	orrs	r3, r2
20000784:	b2da      	uxtb	r2, r3
20000786:	68fb      	ldr	r3, [r7, #12]
20000788:	735a      	strb	r2, [r3, #13]
C:\Microchip\Libero_SoC_v2024.2\Designer\bin\projects\SMF2000-M3_ProjectRad\SC2021_Workspace_PRad\eNVM\Debug/../drivers/mss_uart/mss_uart.c:425
        while(((status & MSS_UART_DATA_READY) != 0u) &&
2000078a:	7cfb      	ldrb	r3, [r7, #19]
2000078c:	f003 0301 	and.w	r3, r3, #1
20000790:	2b00      	cmp	r3, #0
20000792:	d003      	beq.n	2000079c <MSS_UART_get_rx+0xa8>
C:\Microchip\Libero_SoC_v2024.2\Designer\bin\projects\SMF2000-M3_ProjectRad\SC2021_Workspace_PRad\eNVM\Debug/../drivers/mss_uart/mss_uart.c:425 (discriminator 1)
20000794:	697a      	ldr	r2, [r7, #20]
20000796:	687b      	ldr	r3, [r7, #4]
20000798:	429a      	cmp	r2, r3
2000079a:	d3e0      	bcc.n	2000075e <MSS_UART_get_rx+0x6a>
C:\Microchip\Libero_SoC_v2024.2\Designer\bin\projects\SMF2000-M3_ProjectRad\SC2021_Workspace_PRad\eNVM\Debug/../drivers/mss_uart/mss_uart.c:434
        }
    }
    return rx_size;
2000079c:	697b      	ldr	r3, [r7, #20]
C:\Microchip\Libero_SoC_v2024.2\Designer\bin\projects\SMF2000-M3_ProjectRad\SC2021_Workspace_PRad\eNVM\Debug/../drivers/mss_uart/mss_uart.c:435
}
2000079e:	4618      	mov	r0, r3
200007a0:	371c      	adds	r7, #28
200007a2:	46bd      	mov	sp, r7
200007a4:	bc80      	pop	{r7}
200007a6:	4770      	bx	lr
200007a8:	2000942c 	.word	0x2000942c
200007ac:	200093ec 	.word	0x200093ec

200007b0 <UART0_IRQHandler>:
UART0_IRQHandler():
C:\Microchip\Libero_SoC_v2024.2\Designer\bin\projects\SMF2000-M3_ProjectRad\SC2021_Workspace_PRad\eNVM\Debug/../drivers/mss_uart/mss_uart.c:619
#if defined(__GNUC__)
__attribute__((__interrupt__)) void UART0_IRQHandler(void)
#else
void UART0_IRQHandler(void)
#endif
{
200007b0:	4668      	mov	r0, sp
200007b2:	f020 0107 	bic.w	r1, r0, #7
200007b6:	468d      	mov	sp, r1
200007b8:	b589      	push	{r0, r3, r7, lr}
200007ba:	af00      	add	r7, sp, #0
C:\Microchip\Libero_SoC_v2024.2\Designer\bin\projects\SMF2000-M3_ProjectRad\SC2021_Workspace_PRad\eNVM\Debug/../drivers/mss_uart/mss_uart.c:620
    MSS_UART_isr(&g_mss_uart0);
200007bc:	4804      	ldr	r0, [pc, #16]	; (200007d0 <UART0_IRQHandler+0x20>)
200007be:	f000 f9ad 	bl	20000b1c <MSS_UART_isr>
C:\Microchip\Libero_SoC_v2024.2\Designer\bin\projects\SMF2000-M3_ProjectRad\SC2021_Workspace_PRad\eNVM\Debug/../drivers/mss_uart/mss_uart.c:621
}
200007c2:	bf00      	nop
200007c4:	46bd      	mov	sp, r7
200007c6:	e8bd 4089 	ldmia.w	sp!, {r0, r3, r7, lr}
200007ca:	4685      	mov	sp, r0
200007cc:	4770      	bx	lr
200007ce:	bf00      	nop
200007d0:	2000942c 	.word	0x2000942c

200007d4 <UART1_IRQHandler>:
UART1_IRQHandler():
C:\Microchip\Libero_SoC_v2024.2\Designer\bin\projects\SMF2000-M3_ProjectRad\SC2021_Workspace_PRad\eNVM\Debug/../drivers/mss_uart/mss_uart.c:633
#if defined(__GNUC__)
__attribute__((__interrupt__)) void UART1_IRQHandler(void)
#else
void UART1_IRQHandler(void)
#endif
{
200007d4:	4668      	mov	r0, sp
200007d6:	f020 0107 	bic.w	r1, r0, #7
200007da:	468d      	mov	sp, r1
200007dc:	b589      	push	{r0, r3, r7, lr}
200007de:	af00      	add	r7, sp, #0
C:\Microchip\Libero_SoC_v2024.2\Designer\bin\projects\SMF2000-M3_ProjectRad\SC2021_Workspace_PRad\eNVM\Debug/../drivers/mss_uart/mss_uart.c:634
    MSS_UART_isr(&g_mss_uart1);
200007e0:	4804      	ldr	r0, [pc, #16]	; (200007f4 <UART1_IRQHandler+0x20>)
200007e2:	f000 f99b 	bl	20000b1c <MSS_UART_isr>
C:\Microchip\Libero_SoC_v2024.2\Designer\bin\projects\SMF2000-M3_ProjectRad\SC2021_Workspace_PRad\eNVM\Debug/../drivers/mss_uart/mss_uart.c:635
}
200007e6:	bf00      	nop
200007e8:	46bd      	mov	sp, r7
200007ea:	e8bd 4089 	ldmia.w	sp!, {r0, r3, r7, lr}
200007ee:	4685      	mov	sp, r0
200007f0:	4770      	bx	lr
200007f2:	bf00      	nop
200007f4:	200093ec 	.word	0x200093ec

200007f8 <config_baud_divisors>:
config_baud_divisors():
C:\Microchip\Libero_SoC_v2024.2\Designer\bin\projects\SMF2000-M3_ProjectRad\SC2021_Workspace_PRad\eNVM\Debug/../drivers/mss_uart/mss_uart.c:1346
config_baud_divisors
(
    mss_uart_instance_t * this_uart,
    uint32_t baudrate    
)
{
200007f8:	b580      	push	{r7, lr}
200007fa:	b088      	sub	sp, #32
200007fc:	af00      	add	r7, sp, #0
200007fe:	6078      	str	r0, [r7, #4]
20000800:	6039      	str	r1, [r7, #0]
C:\Microchip\Libero_SoC_v2024.2\Designer\bin\projects\SMF2000-M3_ProjectRad\SC2021_Workspace_PRad\eNVM\Debug/../drivers/mss_uart/mss_uart.c:1347
    ASSERT((this_uart == &g_mss_uart0) || (this_uart == &g_mss_uart1));
20000802:	687b      	ldr	r3, [r7, #4]
20000804:	4a4b      	ldr	r2, [pc, #300]	; (20000934 <config_baud_divisors+0x13c>)
20000806:	4293      	cmp	r3, r2
20000808:	d004      	beq.n	20000814 <config_baud_divisors+0x1c>
C:\Microchip\Libero_SoC_v2024.2\Designer\bin\projects\SMF2000-M3_ProjectRad\SC2021_Workspace_PRad\eNVM\Debug/../drivers/mss_uart/mss_uart.c:1347 (discriminator 1)
2000080a:	687b      	ldr	r3, [r7, #4]
2000080c:	4a4a      	ldr	r2, [pc, #296]	; (20000938 <config_baud_divisors+0x140>)
2000080e:	4293      	cmp	r3, r2
20000810:	d000      	beq.n	20000814 <config_baud_divisors+0x1c>
C:\Microchip\Libero_SoC_v2024.2\Designer\bin\projects\SMF2000-M3_ProjectRad\SC2021_Workspace_PRad\eNVM\Debug/../drivers/mss_uart/mss_uart.c:1347 (discriminator 2)
20000812:	be00      	bkpt	0x0000
C:\Microchip\Libero_SoC_v2024.2\Designer\bin\projects\SMF2000-M3_ProjectRad\SC2021_Workspace_PRad\eNVM\Debug/../drivers/mss_uart/mss_uart.c:1349
    
    if((this_uart == &g_mss_uart0) || (this_uart == &g_mss_uart1))
20000814:	687b      	ldr	r3, [r7, #4]
20000816:	4a47      	ldr	r2, [pc, #284]	; (20000934 <config_baud_divisors+0x13c>)
20000818:	4293      	cmp	r3, r2
2000081a:	d004      	beq.n	20000826 <config_baud_divisors+0x2e>
C:\Microchip\Libero_SoC_v2024.2\Designer\bin\projects\SMF2000-M3_ProjectRad\SC2021_Workspace_PRad\eNVM\Debug/../drivers/mss_uart/mss_uart.c:1349 (discriminator 1)
2000081c:	687b      	ldr	r3, [r7, #4]
2000081e:	4a46      	ldr	r2, [pc, #280]	; (20000938 <config_baud_divisors+0x140>)
20000820:	4293      	cmp	r3, r2
20000822:	f040 8082 	bne.w	2000092a <config_baud_divisors+0x132>
C:\Microchip\Libero_SoC_v2024.2\Designer\bin\projects\SMF2000-M3_ProjectRad\SC2021_Workspace_PRad\eNVM\Debug/../drivers/mss_uart/mss_uart.c:1357
        uint32_t baud_value_by_64;
        uint32_t baud_value_by_128;
        uint32_t fractional_baud_value;
        uint32_t pclk_freq;

        this_uart->baudrate = baudrate;
20000826:	687b      	ldr	r3, [r7, #4]
20000828:	683a      	ldr	r2, [r7, #0]
2000082a:	609a      	str	r2, [r3, #8]
C:\Microchip\Libero_SoC_v2024.2\Designer\bin\projects\SMF2000-M3_ProjectRad\SC2021_Workspace_PRad\eNVM\Debug/../drivers/mss_uart/mss_uart.c:1361

        /* Force the value of the CMSIS global variables holding the various system
          * clock frequencies to be updated. */
        SystemCoreClockUpdate();
2000082c:	f001 ff66 	bl	200026fc <SystemCoreClockUpdate>
C:\Microchip\Libero_SoC_v2024.2\Designer\bin\projects\SMF2000-M3_ProjectRad\SC2021_Workspace_PRad\eNVM\Debug/../drivers/mss_uart/mss_uart.c:1362
        if(this_uart == &g_mss_uart0)
20000830:	687b      	ldr	r3, [r7, #4]
20000832:	4a40      	ldr	r2, [pc, #256]	; (20000934 <config_baud_divisors+0x13c>)
20000834:	4293      	cmp	r3, r2
20000836:	d103      	bne.n	20000840 <config_baud_divisors+0x48>
C:\Microchip\Libero_SoC_v2024.2\Designer\bin\projects\SMF2000-M3_ProjectRad\SC2021_Workspace_PRad\eNVM\Debug/../drivers/mss_uart/mss_uart.c:1364
        {
            pclk_freq = g_FrequencyPCLK0;
20000838:	4b40      	ldr	r3, [pc, #256]	; (2000093c <config_baud_divisors+0x144>)
2000083a:	681b      	ldr	r3, [r3, #0]
2000083c:	61fb      	str	r3, [r7, #28]
2000083e:	e002      	b.n	20000846 <config_baud_divisors+0x4e>
C:\Microchip\Libero_SoC_v2024.2\Designer\bin\projects\SMF2000-M3_ProjectRad\SC2021_Workspace_PRad\eNVM\Debug/../drivers/mss_uart/mss_uart.c:1368
        }
        else
        {
            pclk_freq = g_FrequencyPCLK1;
20000840:	4b3f      	ldr	r3, [pc, #252]	; (20000940 <config_baud_divisors+0x148>)
20000842:	681b      	ldr	r3, [r3, #0]
20000844:	61fb      	str	r3, [r7, #28]
C:\Microchip\Libero_SoC_v2024.2\Designer\bin\projects\SMF2000-M3_ProjectRad\SC2021_Workspace_PRad\eNVM\Debug/../drivers/mss_uart/mss_uart.c:1376
        /*
         * Compute baud value based on requested baud rate and PCLK frequency.
         * The baud value is computed using the following equation:
         *      baud_value = PCLK_Frequency / (baud_rate * 16)
         */
        baud_value_by_128 = (8u * pclk_freq) / baudrate;
20000846:	69fb      	ldr	r3, [r7, #28]
20000848:	00da      	lsls	r2, r3, #3
2000084a:	683b      	ldr	r3, [r7, #0]
2000084c:	fbb2 f3f3 	udiv	r3, r2, r3
20000850:	61bb      	str	r3, [r7, #24]
C:\Microchip\Libero_SoC_v2024.2\Designer\bin\projects\SMF2000-M3_ProjectRad\SC2021_Workspace_PRad\eNVM\Debug/../drivers/mss_uart/mss_uart.c:1377
        baud_value_by_64 = baud_value_by_128 / 2u;
20000852:	69bb      	ldr	r3, [r7, #24]
20000854:	085b      	lsrs	r3, r3, #1
20000856:	617b      	str	r3, [r7, #20]
C:\Microchip\Libero_SoC_v2024.2\Designer\bin\projects\SMF2000-M3_ProjectRad\SC2021_Workspace_PRad\eNVM\Debug/../drivers/mss_uart/mss_uart.c:1378
        baud_value = baud_value_by_64 / 64u;
20000858:	697b      	ldr	r3, [r7, #20]
2000085a:	099b      	lsrs	r3, r3, #6
2000085c:	613b      	str	r3, [r7, #16]
C:\Microchip\Libero_SoC_v2024.2\Designer\bin\projects\SMF2000-M3_ProjectRad\SC2021_Workspace_PRad\eNVM\Debug/../drivers/mss_uart/mss_uart.c:1379
        fractional_baud_value = baud_value_by_64 - (baud_value * 64u);
2000085e:	693b      	ldr	r3, [r7, #16]
20000860:	019b      	lsls	r3, r3, #6
20000862:	697a      	ldr	r2, [r7, #20]
20000864:	1ad3      	subs	r3, r2, r3
20000866:	60fb      	str	r3, [r7, #12]
C:\Microchip\Libero_SoC_v2024.2\Designer\bin\projects\SMF2000-M3_ProjectRad\SC2021_Workspace_PRad\eNVM\Debug/../drivers/mss_uart/mss_uart.c:1380
        fractional_baud_value += (baud_value_by_128 - (baud_value * 128u)) - (fractional_baud_value * 2u);
20000868:	693b      	ldr	r3, [r7, #16]
2000086a:	01db      	lsls	r3, r3, #7
2000086c:	69ba      	ldr	r2, [r7, #24]
2000086e:	1ad2      	subs	r2, r2, r3
20000870:	68fb      	ldr	r3, [r7, #12]
20000872:	005b      	lsls	r3, r3, #1
20000874:	1ad3      	subs	r3, r2, r3
20000876:	68fa      	ldr	r2, [r7, #12]
20000878:	4413      	add	r3, r2
2000087a:	60fb      	str	r3, [r7, #12]
C:\Microchip\Libero_SoC_v2024.2\Designer\bin\projects\SMF2000-M3_ProjectRad\SC2021_Workspace_PRad\eNVM\Debug/../drivers/mss_uart/mss_uart.c:1383
        
        /* Assert if integer baud value fits in 16-bit. */
        ASSERT(baud_value <= UINT16_MAX);
2000087c:	693b      	ldr	r3, [r7, #16]
2000087e:	f5b3 3f80 	cmp.w	r3, #65536	; 0x10000
20000882:	d300      	bcc.n	20000886 <config_baud_divisors+0x8e>
C:\Microchip\Libero_SoC_v2024.2\Designer\bin\projects\SMF2000-M3_ProjectRad\SC2021_Workspace_PRad\eNVM\Debug/../drivers/mss_uart/mss_uart.c:1383 (discriminator 1)
20000884:	be00      	bkpt	0x0000
C:\Microchip\Libero_SoC_v2024.2\Designer\bin\projects\SMF2000-M3_ProjectRad\SC2021_Workspace_PRad\eNVM\Debug/../drivers/mss_uart/mss_uart.c:1385
    
        if(baud_value <= (uint32_t)UINT16_MAX)
20000886:	693b      	ldr	r3, [r7, #16]
20000888:	f5b3 3f80 	cmp.w	r3, #65536	; 0x10000
2000088c:	d24d      	bcs.n	2000092a <config_baud_divisors+0x132>
C:\Microchip\Libero_SoC_v2024.2\Designer\bin\projects\SMF2000-M3_ProjectRad\SC2021_Workspace_PRad\eNVM\Debug/../drivers/mss_uart/mss_uart.c:1387
        {
            if(baud_value > 1u)
2000088e:	693b      	ldr	r3, [r7, #16]
20000890:	2b01      	cmp	r3, #1
20000892:	d92a      	bls.n	200008ea <config_baud_divisors+0xf2>
C:\Microchip\Libero_SoC_v2024.2\Designer\bin\projects\SMF2000-M3_ProjectRad\SC2021_Workspace_PRad\eNVM\Debug/../drivers/mss_uart/mss_uart.c:1393
            {
                /* 
                 * Use Frational baud rate divisors
                 */
                /* set divisor latch */
                set_bit_reg8(&this_uart->hw_reg->LCR,DLAB);
20000894:	687b      	ldr	r3, [r7, #4]
20000896:	681b      	ldr	r3, [r3, #0]
20000898:	330c      	adds	r3, #12
2000089a:	2107      	movs	r1, #7
2000089c:	4618      	mov	r0, r3
2000089e:	f7ff fe41 	bl	20000524 <set_bit_reg8>
C:\Microchip\Libero_SoC_v2024.2\Designer\bin\projects\SMF2000-M3_ProjectRad\SC2021_Workspace_PRad\eNVM\Debug/../drivers/mss_uart/mss_uart.c:1396
            
                /* msb of baud value */
                this_uart->hw_reg->DMR = (uint8_t)(baud_value >> 8);
200008a2:	693b      	ldr	r3, [r7, #16]
200008a4:	0a1a      	lsrs	r2, r3, #8
200008a6:	687b      	ldr	r3, [r7, #4]
200008a8:	681b      	ldr	r3, [r3, #0]
200008aa:	b2d2      	uxtb	r2, r2
200008ac:	711a      	strb	r2, [r3, #4]
C:\Microchip\Libero_SoC_v2024.2\Designer\bin\projects\SMF2000-M3_ProjectRad\SC2021_Workspace_PRad\eNVM\Debug/../drivers/mss_uart/mss_uart.c:1398
                /* lsb of baud value */
                this_uart->hw_reg->DLR = (uint8_t)baud_value;
200008ae:	687b      	ldr	r3, [r7, #4]
200008b0:	681b      	ldr	r3, [r3, #0]
200008b2:	693a      	ldr	r2, [r7, #16]
200008b4:	b2d2      	uxtb	r2, r2
200008b6:	701a      	strb	r2, [r3, #0]
C:\Microchip\Libero_SoC_v2024.2\Designer\bin\projects\SMF2000-M3_ProjectRad\SC2021_Workspace_PRad\eNVM\Debug/../drivers/mss_uart/mss_uart.c:1401
            
                /* reset divisor latch */
                clear_bit_reg8(&this_uart->hw_reg->LCR,DLAB);
200008b8:	687b      	ldr	r3, [r7, #4]
200008ba:	681b      	ldr	r3, [r3, #0]
200008bc:	330c      	adds	r3, #12
200008be:	2107      	movs	r1, #7
200008c0:	4618      	mov	r0, r3
200008c2:	f7ff fe4c 	bl	2000055e <clear_bit_reg8>
C:\Microchip\Libero_SoC_v2024.2\Designer\bin\projects\SMF2000-M3_ProjectRad\SC2021_Workspace_PRad\eNVM\Debug/../drivers/mss_uart/mss_uart.c:1404
        
                /* Enable Fractional baud rate */
                set_bit_reg8(&this_uart->hw_reg->MM0,EFBR);
200008c6:	687b      	ldr	r3, [r7, #4]
200008c8:	681b      	ldr	r3, [r3, #0]
200008ca:	3330      	adds	r3, #48	; 0x30
200008cc:	2107      	movs	r1, #7
200008ce:	4618      	mov	r0, r3
200008d0:	f7ff fe28 	bl	20000524 <set_bit_reg8>
C:\Microchip\Libero_SoC_v2024.2\Designer\bin\projects\SMF2000-M3_ProjectRad\SC2021_Workspace_PRad\eNVM\Debug/../drivers/mss_uart/mss_uart.c:1407
        
                /* Load the fractional baud rate register */
                ASSERT(fractional_baud_value <= (uint32_t)UINT8_MAX);
200008d4:	68fb      	ldr	r3, [r7, #12]
200008d6:	2bff      	cmp	r3, #255	; 0xff
200008d8:	d900      	bls.n	200008dc <config_baud_divisors+0xe4>
C:\Microchip\Libero_SoC_v2024.2\Designer\bin\projects\SMF2000-M3_ProjectRad\SC2021_Workspace_PRad\eNVM\Debug/../drivers/mss_uart/mss_uart.c:1407 (discriminator 1)
200008da:	be00      	bkpt	0x0000
C:\Microchip\Libero_SoC_v2024.2\Designer\bin\projects\SMF2000-M3_ProjectRad\SC2021_Workspace_PRad\eNVM\Debug/../drivers/mss_uart/mss_uart.c:1408
                this_uart->hw_reg->DFR = (uint8_t)fractional_baud_value;
200008dc:	687b      	ldr	r3, [r7, #4]
200008de:	681b      	ldr	r3, [r3, #0]
200008e0:	68fa      	ldr	r2, [r7, #12]
200008e2:	b2d2      	uxtb	r2, r2
200008e4:	f883 203c 	strb.w	r2, [r3, #60]	; 0x3c
C:\Microchip\Libero_SoC_v2024.2\Designer\bin\projects\SMF2000-M3_ProjectRad\SC2021_Workspace_PRad\eNVM\Debug/../drivers/mss_uart/mss_uart.c:1431
                /* Disable Fractional baud rate */
                clear_bit_reg8(&this_uart->hw_reg->MM0,EFBR);
            }
        }
    }
}
200008e8:	e01f      	b.n	2000092a <config_baud_divisors+0x132>
C:\Microchip\Libero_SoC_v2024.2\Designer\bin\projects\SMF2000-M3_ProjectRad\SC2021_Workspace_PRad\eNVM\Debug/../drivers/mss_uart/mss_uart.c:1416
                set_bit_reg8(&this_uart->hw_reg->LCR,DLAB);
200008ea:	687b      	ldr	r3, [r7, #4]
200008ec:	681b      	ldr	r3, [r3, #0]
200008ee:	330c      	adds	r3, #12
200008f0:	2107      	movs	r1, #7
200008f2:	4618      	mov	r0, r3
200008f4:	f7ff fe16 	bl	20000524 <set_bit_reg8>
C:\Microchip\Libero_SoC_v2024.2\Designer\bin\projects\SMF2000-M3_ProjectRad\SC2021_Workspace_PRad\eNVM\Debug/../drivers/mss_uart/mss_uart.c:1419
                this_uart->hw_reg->DMR = (uint8_t)(baud_value >> 8u);
200008f8:	693b      	ldr	r3, [r7, #16]
200008fa:	0a1a      	lsrs	r2, r3, #8
200008fc:	687b      	ldr	r3, [r7, #4]
200008fe:	681b      	ldr	r3, [r3, #0]
20000900:	b2d2      	uxtb	r2, r2
20000902:	711a      	strb	r2, [r3, #4]
C:\Microchip\Libero_SoC_v2024.2\Designer\bin\projects\SMF2000-M3_ProjectRad\SC2021_Workspace_PRad\eNVM\Debug/../drivers/mss_uart/mss_uart.c:1421
                this_uart->hw_reg->DLR = (uint8_t)baud_value;
20000904:	687b      	ldr	r3, [r7, #4]
20000906:	681b      	ldr	r3, [r3, #0]
20000908:	693a      	ldr	r2, [r7, #16]
2000090a:	b2d2      	uxtb	r2, r2
2000090c:	701a      	strb	r2, [r3, #0]
C:\Microchip\Libero_SoC_v2024.2\Designer\bin\projects\SMF2000-M3_ProjectRad\SC2021_Workspace_PRad\eNVM\Debug/../drivers/mss_uart/mss_uart.c:1424
                clear_bit_reg8(&this_uart->hw_reg->LCR,DLAB);
2000090e:	687b      	ldr	r3, [r7, #4]
20000910:	681b      	ldr	r3, [r3, #0]
20000912:	330c      	adds	r3, #12
20000914:	2107      	movs	r1, #7
20000916:	4618      	mov	r0, r3
20000918:	f7ff fe21 	bl	2000055e <clear_bit_reg8>
C:\Microchip\Libero_SoC_v2024.2\Designer\bin\projects\SMF2000-M3_ProjectRad\SC2021_Workspace_PRad\eNVM\Debug/../drivers/mss_uart/mss_uart.c:1427
                clear_bit_reg8(&this_uart->hw_reg->MM0,EFBR);
2000091c:	687b      	ldr	r3, [r7, #4]
2000091e:	681b      	ldr	r3, [r3, #0]
20000920:	3330      	adds	r3, #48	; 0x30
20000922:	2107      	movs	r1, #7
20000924:	4618      	mov	r0, r3
20000926:	f7ff fe1a 	bl	2000055e <clear_bit_reg8>
C:\Microchip\Libero_SoC_v2024.2\Designer\bin\projects\SMF2000-M3_ProjectRad\SC2021_Workspace_PRad\eNVM\Debug/../drivers/mss_uart/mss_uart.c:1431
}
2000092a:	bf00      	nop
2000092c:	3720      	adds	r7, #32
2000092e:	46bd      	mov	sp, r7
20000930:	bd80      	pop	{r7, pc}
20000932:	bf00      	nop
20000934:	2000942c 	.word	0x2000942c
20000938:	200093ec 	.word	0x200093ec
2000093c:	20008974 	.word	0x20008974
20000940:	20008978 	.word	0x20008978

20000944 <global_init>:
global_init():
C:\Microchip\Libero_SoC_v2024.2\Designer\bin\projects\SMF2000-M3_ProjectRad\SC2021_Workspace_PRad\eNVM\Debug/../drivers/mss_uart/mss_uart.c:1468
(
    mss_uart_instance_t * this_uart,
    uint32_t baud_rate,
    uint8_t line_config
)
{
20000944:	b580      	push	{r7, lr}
20000946:	b084      	sub	sp, #16
20000948:	af00      	add	r7, sp, #0
2000094a:	60f8      	str	r0, [r7, #12]
2000094c:	60b9      	str	r1, [r7, #8]
2000094e:	4613      	mov	r3, r2
20000950:	71fb      	strb	r3, [r7, #7]
C:\Microchip\Libero_SoC_v2024.2\Designer\bin\projects\SMF2000-M3_ProjectRad\SC2021_Workspace_PRad\eNVM\Debug/../drivers/mss_uart/mss_uart.c:1471
    /* The driver expects g_mss_uart0 and g_mss_uart1 to be the only
     * mss_uart_instance_t instances used to identify UART0 and UART1. */
    ASSERT((this_uart == &g_mss_uart0) || (this_uart == &g_mss_uart1));
20000952:	68fb      	ldr	r3, [r7, #12]
20000954:	4a6d      	ldr	r2, [pc, #436]	; (20000b0c <global_init+0x1c8>)
20000956:	4293      	cmp	r3, r2
20000958:	d004      	beq.n	20000964 <global_init+0x20>
C:\Microchip\Libero_SoC_v2024.2\Designer\bin\projects\SMF2000-M3_ProjectRad\SC2021_Workspace_PRad\eNVM\Debug/../drivers/mss_uart/mss_uart.c:1471 (discriminator 1)
2000095a:	68fb      	ldr	r3, [r7, #12]
2000095c:	4a6c      	ldr	r2, [pc, #432]	; (20000b10 <global_init+0x1cc>)
2000095e:	4293      	cmp	r3, r2
20000960:	d000      	beq.n	20000964 <global_init+0x20>
C:\Microchip\Libero_SoC_v2024.2\Designer\bin\projects\SMF2000-M3_ProjectRad\SC2021_Workspace_PRad\eNVM\Debug/../drivers/mss_uart/mss_uart.c:1471 (discriminator 2)
20000962:	be00      	bkpt	0x0000
C:\Microchip\Libero_SoC_v2024.2\Designer\bin\projects\SMF2000-M3_ProjectRad\SC2021_Workspace_PRad\eNVM\Debug/../drivers/mss_uart/mss_uart.c:1473

    if(this_uart == &g_mss_uart0)
20000964:	68fb      	ldr	r3, [r7, #12]
20000966:	4a69      	ldr	r2, [pc, #420]	; (20000b0c <global_init+0x1c8>)
20000968:	4293      	cmp	r3, r2
2000096a:	d116      	bne.n	2000099a <global_init+0x56>
C:\Microchip\Libero_SoC_v2024.2\Designer\bin\projects\SMF2000-M3_ProjectRad\SC2021_Workspace_PRad\eNVM\Debug/../drivers/mss_uart/mss_uart.c:1475
    {
        this_uart->hw_reg = UART0;
2000096c:	68fb      	ldr	r3, [r7, #12]
2000096e:	f04f 4280 	mov.w	r2, #1073741824	; 0x40000000
20000972:	601a      	str	r2, [r3, #0]
C:\Microchip\Libero_SoC_v2024.2\Designer\bin\projects\SMF2000-M3_ProjectRad\SC2021_Workspace_PRad\eNVM\Debug/../drivers/mss_uart/mss_uart.c:1476
        this_uart->irqn = UART0_IRQn;
20000974:	68fb      	ldr	r3, [r7, #12]
20000976:	220a      	movs	r2, #10
20000978:	711a      	strb	r2, [r3, #4]
C:\Microchip\Libero_SoC_v2024.2\Designer\bin\projects\SMF2000-M3_ProjectRad\SC2021_Workspace_PRad\eNVM\Debug/../drivers/mss_uart/mss_uart.c:1478
        /* reset UART0 */
        SYSREG->SOFT_RST_CR |= SYSREG_MMUART0_SOFTRESET_MASK;
2000097a:	4b66      	ldr	r3, [pc, #408]	; (20000b14 <global_init+0x1d0>)
2000097c:	6c9b      	ldr	r3, [r3, #72]	; 0x48
2000097e:	4a65      	ldr	r2, [pc, #404]	; (20000b14 <global_init+0x1d0>)
20000980:	f043 0380 	orr.w	r3, r3, #128	; 0x80
20000984:	6493      	str	r3, [r2, #72]	; 0x48
C:\Microchip\Libero_SoC_v2024.2\Designer\bin\projects\SMF2000-M3_ProjectRad\SC2021_Workspace_PRad\eNVM\Debug/../drivers/mss_uart/mss_uart.c:1480
        /* Clear any previously pended UART0 interrupt */
        NVIC_ClearPendingIRQ(UART0_IRQn);
20000986:	200a      	movs	r0, #10
20000988:	f7ff fdb2 	bl	200004f0 <NVIC_ClearPendingIRQ>
C:\Microchip\Libero_SoC_v2024.2\Designer\bin\projects\SMF2000-M3_ProjectRad\SC2021_Workspace_PRad\eNVM\Debug/../drivers/mss_uart/mss_uart.c:1482
        /* Take UART0 out of reset. */
        SYSREG->SOFT_RST_CR &= ~SYSREG_MMUART0_SOFTRESET_MASK;
2000098c:	4b61      	ldr	r3, [pc, #388]	; (20000b14 <global_init+0x1d0>)
2000098e:	6c9b      	ldr	r3, [r3, #72]	; 0x48
20000990:	4a60      	ldr	r2, [pc, #384]	; (20000b14 <global_init+0x1d0>)
20000992:	f023 0380 	bic.w	r3, r3, #128	; 0x80
20000996:	6493      	str	r3, [r2, #72]	; 0x48
20000998:	e014      	b.n	200009c4 <global_init+0x80>
C:\Microchip\Libero_SoC_v2024.2\Designer\bin\projects\SMF2000-M3_ProjectRad\SC2021_Workspace_PRad\eNVM\Debug/../drivers/mss_uart/mss_uart.c:1486
    }
    else
    {
        this_uart->hw_reg = UART1;
2000099a:	68fb      	ldr	r3, [r7, #12]
2000099c:	4a5e      	ldr	r2, [pc, #376]	; (20000b18 <global_init+0x1d4>)
2000099e:	601a      	str	r2, [r3, #0]
C:\Microchip\Libero_SoC_v2024.2\Designer\bin\projects\SMF2000-M3_ProjectRad\SC2021_Workspace_PRad\eNVM\Debug/../drivers/mss_uart/mss_uart.c:1487
        this_uart->irqn = UART1_IRQn;
200009a0:	68fb      	ldr	r3, [r7, #12]
200009a2:	220b      	movs	r2, #11
200009a4:	711a      	strb	r2, [r3, #4]
C:\Microchip\Libero_SoC_v2024.2\Designer\bin\projects\SMF2000-M3_ProjectRad\SC2021_Workspace_PRad\eNVM\Debug/../drivers/mss_uart/mss_uart.c:1489
        /* Reset UART1 */
        SYSREG->SOFT_RST_CR |= SYSREG_MMUART1_SOFTRESET_MASK;
200009a6:	4b5b      	ldr	r3, [pc, #364]	; (20000b14 <global_init+0x1d0>)
200009a8:	6c9b      	ldr	r3, [r3, #72]	; 0x48
200009aa:	4a5a      	ldr	r2, [pc, #360]	; (20000b14 <global_init+0x1d0>)
200009ac:	f443 7380 	orr.w	r3, r3, #256	; 0x100
200009b0:	6493      	str	r3, [r2, #72]	; 0x48
C:\Microchip\Libero_SoC_v2024.2\Designer\bin\projects\SMF2000-M3_ProjectRad\SC2021_Workspace_PRad\eNVM\Debug/../drivers/mss_uart/mss_uart.c:1491
        /* Clear any previously pended UART1 interrupt */
        NVIC_ClearPendingIRQ(UART1_IRQn);
200009b2:	200b      	movs	r0, #11
200009b4:	f7ff fd9c 	bl	200004f0 <NVIC_ClearPendingIRQ>
C:\Microchip\Libero_SoC_v2024.2\Designer\bin\projects\SMF2000-M3_ProjectRad\SC2021_Workspace_PRad\eNVM\Debug/../drivers/mss_uart/mss_uart.c:1493
        /* Take UART1 out of reset. */
        SYSREG->SOFT_RST_CR &= ~SYSREG_MMUART1_SOFTRESET_MASK;
200009b8:	4b56      	ldr	r3, [pc, #344]	; (20000b14 <global_init+0x1d0>)
200009ba:	6c9b      	ldr	r3, [r3, #72]	; 0x48
200009bc:	4a55      	ldr	r2, [pc, #340]	; (20000b14 <global_init+0x1d0>)
200009be:	f423 7380 	bic.w	r3, r3, #256	; 0x100
200009c2:	6493      	str	r3, [r2, #72]	; 0x48
C:\Microchip\Libero_SoC_v2024.2\Designer\bin\projects\SMF2000-M3_ProjectRad\SC2021_Workspace_PRad\eNVM\Debug/../drivers/mss_uart/mss_uart.c:1497
    }

    /* disable interrupts */
    this_uart->hw_reg->IER = 0u;
200009c4:	68fb      	ldr	r3, [r7, #12]
200009c6:	681b      	ldr	r3, [r3, #0]
200009c8:	2200      	movs	r2, #0
200009ca:	711a      	strb	r2, [r3, #4]
C:\Microchip\Libero_SoC_v2024.2\Designer\bin\projects\SMF2000-M3_ProjectRad\SC2021_Workspace_PRad\eNVM\Debug/../drivers/mss_uart/mss_uart.c:1500

    /* FIFO configuration */
    this_uart->hw_reg->FCR = (uint8_t)MSS_UART_FIFO_SINGLE_BYTE;
200009cc:	68fb      	ldr	r3, [r7, #12]
200009ce:	681b      	ldr	r3, [r3, #0]
200009d0:	2200      	movs	r2, #0
200009d2:	721a      	strb	r2, [r3, #8]
C:\Microchip\Libero_SoC_v2024.2\Designer\bin\projects\SMF2000-M3_ProjectRad\SC2021_Workspace_PRad\eNVM\Debug/../drivers/mss_uart/mss_uart.c:1502
    /* clear receiver FIFO */
    set_bit_reg8(&this_uart->hw_reg->FCR,CLEAR_RX_FIFO);
200009d4:	68fb      	ldr	r3, [r7, #12]
200009d6:	681b      	ldr	r3, [r3, #0]
200009d8:	3308      	adds	r3, #8
200009da:	2101      	movs	r1, #1
200009dc:	4618      	mov	r0, r3
200009de:	f7ff fda1 	bl	20000524 <set_bit_reg8>
C:\Microchip\Libero_SoC_v2024.2\Designer\bin\projects\SMF2000-M3_ProjectRad\SC2021_Workspace_PRad\eNVM\Debug/../drivers/mss_uart/mss_uart.c:1504
    /* clear transmitter FIFO */
    set_bit_reg8(&this_uart->hw_reg->FCR,CLEAR_TX_FIFO);
200009e2:	68fb      	ldr	r3, [r7, #12]
200009e4:	681b      	ldr	r3, [r3, #0]
200009e6:	3308      	adds	r3, #8
200009e8:	2102      	movs	r1, #2
200009ea:	4618      	mov	r0, r3
200009ec:	f7ff fd9a 	bl	20000524 <set_bit_reg8>
C:\Microchip\Libero_SoC_v2024.2\Designer\bin\projects\SMF2000-M3_ProjectRad\SC2021_Workspace_PRad\eNVM\Debug/../drivers/mss_uart/mss_uart.c:1509

    /* set default READY mode : Mode 0*/
    /* enable RXRDYN and TXRDYN pins. The earlier FCR write to set the TX FIFO
     * trigger level inadvertently disabled the FCR_RXRDY_TXRDYN_EN bit. */
    set_bit_reg8(&this_uart->hw_reg->FCR,RXRDY_TXRDYN_EN);
200009f0:	68fb      	ldr	r3, [r7, #12]
200009f2:	681b      	ldr	r3, [r3, #0]
200009f4:	3308      	adds	r3, #8
200009f6:	2100      	movs	r1, #0
200009f8:	4618      	mov	r0, r3
200009fa:	f7ff fd93 	bl	20000524 <set_bit_reg8>
C:\Microchip\Libero_SoC_v2024.2\Designer\bin\projects\SMF2000-M3_ProjectRad\SC2021_Workspace_PRad\eNVM\Debug/../drivers/mss_uart/mss_uart.c:1512

    /* disable loopback : local * remote */
    clear_bit_reg8(&this_uart->hw_reg->MCR,LOOP);
200009fe:	68fb      	ldr	r3, [r7, #12]
20000a00:	681b      	ldr	r3, [r3, #0]
20000a02:	3310      	adds	r3, #16
20000a04:	2104      	movs	r1, #4
20000a06:	4618      	mov	r0, r3
20000a08:	f7ff fda9 	bl	2000055e <clear_bit_reg8>
C:\Microchip\Libero_SoC_v2024.2\Designer\bin\projects\SMF2000-M3_ProjectRad\SC2021_Workspace_PRad\eNVM\Debug/../drivers/mss_uart/mss_uart.c:1513
    clear_bit_reg8(&this_uart->hw_reg->MCR,RLOOP);
20000a0c:	68fb      	ldr	r3, [r7, #12]
20000a0e:	681b      	ldr	r3, [r3, #0]
20000a10:	3310      	adds	r3, #16
20000a12:	2105      	movs	r1, #5
20000a14:	4618      	mov	r0, r3
20000a16:	f7ff fda2 	bl	2000055e <clear_bit_reg8>
C:\Microchip\Libero_SoC_v2024.2\Designer\bin\projects\SMF2000-M3_ProjectRad\SC2021_Workspace_PRad\eNVM\Debug/../drivers/mss_uart/mss_uart.c:1516

    /* set default TX endian */
    clear_bit_reg8(&this_uart->hw_reg->MM1,E_MSB_TX);
20000a1a:	68fb      	ldr	r3, [r7, #12]
20000a1c:	681b      	ldr	r3, [r3, #0]
20000a1e:	3334      	adds	r3, #52	; 0x34
20000a20:	2101      	movs	r1, #1
20000a22:	4618      	mov	r0, r3
20000a24:	f7ff fd9b 	bl	2000055e <clear_bit_reg8>
C:\Microchip\Libero_SoC_v2024.2\Designer\bin\projects\SMF2000-M3_ProjectRad\SC2021_Workspace_PRad\eNVM\Debug/../drivers/mss_uart/mss_uart.c:1518
    /* set default RX endian */
    clear_bit_reg8(&this_uart->hw_reg->MM1,E_MSB_RX);
20000a28:	68fb      	ldr	r3, [r7, #12]
20000a2a:	681b      	ldr	r3, [r3, #0]
20000a2c:	3334      	adds	r3, #52	; 0x34
20000a2e:	2100      	movs	r1, #0
20000a30:	4618      	mov	r0, r3
20000a32:	f7ff fd94 	bl	2000055e <clear_bit_reg8>
C:\Microchip\Libero_SoC_v2024.2\Designer\bin\projects\SMF2000-M3_ProjectRad\SC2021_Workspace_PRad\eNVM\Debug/../drivers/mss_uart/mss_uart.c:1521

    /* default AFM : disabled */
    clear_bit_reg8(&this_uart->hw_reg->MM2,EAFM);
20000a36:	68fb      	ldr	r3, [r7, #12]
20000a38:	681b      	ldr	r3, [r3, #0]
20000a3a:	3338      	adds	r3, #56	; 0x38
20000a3c:	2101      	movs	r1, #1
20000a3e:	4618      	mov	r0, r3
20000a40:	f7ff fd8d 	bl	2000055e <clear_bit_reg8>
C:\Microchip\Libero_SoC_v2024.2\Designer\bin\projects\SMF2000-M3_ProjectRad\SC2021_Workspace_PRad\eNVM\Debug/../drivers/mss_uart/mss_uart.c:1524

    /* disable TX time gaurd */
    clear_bit_reg8(&this_uart->hw_reg->MM0,ETTG); 
20000a44:	68fb      	ldr	r3, [r7, #12]
20000a46:	681b      	ldr	r3, [r3, #0]
20000a48:	3330      	adds	r3, #48	; 0x30
20000a4a:	2105      	movs	r1, #5
20000a4c:	4618      	mov	r0, r3
20000a4e:	f7ff fd86 	bl	2000055e <clear_bit_reg8>
C:\Microchip\Libero_SoC_v2024.2\Designer\bin\projects\SMF2000-M3_ProjectRad\SC2021_Workspace_PRad\eNVM\Debug/../drivers/mss_uart/mss_uart.c:1527

    /* set default RX timeout */
    clear_bit_reg8(&this_uart->hw_reg->MM0,ERTO); 
20000a52:	68fb      	ldr	r3, [r7, #12]
20000a54:	681b      	ldr	r3, [r3, #0]
20000a56:	3330      	adds	r3, #48	; 0x30
20000a58:	2106      	movs	r1, #6
20000a5a:	4618      	mov	r0, r3
20000a5c:	f7ff fd7f 	bl	2000055e <clear_bit_reg8>
C:\Microchip\Libero_SoC_v2024.2\Designer\bin\projects\SMF2000-M3_ProjectRad\SC2021_Workspace_PRad\eNVM\Debug/../drivers/mss_uart/mss_uart.c:1530

    /* disable fractional baud-rate */
    clear_bit_reg8(&this_uart->hw_reg->MM0,EFBR); 
20000a60:	68fb      	ldr	r3, [r7, #12]
20000a62:	681b      	ldr	r3, [r3, #0]
20000a64:	3330      	adds	r3, #48	; 0x30
20000a66:	2107      	movs	r1, #7
20000a68:	4618      	mov	r0, r3
20000a6a:	f7ff fd78 	bl	2000055e <clear_bit_reg8>
C:\Microchip\Libero_SoC_v2024.2\Designer\bin\projects\SMF2000-M3_ProjectRad\SC2021_Workspace_PRad\eNVM\Debug/../drivers/mss_uart/mss_uart.c:1533

    /* disable single wire mode */
    clear_bit_reg8(&this_uart->hw_reg->MM2,ESWM);
20000a6e:	68fb      	ldr	r3, [r7, #12]
20000a70:	681b      	ldr	r3, [r3, #0]
20000a72:	3338      	adds	r3, #56	; 0x38
20000a74:	2103      	movs	r1, #3
20000a76:	4618      	mov	r0, r3
20000a78:	f7ff fd71 	bl	2000055e <clear_bit_reg8>
C:\Microchip\Libero_SoC_v2024.2\Designer\bin\projects\SMF2000-M3_ProjectRad\SC2021_Workspace_PRad\eNVM\Debug/../drivers/mss_uart/mss_uart.c:1536

    /* set filter to minimum value */
    this_uart->hw_reg->GFR = 0u;
20000a7c:	68fb      	ldr	r3, [r7, #12]
20000a7e:	681b      	ldr	r3, [r3, #0]
20000a80:	2200      	movs	r2, #0
20000a82:	f883 2044 	strb.w	r2, [r3, #68]	; 0x44
C:\Microchip\Libero_SoC_v2024.2\Designer\bin\projects\SMF2000-M3_ProjectRad\SC2021_Workspace_PRad\eNVM\Debug/../drivers/mss_uart/mss_uart.c:1538
    /* set default TX time gaurd */
    this_uart->hw_reg->TTG = 0u;
20000a86:	68fb      	ldr	r3, [r7, #12]
20000a88:	681b      	ldr	r3, [r3, #0]
20000a8a:	2200      	movs	r2, #0
20000a8c:	f883 2048 	strb.w	r2, [r3, #72]	; 0x48
C:\Microchip\Libero_SoC_v2024.2\Designer\bin\projects\SMF2000-M3_ProjectRad\SC2021_Workspace_PRad\eNVM\Debug/../drivers/mss_uart/mss_uart.c:1540
    /* set default RX timeout */
    this_uart->hw_reg->RTO = 0u;
20000a90:	68fb      	ldr	r3, [r7, #12]
20000a92:	681b      	ldr	r3, [r3, #0]
20000a94:	2200      	movs	r2, #0
20000a96:	f883 204c 	strb.w	r2, [r3, #76]	; 0x4c
C:\Microchip\Libero_SoC_v2024.2\Designer\bin\projects\SMF2000-M3_ProjectRad\SC2021_Workspace_PRad\eNVM\Debug/../drivers/mss_uart/mss_uart.c:1546
    
    /* 
     * Configure baud rate divisors. This uses the frational baud rate divisor
     * where possible to provide the most accurate baud rat possible.
     */
    config_baud_divisors(this_uart, baud_rate);
20000a9a:	68b9      	ldr	r1, [r7, #8]
20000a9c:	68f8      	ldr	r0, [r7, #12]
20000a9e:	f7ff feab 	bl	200007f8 <config_baud_divisors>
C:\Microchip\Libero_SoC_v2024.2\Designer\bin\projects\SMF2000-M3_ProjectRad\SC2021_Workspace_PRad\eNVM\Debug/../drivers/mss_uart/mss_uart.c:1549

    /* set the line control register (bit length, stop bits, parity) */
    this_uart->hw_reg->LCR = line_config;
20000aa2:	68fb      	ldr	r3, [r7, #12]
20000aa4:	681b      	ldr	r3, [r3, #0]
20000aa6:	79fa      	ldrb	r2, [r7, #7]
20000aa8:	731a      	strb	r2, [r3, #12]
C:\Microchip\Libero_SoC_v2024.2\Designer\bin\projects\SMF2000-M3_ProjectRad\SC2021_Workspace_PRad\eNVM\Debug/../drivers/mss_uart/mss_uart.c:1552

    /* Instance setup */
    this_uart->baudrate = baud_rate;
20000aaa:	68fb      	ldr	r3, [r7, #12]
20000aac:	68ba      	ldr	r2, [r7, #8]
20000aae:	609a      	str	r2, [r3, #8]
C:\Microchip\Libero_SoC_v2024.2\Designer\bin\projects\SMF2000-M3_ProjectRad\SC2021_Workspace_PRad\eNVM\Debug/../drivers/mss_uart/mss_uart.c:1553
    this_uart->lineconfig = line_config;
20000ab0:	68fb      	ldr	r3, [r7, #12]
20000ab2:	79fa      	ldrb	r2, [r7, #7]
20000ab4:	731a      	strb	r2, [r3, #12]
C:\Microchip\Libero_SoC_v2024.2\Designer\bin\projects\SMF2000-M3_ProjectRad\SC2021_Workspace_PRad\eNVM\Debug/../drivers/mss_uart/mss_uart.c:1554
    this_uart->tx_buff_size = TX_COMPLETE;
20000ab6:	68fb      	ldr	r3, [r7, #12]
20000ab8:	2200      	movs	r2, #0
20000aba:	615a      	str	r2, [r3, #20]
C:\Microchip\Libero_SoC_v2024.2\Designer\bin\projects\SMF2000-M3_ProjectRad\SC2021_Workspace_PRad\eNVM\Debug/../drivers/mss_uart/mss_uart.c:1555
    this_uart->tx_buffer = (const uint8_t *)0;
20000abc:	68fb      	ldr	r3, [r7, #12]
20000abe:	2200      	movs	r2, #0
20000ac0:	611a      	str	r2, [r3, #16]
C:\Microchip\Libero_SoC_v2024.2\Designer\bin\projects\SMF2000-M3_ProjectRad\SC2021_Workspace_PRad\eNVM\Debug/../drivers/mss_uart/mss_uart.c:1556
    this_uart->tx_idx = 0u;
20000ac2:	68fb      	ldr	r3, [r7, #12]
20000ac4:	2200      	movs	r2, #0
20000ac6:	619a      	str	r2, [r3, #24]
C:\Microchip\Libero_SoC_v2024.2\Designer\bin\projects\SMF2000-M3_ProjectRad\SC2021_Workspace_PRad\eNVM\Debug/../drivers/mss_uart/mss_uart.c:1559

    /* Default handlers for MSS UART interrupts */
    this_uart->rx_handler       = NULL_HANDLER;
20000ac8:	68fb      	ldr	r3, [r7, #12]
20000aca:	2200      	movs	r2, #0
20000acc:	621a      	str	r2, [r3, #32]
C:\Microchip\Libero_SoC_v2024.2\Designer\bin\projects\SMF2000-M3_ProjectRad\SC2021_Workspace_PRad\eNVM\Debug/../drivers/mss_uart/mss_uart.c:1560
    this_uart->tx_handler       = NULL_HANDLER;
20000ace:	68fb      	ldr	r3, [r7, #12]
20000ad0:	2200      	movs	r2, #0
20000ad2:	625a      	str	r2, [r3, #36]	; 0x24
C:\Microchip\Libero_SoC_v2024.2\Designer\bin\projects\SMF2000-M3_ProjectRad\SC2021_Workspace_PRad\eNVM\Debug/../drivers/mss_uart/mss_uart.c:1561
    this_uart->linests_handler  = NULL_HANDLER;
20000ad4:	68fb      	ldr	r3, [r7, #12]
20000ad6:	2200      	movs	r2, #0
20000ad8:	61da      	str	r2, [r3, #28]
C:\Microchip\Libero_SoC_v2024.2\Designer\bin\projects\SMF2000-M3_ProjectRad\SC2021_Workspace_PRad\eNVM\Debug/../drivers/mss_uart/mss_uart.c:1562
    this_uart->modemsts_handler = NULL_HANDLER;
20000ada:	68fb      	ldr	r3, [r7, #12]
20000adc:	2200      	movs	r2, #0
20000ade:	629a      	str	r2, [r3, #40]	; 0x28
C:\Microchip\Libero_SoC_v2024.2\Designer\bin\projects\SMF2000-M3_ProjectRad\SC2021_Workspace_PRad\eNVM\Debug/../drivers/mss_uart/mss_uart.c:1563
    this_uart->rto_handler      = NULL_HANDLER;    
20000ae0:	68fb      	ldr	r3, [r7, #12]
20000ae2:	2200      	movs	r2, #0
20000ae4:	62da      	str	r2, [r3, #44]	; 0x2c
C:\Microchip\Libero_SoC_v2024.2\Designer\bin\projects\SMF2000-M3_ProjectRad\SC2021_Workspace_PRad\eNVM\Debug/../drivers/mss_uart/mss_uart.c:1564
    this_uart->nack_handler     = NULL_HANDLER;   
20000ae6:	68fb      	ldr	r3, [r7, #12]
20000ae8:	2200      	movs	r2, #0
20000aea:	631a      	str	r2, [r3, #48]	; 0x30
C:\Microchip\Libero_SoC_v2024.2\Designer\bin\projects\SMF2000-M3_ProjectRad\SC2021_Workspace_PRad\eNVM\Debug/../drivers/mss_uart/mss_uart.c:1565
    this_uart->pid_pei_handler  = NULL_HANDLER;
20000aec:	68fb      	ldr	r3, [r7, #12]
20000aee:	2200      	movs	r2, #0
20000af0:	635a      	str	r2, [r3, #52]	; 0x34
C:\Microchip\Libero_SoC_v2024.2\Designer\bin\projects\SMF2000-M3_ProjectRad\SC2021_Workspace_PRad\eNVM\Debug/../drivers/mss_uart/mss_uart.c:1566
    this_uart->break_handler    = NULL_HANDLER;    
20000af2:	68fb      	ldr	r3, [r7, #12]
20000af4:	2200      	movs	r2, #0
20000af6:	639a      	str	r2, [r3, #56]	; 0x38
C:\Microchip\Libero_SoC_v2024.2\Designer\bin\projects\SMF2000-M3_ProjectRad\SC2021_Workspace_PRad\eNVM\Debug/../drivers/mss_uart/mss_uart.c:1567
    this_uart->sync_handler     = NULL_HANDLER;   
20000af8:	68fb      	ldr	r3, [r7, #12]
20000afa:	2200      	movs	r2, #0
20000afc:	63da      	str	r2, [r3, #60]	; 0x3c
C:\Microchip\Libero_SoC_v2024.2\Designer\bin\projects\SMF2000-M3_ProjectRad\SC2021_Workspace_PRad\eNVM\Debug/../drivers/mss_uart/mss_uart.c:1570

    /* Initialize the sticky status */
    this_uart->status = 0u;
20000afe:	68fb      	ldr	r3, [r7, #12]
20000b00:	2200      	movs	r2, #0
20000b02:	735a      	strb	r2, [r3, #13]
C:\Microchip\Libero_SoC_v2024.2\Designer\bin\projects\SMF2000-M3_ProjectRad\SC2021_Workspace_PRad\eNVM\Debug/../drivers/mss_uart/mss_uart.c:1571
}
20000b04:	bf00      	nop
20000b06:	3710      	adds	r7, #16
20000b08:	46bd      	mov	sp, r7
20000b0a:	bd80      	pop	{r7, pc}
20000b0c:	2000942c 	.word	0x2000942c
20000b10:	200093ec 	.word	0x200093ec
20000b14:	40038000 	.word	0x40038000
20000b18:	40010000 	.word	0x40010000

20000b1c <MSS_UART_isr>:
MSS_UART_isr():
C:\Microchip\Libero_SoC_v2024.2\Designer\bin\projects\SMF2000-M3_ProjectRad\SC2021_Workspace_PRad\eNVM\Debug/../drivers/mss_uart/mss_uart.c:1586
static void
MSS_UART_isr
(
    mss_uart_instance_t * this_uart
)
{
20000b1c:	b580      	push	{r7, lr}
20000b1e:	b084      	sub	sp, #16
20000b20:	af00      	add	r7, sp, #0
20000b22:	6078      	str	r0, [r7, #4]
C:\Microchip\Libero_SoC_v2024.2\Designer\bin\projects\SMF2000-M3_ProjectRad\SC2021_Workspace_PRad\eNVM\Debug/../drivers/mss_uart/mss_uart.c:1589
    uint8_t iirf;

    ASSERT((this_uart == &g_mss_uart0) || (this_uart == &g_mss_uart1));
20000b24:	687b      	ldr	r3, [r7, #4]
20000b26:	4a7d      	ldr	r2, [pc, #500]	; (20000d1c <MSS_UART_isr+0x200>)
20000b28:	4293      	cmp	r3, r2
20000b2a:	d004      	beq.n	20000b36 <MSS_UART_isr+0x1a>
C:\Microchip\Libero_SoC_v2024.2\Designer\bin\projects\SMF2000-M3_ProjectRad\SC2021_Workspace_PRad\eNVM\Debug/../drivers/mss_uart/mss_uart.c:1589 (discriminator 1)
20000b2c:	687b      	ldr	r3, [r7, #4]
20000b2e:	4a7c      	ldr	r2, [pc, #496]	; (20000d20 <MSS_UART_isr+0x204>)
20000b30:	4293      	cmp	r3, r2
20000b32:	d000      	beq.n	20000b36 <MSS_UART_isr+0x1a>
C:\Microchip\Libero_SoC_v2024.2\Designer\bin\projects\SMF2000-M3_ProjectRad\SC2021_Workspace_PRad\eNVM\Debug/../drivers/mss_uart/mss_uart.c:1589 (discriminator 2)
20000b34:	be00      	bkpt	0x0000
C:\Microchip\Libero_SoC_v2024.2\Designer\bin\projects\SMF2000-M3_ProjectRad\SC2021_Workspace_PRad\eNVM\Debug/../drivers/mss_uart/mss_uart.c:1591

    if((this_uart == &g_mss_uart0) || (this_uart == &g_mss_uart1))
20000b36:	687b      	ldr	r3, [r7, #4]
20000b38:	4a78      	ldr	r2, [pc, #480]	; (20000d1c <MSS_UART_isr+0x200>)
20000b3a:	4293      	cmp	r3, r2
20000b3c:	d004      	beq.n	20000b48 <MSS_UART_isr+0x2c>
C:\Microchip\Libero_SoC_v2024.2\Designer\bin\projects\SMF2000-M3_ProjectRad\SC2021_Workspace_PRad\eNVM\Debug/../drivers/mss_uart/mss_uart.c:1591 (discriminator 1)
20000b3e:	687b      	ldr	r3, [r7, #4]
20000b40:	4a77      	ldr	r2, [pc, #476]	; (20000d20 <MSS_UART_isr+0x204>)
20000b42:	4293      	cmp	r3, r2
20000b44:	f040 80da 	bne.w	20000cfc <MSS_UART_isr+0x1e0>
C:\Microchip\Libero_SoC_v2024.2\Designer\bin\projects\SMF2000-M3_ProjectRad\SC2021_Workspace_PRad\eNVM\Debug/../drivers/mss_uart/mss_uart.c:1593
    {
        iirf = this_uart->hw_reg->IIR & IIRF_MASK;
20000b48:	687b      	ldr	r3, [r7, #4]
20000b4a:	681b      	ldr	r3, [r3, #0]
20000b4c:	7a1b      	ldrb	r3, [r3, #8]
20000b4e:	b2db      	uxtb	r3, r3
20000b50:	f003 030f 	and.w	r3, r3, #15
20000b54:	73fb      	strb	r3, [r7, #15]
C:\Microchip\Libero_SoC_v2024.2\Designer\bin\projects\SMF2000-M3_ProjectRad\SC2021_Workspace_PRad\eNVM\Debug/../drivers/mss_uart/mss_uart.c:1595

        switch (iirf)
20000b56:	7bfb      	ldrb	r3, [r7, #15]
20000b58:	2b0c      	cmp	r3, #12
20000b5a:	f200 80cd 	bhi.w	20000cf8 <MSS_UART_isr+0x1dc>
20000b5e:	a201      	add	r2, pc, #4	; (adr r2, 20000b64 <MSS_UART_isr+0x48>)
20000b60:	f852 f023 	ldr.w	pc, [r2, r3, lsl #2]
20000b64:	20000b99 	.word	0x20000b99
20000b68:	20000cf9 	.word	0x20000cf9
20000b6c:	20000bb7 	.word	0x20000bb7
20000b70:	20000c11 	.word	0x20000c11
20000b74:	20000bd5 	.word	0x20000bd5
20000b78:	20000cf9 	.word	0x20000cf9
20000b7c:	20000bf3 	.word	0x20000bf3
20000b80:	20000cf9 	.word	0x20000cf9
20000b84:	20000cf9 	.word	0x20000cf9
20000b88:	20000cf9 	.word	0x20000cf9
20000b8c:	20000cf9 	.word	0x20000cf9
20000b90:	20000cf9 	.word	0x20000cf9
20000b94:	20000bd5 	.word	0x20000bd5
C:\Microchip\Libero_SoC_v2024.2\Designer\bin\projects\SMF2000-M3_ProjectRad\SC2021_Workspace_PRad\eNVM\Debug/../drivers/mss_uart/mss_uart.c:1599
        {
            case IIRF_MODEM_STATUS:  /* Modem status interrupt */
            {
                ASSERT(NULL_HANDLER != this_uart->modemsts_handler);
20000b98:	687b      	ldr	r3, [r7, #4]
20000b9a:	6a9b      	ldr	r3, [r3, #40]	; 0x28
20000b9c:	2b00      	cmp	r3, #0
20000b9e:	d100      	bne.n	20000ba2 <MSS_UART_isr+0x86>
C:\Microchip\Libero_SoC_v2024.2\Designer\bin\projects\SMF2000-M3_ProjectRad\SC2021_Workspace_PRad\eNVM\Debug/../drivers/mss_uart/mss_uart.c:1599 (discriminator 1)
20000ba0:	be00      	bkpt	0x0000
C:\Microchip\Libero_SoC_v2024.2\Designer\bin\projects\SMF2000-M3_ProjectRad\SC2021_Workspace_PRad\eNVM\Debug/../drivers/mss_uart/mss_uart.c:1600
                if(NULL_HANDLER != this_uart->modemsts_handler)
20000ba2:	687b      	ldr	r3, [r7, #4]
20000ba4:	6a9b      	ldr	r3, [r3, #40]	; 0x28
20000ba6:	2b00      	cmp	r3, #0
20000ba8:	f000 80aa 	beq.w	20000d00 <MSS_UART_isr+0x1e4>
C:\Microchip\Libero_SoC_v2024.2\Designer\bin\projects\SMF2000-M3_ProjectRad\SC2021_Workspace_PRad\eNVM\Debug/../drivers/mss_uart/mss_uart.c:1602
                {
                   (*(this_uart->modemsts_handler))(this_uart);
20000bac:	687b      	ldr	r3, [r7, #4]
20000bae:	6a9b      	ldr	r3, [r3, #40]	; 0x28
20000bb0:	6878      	ldr	r0, [r7, #4]
20000bb2:	4798      	blx	r3
C:\Microchip\Libero_SoC_v2024.2\Designer\bin\projects\SMF2000-M3_ProjectRad\SC2021_Workspace_PRad\eNVM\Debug/../drivers/mss_uart/mss_uart.c:1605
                }
            }
            break;
20000bb4:	e0a4      	b.n	20000d00 <MSS_UART_isr+0x1e4>
C:\Microchip\Libero_SoC_v2024.2\Designer\bin\projects\SMF2000-M3_ProjectRad\SC2021_Workspace_PRad\eNVM\Debug/../drivers/mss_uart/mss_uart.c:1609

            case IIRF_THRE: /* Transmitter Holding Register Empty */
            {
                ASSERT(NULL_HANDLER != this_uart->tx_handler);
20000bb6:	687b      	ldr	r3, [r7, #4]
20000bb8:	6a5b      	ldr	r3, [r3, #36]	; 0x24
20000bba:	2b00      	cmp	r3, #0
20000bbc:	d100      	bne.n	20000bc0 <MSS_UART_isr+0xa4>
C:\Microchip\Libero_SoC_v2024.2\Designer\bin\projects\SMF2000-M3_ProjectRad\SC2021_Workspace_PRad\eNVM\Debug/../drivers/mss_uart/mss_uart.c:1609 (discriminator 1)
20000bbe:	be00      	bkpt	0x0000
C:\Microchip\Libero_SoC_v2024.2\Designer\bin\projects\SMF2000-M3_ProjectRad\SC2021_Workspace_PRad\eNVM\Debug/../drivers/mss_uart/mss_uart.c:1610
                if(NULL_HANDLER != this_uart->tx_handler)
20000bc0:	687b      	ldr	r3, [r7, #4]
20000bc2:	6a5b      	ldr	r3, [r3, #36]	; 0x24
20000bc4:	2b00      	cmp	r3, #0
20000bc6:	f000 809d 	beq.w	20000d04 <MSS_UART_isr+0x1e8>
C:\Microchip\Libero_SoC_v2024.2\Designer\bin\projects\SMF2000-M3_ProjectRad\SC2021_Workspace_PRad\eNVM\Debug/../drivers/mss_uart/mss_uart.c:1612
                {
                    (*(this_uart->tx_handler))(this_uart);
20000bca:	687b      	ldr	r3, [r7, #4]
20000bcc:	6a5b      	ldr	r3, [r3, #36]	; 0x24
20000bce:	6878      	ldr	r0, [r7, #4]
20000bd0:	4798      	blx	r3
C:\Microchip\Libero_SoC_v2024.2\Designer\bin\projects\SMF2000-M3_ProjectRad\SC2021_Workspace_PRad\eNVM\Debug/../drivers/mss_uart/mss_uart.c:1615
                }
            }
            break;
20000bd2:	e097      	b.n	20000d04 <MSS_UART_isr+0x1e8>
C:\Microchip\Libero_SoC_v2024.2\Designer\bin\projects\SMF2000-M3_ProjectRad\SC2021_Workspace_PRad\eNVM\Debug/../drivers/mss_uart/mss_uart.c:1620

            case IIRF_RX_DATA:      /* Received Data Available */
            case IIRF_DATA_TIMEOUT: /* Received Data Timed-out */
            {
                ASSERT(NULL_HANDLER != this_uart->rx_handler);
20000bd4:	687b      	ldr	r3, [r7, #4]
20000bd6:	6a1b      	ldr	r3, [r3, #32]
20000bd8:	2b00      	cmp	r3, #0
20000bda:	d100      	bne.n	20000bde <MSS_UART_isr+0xc2>
C:\Microchip\Libero_SoC_v2024.2\Designer\bin\projects\SMF2000-M3_ProjectRad\SC2021_Workspace_PRad\eNVM\Debug/../drivers/mss_uart/mss_uart.c:1620 (discriminator 1)
20000bdc:	be00      	bkpt	0x0000
C:\Microchip\Libero_SoC_v2024.2\Designer\bin\projects\SMF2000-M3_ProjectRad\SC2021_Workspace_PRad\eNVM\Debug/../drivers/mss_uart/mss_uart.c:1621
                if(NULL_HANDLER != this_uart->rx_handler)
20000bde:	687b      	ldr	r3, [r7, #4]
20000be0:	6a1b      	ldr	r3, [r3, #32]
20000be2:	2b00      	cmp	r3, #0
20000be4:	f000 8090 	beq.w	20000d08 <MSS_UART_isr+0x1ec>
C:\Microchip\Libero_SoC_v2024.2\Designer\bin\projects\SMF2000-M3_ProjectRad\SC2021_Workspace_PRad\eNVM\Debug/../drivers/mss_uart/mss_uart.c:1623
                {
                    (*(this_uart->rx_handler))(this_uart);
20000be8:	687b      	ldr	r3, [r7, #4]
20000bea:	6a1b      	ldr	r3, [r3, #32]
20000bec:	6878      	ldr	r0, [r7, #4]
20000bee:	4798      	blx	r3
C:\Microchip\Libero_SoC_v2024.2\Designer\bin\projects\SMF2000-M3_ProjectRad\SC2021_Workspace_PRad\eNVM\Debug/../drivers/mss_uart/mss_uart.c:1626
                }
            }
            break;
20000bf0:	e08a      	b.n	20000d08 <MSS_UART_isr+0x1ec>
C:\Microchip\Libero_SoC_v2024.2\Designer\bin\projects\SMF2000-M3_ProjectRad\SC2021_Workspace_PRad\eNVM\Debug/../drivers/mss_uart/mss_uart.c:1630

            case IIRF_RX_LINE_STATUS:  /* Line Status Interrupt */
            {
                ASSERT(NULL_HANDLER != this_uart->linests_handler);
20000bf2:	687b      	ldr	r3, [r7, #4]
20000bf4:	69db      	ldr	r3, [r3, #28]
20000bf6:	2b00      	cmp	r3, #0
20000bf8:	d100      	bne.n	20000bfc <MSS_UART_isr+0xe0>
C:\Microchip\Libero_SoC_v2024.2\Designer\bin\projects\SMF2000-M3_ProjectRad\SC2021_Workspace_PRad\eNVM\Debug/../drivers/mss_uart/mss_uart.c:1630 (discriminator 1)
20000bfa:	be00      	bkpt	0x0000
C:\Microchip\Libero_SoC_v2024.2\Designer\bin\projects\SMF2000-M3_ProjectRad\SC2021_Workspace_PRad\eNVM\Debug/../drivers/mss_uart/mss_uart.c:1631
                if(NULL_HANDLER != this_uart->linests_handler)
20000bfc:	687b      	ldr	r3, [r7, #4]
20000bfe:	69db      	ldr	r3, [r3, #28]
20000c00:	2b00      	cmp	r3, #0
20000c02:	f000 8083 	beq.w	20000d0c <MSS_UART_isr+0x1f0>
C:\Microchip\Libero_SoC_v2024.2\Designer\bin\projects\SMF2000-M3_ProjectRad\SC2021_Workspace_PRad\eNVM\Debug/../drivers/mss_uart/mss_uart.c:1633
                {
                   (*(this_uart->linests_handler))(this_uart);
20000c06:	687b      	ldr	r3, [r7, #4]
20000c08:	69db      	ldr	r3, [r3, #28]
20000c0a:	6878      	ldr	r0, [r7, #4]
20000c0c:	4798      	blx	r3
C:\Microchip\Libero_SoC_v2024.2\Designer\bin\projects\SMF2000-M3_ProjectRad\SC2021_Workspace_PRad\eNVM\Debug/../drivers/mss_uart/mss_uart.c:1636
                }
            }
            break;
20000c0e:	e07d      	b.n	20000d0c <MSS_UART_isr+0x1f0>
C:\Microchip\Libero_SoC_v2024.2\Designer\bin\projects\SMF2000-M3_ProjectRad\SC2021_Workspace_PRad\eNVM\Debug/../drivers/mss_uart/mss_uart.c:1643
            case IIRF_MMI:
            {
                /* Identify multimode interrupts and handle */

                /* Receiver time-out interrupt */
                if(read_bit_reg8(&this_uart->hw_reg->IIM,ERTOI))
20000c10:	687b      	ldr	r3, [r7, #4]
20000c12:	681b      	ldr	r3, [r3, #0]
20000c14:	3328      	adds	r3, #40	; 0x28
20000c16:	2100      	movs	r1, #0
20000c18:	4618      	mov	r0, r3
20000c1a:	f7ff fcbd 	bl	20000598 <read_bit_reg8>
20000c1e:	4603      	mov	r3, r0
20000c20:	2b00      	cmp	r3, #0
20000c22:	d00c      	beq.n	20000c3e <MSS_UART_isr+0x122>
C:\Microchip\Libero_SoC_v2024.2\Designer\bin\projects\SMF2000-M3_ProjectRad\SC2021_Workspace_PRad\eNVM\Debug/../drivers/mss_uart/mss_uart.c:1645
                {
                    ASSERT(NULL_HANDLER != this_uart->rto_handler);
20000c24:	687b      	ldr	r3, [r7, #4]
20000c26:	6adb      	ldr	r3, [r3, #44]	; 0x2c
20000c28:	2b00      	cmp	r3, #0
20000c2a:	d100      	bne.n	20000c2e <MSS_UART_isr+0x112>
C:\Microchip\Libero_SoC_v2024.2\Designer\bin\projects\SMF2000-M3_ProjectRad\SC2021_Workspace_PRad\eNVM\Debug/../drivers/mss_uart/mss_uart.c:1645 (discriminator 1)
20000c2c:	be00      	bkpt	0x0000
C:\Microchip\Libero_SoC_v2024.2\Designer\bin\projects\SMF2000-M3_ProjectRad\SC2021_Workspace_PRad\eNVM\Debug/../drivers/mss_uart/mss_uart.c:1646
                    if(NULL_HANDLER != this_uart->rto_handler)
20000c2e:	687b      	ldr	r3, [r7, #4]
20000c30:	6adb      	ldr	r3, [r3, #44]	; 0x2c
20000c32:	2b00      	cmp	r3, #0
20000c34:	d003      	beq.n	20000c3e <MSS_UART_isr+0x122>
C:\Microchip\Libero_SoC_v2024.2\Designer\bin\projects\SMF2000-M3_ProjectRad\SC2021_Workspace_PRad\eNVM\Debug/../drivers/mss_uart/mss_uart.c:1648
                    {
                        (*(this_uart->rto_handler))(this_uart);
20000c36:	687b      	ldr	r3, [r7, #4]
20000c38:	6adb      	ldr	r3, [r3, #44]	; 0x2c
20000c3a:	6878      	ldr	r0, [r7, #4]
20000c3c:	4798      	blx	r3
C:\Microchip\Libero_SoC_v2024.2\Designer\bin\projects\SMF2000-M3_ProjectRad\SC2021_Workspace_PRad\eNVM\Debug/../drivers/mss_uart/mss_uart.c:1652
                    }
                }
                /* NACK interrupt */
                if(read_bit_reg8(&this_uart->hw_reg->IIM,ENACKI))
20000c3e:	687b      	ldr	r3, [r7, #4]
20000c40:	681b      	ldr	r3, [r3, #0]
20000c42:	3328      	adds	r3, #40	; 0x28
20000c44:	2101      	movs	r1, #1
20000c46:	4618      	mov	r0, r3
20000c48:	f7ff fca6 	bl	20000598 <read_bit_reg8>
20000c4c:	4603      	mov	r3, r0
20000c4e:	2b00      	cmp	r3, #0
20000c50:	d00c      	beq.n	20000c6c <MSS_UART_isr+0x150>
C:\Microchip\Libero_SoC_v2024.2\Designer\bin\projects\SMF2000-M3_ProjectRad\SC2021_Workspace_PRad\eNVM\Debug/../drivers/mss_uart/mss_uart.c:1654
                {
                    ASSERT(NULL_HANDLER != this_uart->nack_handler);
20000c52:	687b      	ldr	r3, [r7, #4]
20000c54:	6b1b      	ldr	r3, [r3, #48]	; 0x30
20000c56:	2b00      	cmp	r3, #0
20000c58:	d100      	bne.n	20000c5c <MSS_UART_isr+0x140>
C:\Microchip\Libero_SoC_v2024.2\Designer\bin\projects\SMF2000-M3_ProjectRad\SC2021_Workspace_PRad\eNVM\Debug/../drivers/mss_uart/mss_uart.c:1654 (discriminator 1)
20000c5a:	be00      	bkpt	0x0000
C:\Microchip\Libero_SoC_v2024.2\Designer\bin\projects\SMF2000-M3_ProjectRad\SC2021_Workspace_PRad\eNVM\Debug/../drivers/mss_uart/mss_uart.c:1655
                    if(NULL_HANDLER != this_uart->nack_handler)
20000c5c:	687b      	ldr	r3, [r7, #4]
20000c5e:	6b1b      	ldr	r3, [r3, #48]	; 0x30
20000c60:	2b00      	cmp	r3, #0
20000c62:	d003      	beq.n	20000c6c <MSS_UART_isr+0x150>
C:\Microchip\Libero_SoC_v2024.2\Designer\bin\projects\SMF2000-M3_ProjectRad\SC2021_Workspace_PRad\eNVM\Debug/../drivers/mss_uart/mss_uart.c:1657
                    {
                        (*(this_uart->nack_handler))(this_uart);
20000c64:	687b      	ldr	r3, [r7, #4]
20000c66:	6b1b      	ldr	r3, [r3, #48]	; 0x30
20000c68:	6878      	ldr	r0, [r7, #4]
20000c6a:	4798      	blx	r3
C:\Microchip\Libero_SoC_v2024.2\Designer\bin\projects\SMF2000-M3_ProjectRad\SC2021_Workspace_PRad\eNVM\Debug/../drivers/mss_uart/mss_uart.c:1662
                    }
                }

                /* PID parity error interrupt */
                if(read_bit_reg8(&this_uart->hw_reg->IIM,EPID_PEI))
20000c6c:	687b      	ldr	r3, [r7, #4]
20000c6e:	681b      	ldr	r3, [r3, #0]
20000c70:	3328      	adds	r3, #40	; 0x28
20000c72:	2102      	movs	r1, #2
20000c74:	4618      	mov	r0, r3
20000c76:	f7ff fc8f 	bl	20000598 <read_bit_reg8>
20000c7a:	4603      	mov	r3, r0
20000c7c:	2b00      	cmp	r3, #0
20000c7e:	d00c      	beq.n	20000c9a <MSS_UART_isr+0x17e>
C:\Microchip\Libero_SoC_v2024.2\Designer\bin\projects\SMF2000-M3_ProjectRad\SC2021_Workspace_PRad\eNVM\Debug/../drivers/mss_uart/mss_uart.c:1664
                {
                    ASSERT(NULL_HANDLER != this_uart->pid_pei_handler);
20000c80:	687b      	ldr	r3, [r7, #4]
20000c82:	6b5b      	ldr	r3, [r3, #52]	; 0x34
20000c84:	2b00      	cmp	r3, #0
20000c86:	d100      	bne.n	20000c8a <MSS_UART_isr+0x16e>
C:\Microchip\Libero_SoC_v2024.2\Designer\bin\projects\SMF2000-M3_ProjectRad\SC2021_Workspace_PRad\eNVM\Debug/../drivers/mss_uart/mss_uart.c:1664 (discriminator 1)
20000c88:	be00      	bkpt	0x0000
C:\Microchip\Libero_SoC_v2024.2\Designer\bin\projects\SMF2000-M3_ProjectRad\SC2021_Workspace_PRad\eNVM\Debug/../drivers/mss_uart/mss_uart.c:1665
                    if(NULL_HANDLER != this_uart->pid_pei_handler)
20000c8a:	687b      	ldr	r3, [r7, #4]
20000c8c:	6b5b      	ldr	r3, [r3, #52]	; 0x34
20000c8e:	2b00      	cmp	r3, #0
20000c90:	d003      	beq.n	20000c9a <MSS_UART_isr+0x17e>
C:\Microchip\Libero_SoC_v2024.2\Designer\bin\projects\SMF2000-M3_ProjectRad\SC2021_Workspace_PRad\eNVM\Debug/../drivers/mss_uart/mss_uart.c:1667
                    {
                        (*(this_uart->pid_pei_handler))(this_uart);
20000c92:	687b      	ldr	r3, [r7, #4]
20000c94:	6b5b      	ldr	r3, [r3, #52]	; 0x34
20000c96:	6878      	ldr	r0, [r7, #4]
20000c98:	4798      	blx	r3
C:\Microchip\Libero_SoC_v2024.2\Designer\bin\projects\SMF2000-M3_ProjectRad\SC2021_Workspace_PRad\eNVM\Debug/../drivers/mss_uart/mss_uart.c:1672
                    }
                }

                /* LIN break detection interrupt */
                if(read_bit_reg8(&this_uart->hw_reg->IIM,ELINBI))
20000c9a:	687b      	ldr	r3, [r7, #4]
20000c9c:	681b      	ldr	r3, [r3, #0]
20000c9e:	3328      	adds	r3, #40	; 0x28
20000ca0:	2103      	movs	r1, #3
20000ca2:	4618      	mov	r0, r3
20000ca4:	f7ff fc78 	bl	20000598 <read_bit_reg8>
20000ca8:	4603      	mov	r3, r0
20000caa:	2b00      	cmp	r3, #0
20000cac:	d00c      	beq.n	20000cc8 <MSS_UART_isr+0x1ac>
C:\Microchip\Libero_SoC_v2024.2\Designer\bin\projects\SMF2000-M3_ProjectRad\SC2021_Workspace_PRad\eNVM\Debug/../drivers/mss_uart/mss_uart.c:1674
                {
                    ASSERT(NULL_HANDLER != this_uart->break_handler);
20000cae:	687b      	ldr	r3, [r7, #4]
20000cb0:	6b9b      	ldr	r3, [r3, #56]	; 0x38
20000cb2:	2b00      	cmp	r3, #0
20000cb4:	d100      	bne.n	20000cb8 <MSS_UART_isr+0x19c>
C:\Microchip\Libero_SoC_v2024.2\Designer\bin\projects\SMF2000-M3_ProjectRad\SC2021_Workspace_PRad\eNVM\Debug/../drivers/mss_uart/mss_uart.c:1674 (discriminator 1)
20000cb6:	be00      	bkpt	0x0000
C:\Microchip\Libero_SoC_v2024.2\Designer\bin\projects\SMF2000-M3_ProjectRad\SC2021_Workspace_PRad\eNVM\Debug/../drivers/mss_uart/mss_uart.c:1675
                    if(NULL_HANDLER != this_uart->break_handler)
20000cb8:	687b      	ldr	r3, [r7, #4]
20000cba:	6b9b      	ldr	r3, [r3, #56]	; 0x38
20000cbc:	2b00      	cmp	r3, #0
20000cbe:	d003      	beq.n	20000cc8 <MSS_UART_isr+0x1ac>
C:\Microchip\Libero_SoC_v2024.2\Designer\bin\projects\SMF2000-M3_ProjectRad\SC2021_Workspace_PRad\eNVM\Debug/../drivers/mss_uart/mss_uart.c:1677
                    {
                        (*(this_uart->break_handler))(this_uart);
20000cc0:	687b      	ldr	r3, [r7, #4]
20000cc2:	6b9b      	ldr	r3, [r3, #56]	; 0x38
20000cc4:	6878      	ldr	r0, [r7, #4]
20000cc6:	4798      	blx	r3
C:\Microchip\Libero_SoC_v2024.2\Designer\bin\projects\SMF2000-M3_ProjectRad\SC2021_Workspace_PRad\eNVM\Debug/../drivers/mss_uart/mss_uart.c:1682
                    }
                }

                /* LIN Sync detection interrupt */
                if(read_bit_reg8(&this_uart->hw_reg->IIM,ELINSI))
20000cc8:	687b      	ldr	r3, [r7, #4]
20000cca:	681b      	ldr	r3, [r3, #0]
20000ccc:	3328      	adds	r3, #40	; 0x28
20000cce:	2104      	movs	r1, #4
20000cd0:	4618      	mov	r0, r3
20000cd2:	f7ff fc61 	bl	20000598 <read_bit_reg8>
20000cd6:	4603      	mov	r3, r0
20000cd8:	2b00      	cmp	r3, #0
20000cda:	d019      	beq.n	20000d10 <MSS_UART_isr+0x1f4>
C:\Microchip\Libero_SoC_v2024.2\Designer\bin\projects\SMF2000-M3_ProjectRad\SC2021_Workspace_PRad\eNVM\Debug/../drivers/mss_uart/mss_uart.c:1684
                {
                    ASSERT(NULL_HANDLER != this_uart->sync_handler);
20000cdc:	687b      	ldr	r3, [r7, #4]
20000cde:	6bdb      	ldr	r3, [r3, #60]	; 0x3c
20000ce0:	2b00      	cmp	r3, #0
20000ce2:	d100      	bne.n	20000ce6 <MSS_UART_isr+0x1ca>
C:\Microchip\Libero_SoC_v2024.2\Designer\bin\projects\SMF2000-M3_ProjectRad\SC2021_Workspace_PRad\eNVM\Debug/../drivers/mss_uart/mss_uart.c:1684 (discriminator 1)
20000ce4:	be00      	bkpt	0x0000
C:\Microchip\Libero_SoC_v2024.2\Designer\bin\projects\SMF2000-M3_ProjectRad\SC2021_Workspace_PRad\eNVM\Debug/../drivers/mss_uart/mss_uart.c:1685
                    if(NULL_HANDLER != this_uart->sync_handler)
20000ce6:	687b      	ldr	r3, [r7, #4]
20000ce8:	6bdb      	ldr	r3, [r3, #60]	; 0x3c
20000cea:	2b00      	cmp	r3, #0
20000cec:	d010      	beq.n	20000d10 <MSS_UART_isr+0x1f4>
C:\Microchip\Libero_SoC_v2024.2\Designer\bin\projects\SMF2000-M3_ProjectRad\SC2021_Workspace_PRad\eNVM\Debug/../drivers/mss_uart/mss_uart.c:1687
                    {
                        (*(this_uart->sync_handler))(this_uart);
20000cee:	687b      	ldr	r3, [r7, #4]
20000cf0:	6bdb      	ldr	r3, [r3, #60]	; 0x3c
20000cf2:	6878      	ldr	r0, [r7, #4]
20000cf4:	4798      	blx	r3
C:\Microchip\Libero_SoC_v2024.2\Designer\bin\projects\SMF2000-M3_ProjectRad\SC2021_Workspace_PRad\eNVM\Debug/../drivers/mss_uart/mss_uart.c:1690
                    }
                }
                break;
20000cf6:	e00b      	b.n	20000d10 <MSS_UART_isr+0x1f4>
C:\Microchip\Libero_SoC_v2024.2\Designer\bin\projects\SMF2000-M3_ProjectRad\SC2021_Workspace_PRad\eNVM\Debug/../drivers/mss_uart/mss_uart.c:1695 (discriminator 1)
            }

            default:
            {
                ASSERT(INVALID_INTERRUPT);
20000cf8:	be00      	bkpt	0x0000
C:\Microchip\Libero_SoC_v2024.2\Designer\bin\projects\SMF2000-M3_ProjectRad\SC2021_Workspace_PRad\eNVM\Debug/../drivers/mss_uart/mss_uart.c:1697 (discriminator 1)
            }
            break;
20000cfa:	e00a      	b.n	20000d12 <MSS_UART_isr+0x1f6>
C:\Microchip\Libero_SoC_v2024.2\Designer\bin\projects\SMF2000-M3_ProjectRad\SC2021_Workspace_PRad\eNVM\Debug/../drivers/mss_uart/mss_uart.c:1699
        }
    }
20000cfc:	bf00      	nop
20000cfe:	e008      	b.n	20000d12 <MSS_UART_isr+0x1f6>
C:\Microchip\Libero_SoC_v2024.2\Designer\bin\projects\SMF2000-M3_ProjectRad\SC2021_Workspace_PRad\eNVM\Debug/../drivers/mss_uart/mss_uart.c:1605
            break;
20000d00:	bf00      	nop
20000d02:	e006      	b.n	20000d12 <MSS_UART_isr+0x1f6>
C:\Microchip\Libero_SoC_v2024.2\Designer\bin\projects\SMF2000-M3_ProjectRad\SC2021_Workspace_PRad\eNVM\Debug/../drivers/mss_uart/mss_uart.c:1615
            break;
20000d04:	bf00      	nop
20000d06:	e004      	b.n	20000d12 <MSS_UART_isr+0x1f6>
C:\Microchip\Libero_SoC_v2024.2\Designer\bin\projects\SMF2000-M3_ProjectRad\SC2021_Workspace_PRad\eNVM\Debug/../drivers/mss_uart/mss_uart.c:1626
            break;
20000d08:	bf00      	nop
20000d0a:	e002      	b.n	20000d12 <MSS_UART_isr+0x1f6>
C:\Microchip\Libero_SoC_v2024.2\Designer\bin\projects\SMF2000-M3_ProjectRad\SC2021_Workspace_PRad\eNVM\Debug/../drivers/mss_uart/mss_uart.c:1636
            break;
20000d0c:	bf00      	nop
20000d0e:	e000      	b.n	20000d12 <MSS_UART_isr+0x1f6>
C:\Microchip\Libero_SoC_v2024.2\Designer\bin\projects\SMF2000-M3_ProjectRad\SC2021_Workspace_PRad\eNVM\Debug/../drivers/mss_uart/mss_uart.c:1690
                break;
20000d10:	bf00      	nop
C:\Microchip\Libero_SoC_v2024.2\Designer\bin\projects\SMF2000-M3_ProjectRad\SC2021_Workspace_PRad\eNVM\Debug/../drivers/mss_uart/mss_uart.c:1700
}
20000d12:	bf00      	nop
20000d14:	3710      	adds	r7, #16
20000d16:	46bd      	mov	sp, r7
20000d18:	bd80      	pop	{r7, pc}
20000d1a:	bf00      	nop
20000d1c:	2000942c 	.word	0x2000942c
20000d20:	200093ec 	.word	0x200093ec

20000d24 <default_tx_handler>:
default_tx_handler():
C:\Microchip\Libero_SoC_v2024.2\Designer\bin\projects\SMF2000-M3_ProjectRad\SC2021_Workspace_PRad\eNVM\Debug/../drivers/mss_uart/mss_uart.c:1710
static void
default_tx_handler
(
    mss_uart_instance_t * this_uart
)
{
20000d24:	b580      	push	{r7, lr}
20000d26:	b086      	sub	sp, #24
20000d28:	af00      	add	r7, sp, #0
20000d2a:	6078      	str	r0, [r7, #4]
C:\Microchip\Libero_SoC_v2024.2\Designer\bin\projects\SMF2000-M3_ProjectRad\SC2021_Workspace_PRad\eNVM\Debug/../drivers/mss_uart/mss_uart.c:1713
    uint8_t status;

    ASSERT((this_uart == &g_mss_uart0) || (this_uart == &g_mss_uart1));
20000d2c:	687b      	ldr	r3, [r7, #4]
20000d2e:	4a35      	ldr	r2, [pc, #212]	; (20000e04 <default_tx_handler+0xe0>)
20000d30:	4293      	cmp	r3, r2
20000d32:	d004      	beq.n	20000d3e <default_tx_handler+0x1a>
C:\Microchip\Libero_SoC_v2024.2\Designer\bin\projects\SMF2000-M3_ProjectRad\SC2021_Workspace_PRad\eNVM\Debug/../drivers/mss_uart/mss_uart.c:1713 (discriminator 1)
20000d34:	687b      	ldr	r3, [r7, #4]
20000d36:	4a34      	ldr	r2, [pc, #208]	; (20000e08 <default_tx_handler+0xe4>)
20000d38:	4293      	cmp	r3, r2
20000d3a:	d000      	beq.n	20000d3e <default_tx_handler+0x1a>
C:\Microchip\Libero_SoC_v2024.2\Designer\bin\projects\SMF2000-M3_ProjectRad\SC2021_Workspace_PRad\eNVM\Debug/../drivers/mss_uart/mss_uart.c:1713 (discriminator 2)
20000d3c:	be00      	bkpt	0x0000
C:\Microchip\Libero_SoC_v2024.2\Designer\bin\projects\SMF2000-M3_ProjectRad\SC2021_Workspace_PRad\eNVM\Debug/../drivers/mss_uart/mss_uart.c:1714
    ASSERT(( (uint8_t *)0 ) != this_uart->tx_buffer);
20000d3e:	687b      	ldr	r3, [r7, #4]
20000d40:	691b      	ldr	r3, [r3, #16]
20000d42:	2b00      	cmp	r3, #0
20000d44:	d100      	bne.n	20000d48 <default_tx_handler+0x24>
C:\Microchip\Libero_SoC_v2024.2\Designer\bin\projects\SMF2000-M3_ProjectRad\SC2021_Workspace_PRad\eNVM\Debug/../drivers/mss_uart/mss_uart.c:1714 (discriminator 1)
20000d46:	be00      	bkpt	0x0000
C:\Microchip\Libero_SoC_v2024.2\Designer\bin\projects\SMF2000-M3_ProjectRad\SC2021_Workspace_PRad\eNVM\Debug/../drivers/mss_uart/mss_uart.c:1715
    ASSERT(0u < this_uart->tx_buff_size);
20000d48:	687b      	ldr	r3, [r7, #4]
20000d4a:	695b      	ldr	r3, [r3, #20]
20000d4c:	2b00      	cmp	r3, #0
20000d4e:	d100      	bne.n	20000d52 <default_tx_handler+0x2e>
C:\Microchip\Libero_SoC_v2024.2\Designer\bin\projects\SMF2000-M3_ProjectRad\SC2021_Workspace_PRad\eNVM\Debug/../drivers/mss_uart/mss_uart.c:1715 (discriminator 1)
20000d50:	be00      	bkpt	0x0000
C:\Microchip\Libero_SoC_v2024.2\Designer\bin\projects\SMF2000-M3_ProjectRad\SC2021_Workspace_PRad\eNVM\Debug/../drivers/mss_uart/mss_uart.c:1717

    if(((this_uart == &g_mss_uart0) || (this_uart == &g_mss_uart1)) &&
20000d52:	687b      	ldr	r3, [r7, #4]
20000d54:	4a2b      	ldr	r2, [pc, #172]	; (20000e04 <default_tx_handler+0xe0>)
20000d56:	4293      	cmp	r3, r2
20000d58:	d003      	beq.n	20000d62 <default_tx_handler+0x3e>
C:\Microchip\Libero_SoC_v2024.2\Designer\bin\projects\SMF2000-M3_ProjectRad\SC2021_Workspace_PRad\eNVM\Debug/../drivers/mss_uart/mss_uart.c:1717 (discriminator 2)
20000d5a:	687b      	ldr	r3, [r7, #4]
20000d5c:	4a2a      	ldr	r2, [pc, #168]	; (20000e08 <default_tx_handler+0xe4>)
20000d5e:	4293      	cmp	r3, r2
20000d60:	d14c      	bne.n	20000dfc <default_tx_handler+0xd8>
C:\Microchip\Libero_SoC_v2024.2\Designer\bin\projects\SMF2000-M3_ProjectRad\SC2021_Workspace_PRad\eNVM\Debug/../drivers/mss_uart/mss_uart.c:1718 (discriminator 3)
       (((uint8_t *)0 ) != this_uart->tx_buffer) &&
20000d62:	687b      	ldr	r3, [r7, #4]
20000d64:	691b      	ldr	r3, [r3, #16]
C:\Microchip\Libero_SoC_v2024.2\Designer\bin\projects\SMF2000-M3_ProjectRad\SC2021_Workspace_PRad\eNVM\Debug/../drivers/mss_uart/mss_uart.c:1717 (discriminator 3)
    if(((this_uart == &g_mss_uart0) || (this_uart == &g_mss_uart1)) &&
20000d66:	2b00      	cmp	r3, #0
20000d68:	d048      	beq.n	20000dfc <default_tx_handler+0xd8>
C:\Microchip\Libero_SoC_v2024.2\Designer\bin\projects\SMF2000-M3_ProjectRad\SC2021_Workspace_PRad\eNVM\Debug/../drivers/mss_uart/mss_uart.c:1719
       (0u < this_uart->tx_buff_size))
20000d6a:	687b      	ldr	r3, [r7, #4]
20000d6c:	695b      	ldr	r3, [r3, #20]
C:\Microchip\Libero_SoC_v2024.2\Designer\bin\projects\SMF2000-M3_ProjectRad\SC2021_Workspace_PRad\eNVM\Debug/../drivers/mss_uart/mss_uart.c:1718
       (((uint8_t *)0 ) != this_uart->tx_buffer) &&
20000d6e:	2b00      	cmp	r3, #0
20000d70:	d044      	beq.n	20000dfc <default_tx_handler+0xd8>
C:\Microchip\Libero_SoC_v2024.2\Designer\bin\projects\SMF2000-M3_ProjectRad\SC2021_Workspace_PRad\eNVM\Debug/../drivers/mss_uart/mss_uart.c:1722
    {
        /* Read the Line Status Register and update the sticky record. */
        status = this_uart->hw_reg->LSR;
20000d72:	687b      	ldr	r3, [r7, #4]
20000d74:	681b      	ldr	r3, [r3, #0]
20000d76:	7d1b      	ldrb	r3, [r3, #20]
20000d78:	73fb      	strb	r3, [r7, #15]
C:\Microchip\Libero_SoC_v2024.2\Designer\bin\projects\SMF2000-M3_ProjectRad\SC2021_Workspace_PRad\eNVM\Debug/../drivers/mss_uart/mss_uart.c:1723
        this_uart->status |= status;
20000d7a:	687b      	ldr	r3, [r7, #4]
20000d7c:	7b5a      	ldrb	r2, [r3, #13]
20000d7e:	7bfb      	ldrb	r3, [r7, #15]
20000d80:	4313      	orrs	r3, r2
20000d82:	b2da      	uxtb	r2, r3
20000d84:	687b      	ldr	r3, [r7, #4]
20000d86:	735a      	strb	r2, [r3, #13]
C:\Microchip\Libero_SoC_v2024.2\Designer\bin\projects\SMF2000-M3_ProjectRad\SC2021_Workspace_PRad\eNVM\Debug/../drivers/mss_uart/mss_uart.c:1729

        /*
         * This function should only be called as a result of a THRE interrupt.
         * Verify that this is true before proceeding to transmit data.
         */
        if(status & MSS_UART_THRE)
20000d88:	7bfb      	ldrb	r3, [r7, #15]
20000d8a:	f003 0320 	and.w	r3, r3, #32
20000d8e:	2b00      	cmp	r3, #0
20000d90:	d024      	beq.n	20000ddc <default_tx_handler+0xb8>
C:\Microchip\Libero_SoC_v2024.2\Designer\bin\projects\SMF2000-M3_ProjectRad\SC2021_Workspace_PRad\eNVM\Debug/../drivers/mss_uart/mss_uart.c:1732
        {
            uint32_t i;
            uint32_t fill_size = TX_FIFO_SIZE;
20000d92:	2310      	movs	r3, #16
20000d94:	613b      	str	r3, [r7, #16]
C:\Microchip\Libero_SoC_v2024.2\Designer\bin\projects\SMF2000-M3_ProjectRad\SC2021_Workspace_PRad\eNVM\Debug/../drivers/mss_uart/mss_uart.c:1733
            uint32_t tx_remain = this_uart->tx_buff_size - this_uart->tx_idx;
20000d96:	687b      	ldr	r3, [r7, #4]
20000d98:	695a      	ldr	r2, [r3, #20]
20000d9a:	687b      	ldr	r3, [r7, #4]
20000d9c:	699b      	ldr	r3, [r3, #24]
20000d9e:	1ad3      	subs	r3, r2, r3
20000da0:	60bb      	str	r3, [r7, #8]
C:\Microchip\Libero_SoC_v2024.2\Designer\bin\projects\SMF2000-M3_ProjectRad\SC2021_Workspace_PRad\eNVM\Debug/../drivers/mss_uart/mss_uart.c:1736

            /* Calculate the number of bytes to transmit. */
            if(tx_remain < TX_FIFO_SIZE)
20000da2:	68bb      	ldr	r3, [r7, #8]
20000da4:	2b0f      	cmp	r3, #15
20000da6:	d801      	bhi.n	20000dac <default_tx_handler+0x88>
C:\Microchip\Libero_SoC_v2024.2\Designer\bin\projects\SMF2000-M3_ProjectRad\SC2021_Workspace_PRad\eNVM\Debug/../drivers/mss_uart/mss_uart.c:1738
            {
                fill_size = tx_remain;
20000da8:	68bb      	ldr	r3, [r7, #8]
20000daa:	613b      	str	r3, [r7, #16]
C:\Microchip\Libero_SoC_v2024.2\Designer\bin\projects\SMF2000-M3_ProjectRad\SC2021_Workspace_PRad\eNVM\Debug/../drivers/mss_uart/mss_uart.c:1742
            }

            /* Fill the TX FIFO with the calculated the number of bytes. */
            for(i = 0u; i < fill_size; ++i)
20000dac:	2300      	movs	r3, #0
20000dae:	617b      	str	r3, [r7, #20]
20000db0:	e010      	b.n	20000dd4 <default_tx_handler+0xb0>
C:\Microchip\Libero_SoC_v2024.2\Designer\bin\projects\SMF2000-M3_ProjectRad\SC2021_Workspace_PRad\eNVM\Debug/../drivers/mss_uart/mss_uart.c:1745 (discriminator 3)
            {
                /* Send next character in the buffer. */
                this_uart->hw_reg->THR = this_uart->tx_buffer[this_uart->tx_idx];
20000db2:	687b      	ldr	r3, [r7, #4]
20000db4:	691a      	ldr	r2, [r3, #16]
20000db6:	687b      	ldr	r3, [r7, #4]
20000db8:	699b      	ldr	r3, [r3, #24]
20000dba:	441a      	add	r2, r3
20000dbc:	687b      	ldr	r3, [r7, #4]
20000dbe:	681b      	ldr	r3, [r3, #0]
20000dc0:	7812      	ldrb	r2, [r2, #0]
20000dc2:	701a      	strb	r2, [r3, #0]
C:\Microchip\Libero_SoC_v2024.2\Designer\bin\projects\SMF2000-M3_ProjectRad\SC2021_Workspace_PRad\eNVM\Debug/../drivers/mss_uart/mss_uart.c:1746 (discriminator 3)
                ++this_uart->tx_idx;
20000dc4:	687b      	ldr	r3, [r7, #4]
20000dc6:	699b      	ldr	r3, [r3, #24]
20000dc8:	1c5a      	adds	r2, r3, #1
20000dca:	687b      	ldr	r3, [r7, #4]
20000dcc:	619a      	str	r2, [r3, #24]
C:\Microchip\Libero_SoC_v2024.2\Designer\bin\projects\SMF2000-M3_ProjectRad\SC2021_Workspace_PRad\eNVM\Debug/../drivers/mss_uart/mss_uart.c:1742 (discriminator 3)
            for(i = 0u; i < fill_size; ++i)
20000dce:	697b      	ldr	r3, [r7, #20]
20000dd0:	3301      	adds	r3, #1
20000dd2:	617b      	str	r3, [r7, #20]
C:\Microchip\Libero_SoC_v2024.2\Designer\bin\projects\SMF2000-M3_ProjectRad\SC2021_Workspace_PRad\eNVM\Debug/../drivers/mss_uart/mss_uart.c:1742 (discriminator 1)
20000dd4:	697a      	ldr	r2, [r7, #20]
20000dd6:	693b      	ldr	r3, [r7, #16]
20000dd8:	429a      	cmp	r2, r3
20000dda:	d3ea      	bcc.n	20000db2 <default_tx_handler+0x8e>
C:\Microchip\Libero_SoC_v2024.2\Designer\bin\projects\SMF2000-M3_ProjectRad\SC2021_Workspace_PRad\eNVM\Debug/../drivers/mss_uart/mss_uart.c:1751
            }
        }

        /* Flag Tx as complete if all data has been pushed into the Tx FIFO. */
        if(this_uart->tx_idx == this_uart->tx_buff_size)
20000ddc:	687b      	ldr	r3, [r7, #4]
20000dde:	699a      	ldr	r2, [r3, #24]
20000de0:	687b      	ldr	r3, [r7, #4]
20000de2:	695b      	ldr	r3, [r3, #20]
20000de4:	429a      	cmp	r2, r3
20000de6:	d109      	bne.n	20000dfc <default_tx_handler+0xd8>
C:\Microchip\Libero_SoC_v2024.2\Designer\bin\projects\SMF2000-M3_ProjectRad\SC2021_Workspace_PRad\eNVM\Debug/../drivers/mss_uart/mss_uart.c:1753
        {
            this_uart->tx_buff_size = TX_COMPLETE;
20000de8:	687b      	ldr	r3, [r7, #4]
20000dea:	2200      	movs	r2, #0
20000dec:	615a      	str	r2, [r3, #20]
C:\Microchip\Libero_SoC_v2024.2\Designer\bin\projects\SMF2000-M3_ProjectRad\SC2021_Workspace_PRad\eNVM\Debug/../drivers/mss_uart/mss_uart.c:1755
            /* disables TX interrupt */
            clear_bit_reg8(&this_uart->hw_reg->IER,ETBEI);
20000dee:	687b      	ldr	r3, [r7, #4]
20000df0:	681b      	ldr	r3, [r3, #0]
20000df2:	3304      	adds	r3, #4
20000df4:	2101      	movs	r1, #1
20000df6:	4618      	mov	r0, r3
20000df8:	f7ff fbb1 	bl	2000055e <clear_bit_reg8>
C:\Microchip\Libero_SoC_v2024.2\Designer\bin\projects\SMF2000-M3_ProjectRad\SC2021_Workspace_PRad\eNVM\Debug/../drivers/mss_uart/mss_uart.c:1758
        }
    }
}
20000dfc:	bf00      	nop
20000dfe:	3718      	adds	r7, #24
20000e00:	46bd      	mov	sp, r7
20000e02:	bd80      	pop	{r7, pc}
20000e04:	2000942c 	.word	0x2000942c
20000e08:	200093ec 	.word	0x200093ec

20000e0c <ComBlk_IRQHandler>:
ComBlk_IRQHandler():
C:\Microchip\Libero_SoC_v2024.2\Designer\bin\projects\SMF2000-M3_ProjectRad\SC2021_Workspace_PRad\eNVM\Debug/../drivers/mss_sys_services/mss_comblk.c:360

/*==============================================================================
 * COMBLK interrupt handler.
 */
void ComBlk_IRQHandler(void)
{
20000e0c:	b580      	push	{r7, lr}
20000e0e:	b082      	sub	sp, #8
20000e10:	af00      	add	r7, sp, #0
C:\Microchip\Libero_SoC_v2024.2\Designer\bin\projects\SMF2000-M3_ProjectRad\SC2021_Workspace_PRad\eNVM\Debug/../drivers/mss_sys_services/mss_comblk.c:365
    uint8_t status;
    uint8_t tx_okay;
    uint8_t rcv_okay;
    
    status = (uint8_t)COMBLK->STATUS;
20000e12:	4b0f      	ldr	r3, [pc, #60]	; (20000e50 <ComBlk_IRQHandler+0x44>)
20000e14:	685b      	ldr	r3, [r3, #4]
20000e16:	71fb      	strb	r3, [r7, #7]
C:\Microchip\Libero_SoC_v2024.2\Designer\bin\projects\SMF2000-M3_ProjectRad\SC2021_Workspace_PRad\eNVM\Debug/../drivers/mss_sys_services/mss_comblk.c:368
    
    /* Mask off interrupt that are not enabled.*/
    status &= COMBLK->INT_ENABLE;
20000e18:	4b0d      	ldr	r3, [pc, #52]	; (20000e50 <ComBlk_IRQHandler+0x44>)
20000e1a:	689b      	ldr	r3, [r3, #8]
20000e1c:	b2da      	uxtb	r2, r3
20000e1e:	79fb      	ldrb	r3, [r7, #7]
20000e20:	4013      	ands	r3, r2
20000e22:	71fb      	strb	r3, [r7, #7]
C:\Microchip\Libero_SoC_v2024.2\Designer\bin\projects\SMF2000-M3_ProjectRad\SC2021_Workspace_PRad\eNVM\Debug/../drivers/mss_sys_services/mss_comblk.c:370
    
    rcv_okay = status & RCVOKAY_MASK;
20000e24:	79fb      	ldrb	r3, [r7, #7]
20000e26:	f003 0302 	and.w	r3, r3, #2
20000e2a:	71bb      	strb	r3, [r7, #6]
C:\Microchip\Libero_SoC_v2024.2\Designer\bin\projects\SMF2000-M3_ProjectRad\SC2021_Workspace_PRad\eNVM\Debug/../drivers/mss_sys_services/mss_comblk.c:372
    
    if(rcv_okay)
20000e2c:	79bb      	ldrb	r3, [r7, #6]
20000e2e:	2b00      	cmp	r3, #0
20000e30:	d001      	beq.n	20000e36 <ComBlk_IRQHandler+0x2a>
C:\Microchip\Libero_SoC_v2024.2\Designer\bin\projects\SMF2000-M3_ProjectRad\SC2021_Workspace_PRad\eNVM\Debug/../drivers/mss_sys_services/mss_comblk.c:374
    {
        handle_rx_okay_irq();
20000e32:	f000 f8e7 	bl	20001004 <handle_rx_okay_irq>
C:\Microchip\Libero_SoC_v2024.2\Designer\bin\projects\SMF2000-M3_ProjectRad\SC2021_Workspace_PRad\eNVM\Debug/../drivers/mss_sys_services/mss_comblk.c:377
    }
        
    tx_okay = status & TXTOKAY_MASK;
20000e36:	79fb      	ldrb	r3, [r7, #7]
20000e38:	f003 0301 	and.w	r3, r3, #1
20000e3c:	717b      	strb	r3, [r7, #5]
C:\Microchip\Libero_SoC_v2024.2\Designer\bin\projects\SMF2000-M3_ProjectRad\SC2021_Workspace_PRad\eNVM\Debug/../drivers/mss_sys_services/mss_comblk.c:378
    if(tx_okay)
20000e3e:	797b      	ldrb	r3, [r7, #5]
20000e40:	2b00      	cmp	r3, #0
20000e42:	d001      	beq.n	20000e48 <ComBlk_IRQHandler+0x3c>
C:\Microchip\Libero_SoC_v2024.2\Designer\bin\projects\SMF2000-M3_ProjectRad\SC2021_Workspace_PRad\eNVM\Debug/../drivers/mss_sys_services/mss_comblk.c:380
    {
        handle_tx_okay_irq();
20000e44:	f000 f806 	bl	20000e54 <handle_tx_okay_irq>
C:\Microchip\Libero_SoC_v2024.2\Designer\bin\projects\SMF2000-M3_ProjectRad\SC2021_Workspace_PRad\eNVM\Debug/../drivers/mss_sys_services/mss_comblk.c:382
    }
}
20000e48:	bf00      	nop
20000e4a:	3708      	adds	r7, #8
20000e4c:	46bd      	mov	sp, r7
20000e4e:	bd80      	pop	{r7, pc}
20000e50:	40016000 	.word	0x40016000

20000e54 <handle_tx_okay_irq>:
handle_tx_okay_irq():
C:\Microchip\Libero_SoC_v2024.2\Designer\bin\projects\SMF2000-M3_ProjectRad\SC2021_Workspace_PRad\eNVM\Debug/../drivers/mss_sys_services/mss_comblk.c:388

/*==============================================================================
 *
 */
static void handle_tx_okay_irq(void)
{
20000e54:	b580      	push	{r7, lr}
20000e56:	b084      	sub	sp, #16
20000e58:	af00      	add	r7, sp, #0
C:\Microchip\Libero_SoC_v2024.2\Designer\bin\projects\SMF2000-M3_ProjectRad\SC2021_Workspace_PRad\eNVM\Debug/../drivers/mss_sys_services/mss_comblk.c:389
    switch(g_comblk_state)
20000e5a:	4b63      	ldr	r3, [pc, #396]	; (20000fe8 <handle_tx_okay_irq+0x194>)
20000e5c:	781b      	ldrb	r3, [r3, #0]
20000e5e:	2b05      	cmp	r3, #5
20000e60:	d06d      	beq.n	20000f3e <handle_tx_okay_irq+0xea>
20000e62:	2b05      	cmp	r3, #5
20000e64:	f300 80af 	bgt.w	20000fc6 <handle_tx_okay_irq+0x172>
20000e68:	2b01      	cmp	r3, #1
20000e6a:	d002      	beq.n	20000e72 <handle_tx_okay_irq+0x1e>
20000e6c:	2b02      	cmp	r3, #2
20000e6e:	d039      	beq.n	20000ee4 <handle_tx_okay_irq+0x90>
20000e70:	e0a9      	b.n	20000fc6 <handle_tx_okay_irq+0x172>
C:\Microchip\Libero_SoC_v2024.2\Designer\bin\projects\SMF2000-M3_ProjectRad\SC2021_Workspace_PRad\eNVM\Debug/../drivers/mss_sys_services/mss_comblk.c:396
        /*----------------------------------------------------------------------
         * The TX_OKAY interrupt should only be enabled for states COMBLK_TX_CMD
         * and COMBLK_TX_DATA.
         */
        case COMBLK_TX_CMD:
            if(g_comblk_cmd_size > 0u)
20000e72:	4b5e      	ldr	r3, [pc, #376]	; (20000fec <handle_tx_okay_irq+0x198>)
20000e74:	881b      	ldrh	r3, [r3, #0]
20000e76:	b29b      	uxth	r3, r3
20000e78:	2b00      	cmp	r3, #0
20000e7a:	d02f      	beq.n	20000edc <handle_tx_okay_irq+0x88>
C:\Microchip\Libero_SoC_v2024.2\Designer\bin\projects\SMF2000-M3_ProjectRad\SC2021_Workspace_PRad\eNVM\Debug/../drivers/mss_sys_services/mss_comblk.c:399
            {
                uint32_t size_sent;
                size_sent = fill_tx_fifo(g_comblk_p_cmd, g_comblk_cmd_size);
20000e7c:	4b5c      	ldr	r3, [pc, #368]	; (20000ff0 <handle_tx_okay_irq+0x19c>)
20000e7e:	681b      	ldr	r3, [r3, #0]
20000e80:	4a5a      	ldr	r2, [pc, #360]	; (20000fec <handle_tx_okay_irq+0x198>)
20000e82:	8812      	ldrh	r2, [r2, #0]
20000e84:	b292      	uxth	r2, r2
20000e86:	4611      	mov	r1, r2
20000e88:	4618      	mov	r0, r3
20000e8a:	f000 fa09 	bl	200012a0 <fill_tx_fifo>
20000e8e:	6078      	str	r0, [r7, #4]
C:\Microchip\Libero_SoC_v2024.2\Designer\bin\projects\SMF2000-M3_ProjectRad\SC2021_Workspace_PRad\eNVM\Debug/../drivers/mss_sys_services/mss_comblk.c:400
                if(size_sent < g_comblk_cmd_size)
20000e90:	4b56      	ldr	r3, [pc, #344]	; (20000fec <handle_tx_okay_irq+0x198>)
20000e92:	881b      	ldrh	r3, [r3, #0]
20000e94:	b29b      	uxth	r3, r3
20000e96:	461a      	mov	r2, r3
20000e98:	687b      	ldr	r3, [r7, #4]
20000e9a:	4293      	cmp	r3, r2
20000e9c:	d20f      	bcs.n	20000ebe <handle_tx_okay_irq+0x6a>
C:\Microchip\Libero_SoC_v2024.2\Designer\bin\projects\SMF2000-M3_ProjectRad\SC2021_Workspace_PRad\eNVM\Debug/../drivers/mss_sys_services/mss_comblk.c:402
                {
                    g_comblk_cmd_size = g_comblk_cmd_size - (uint16_t)size_sent;
20000e9e:	4b53      	ldr	r3, [pc, #332]	; (20000fec <handle_tx_okay_irq+0x198>)
20000ea0:	881b      	ldrh	r3, [r3, #0]
20000ea2:	b29a      	uxth	r2, r3
20000ea4:	687b      	ldr	r3, [r7, #4]
20000ea6:	b29b      	uxth	r3, r3
20000ea8:	1ad3      	subs	r3, r2, r3
20000eaa:	b29a      	uxth	r2, r3
20000eac:	4b4f      	ldr	r3, [pc, #316]	; (20000fec <handle_tx_okay_irq+0x198>)
20000eae:	801a      	strh	r2, [r3, #0]
C:\Microchip\Libero_SoC_v2024.2\Designer\bin\projects\SMF2000-M3_ProjectRad\SC2021_Workspace_PRad\eNVM\Debug/../drivers/mss_sys_services/mss_comblk.c:403
                    g_comblk_p_cmd = &g_comblk_p_cmd[size_sent];
20000eb0:	4b4f      	ldr	r3, [pc, #316]	; (20000ff0 <handle_tx_okay_irq+0x19c>)
20000eb2:	681a      	ldr	r2, [r3, #0]
20000eb4:	687b      	ldr	r3, [r7, #4]
20000eb6:	4413      	add	r3, r2
20000eb8:	4a4d      	ldr	r2, [pc, #308]	; (20000ff0 <handle_tx_okay_irq+0x19c>)
20000eba:	6013      	str	r3, [r2, #0]
C:\Microchip\Libero_SoC_v2024.2\Designer\bin\projects\SMF2000-M3_ProjectRad\SC2021_Workspace_PRad\eNVM\Debug/../drivers/mss_sys_services/mss_comblk.c:427
                 * or corrupted memory.
                 */
                ASSERT(0);
                abort_current_cmd();
            }
        break;
20000ebc:	e090      	b.n	20000fe0 <handle_tx_okay_irq+0x18c>
C:\Microchip\Libero_SoC_v2024.2\Designer\bin\projects\SMF2000-M3_ProjectRad\SC2021_Workspace_PRad\eNVM\Debug/../drivers/mss_sys_services/mss_comblk.c:407
                    g_comblk_cmd_size = 0u;
20000ebe:	4b4b      	ldr	r3, [pc, #300]	; (20000fec <handle_tx_okay_irq+0x198>)
20000ec0:	2200      	movs	r2, #0
20000ec2:	801a      	strh	r2, [r3, #0]
C:\Microchip\Libero_SoC_v2024.2\Designer\bin\projects\SMF2000-M3_ProjectRad\SC2021_Workspace_PRad\eNVM\Debug/../drivers/mss_sys_services/mss_comblk.c:408
                    if(g_comblk_data_size > 0u)
20000ec4:	4b4b      	ldr	r3, [pc, #300]	; (20000ff4 <handle_tx_okay_irq+0x1a0>)
20000ec6:	681b      	ldr	r3, [r3, #0]
20000ec8:	2b00      	cmp	r3, #0
20000eca:	d003      	beq.n	20000ed4 <handle_tx_okay_irq+0x80>
C:\Microchip\Libero_SoC_v2024.2\Designer\bin\projects\SMF2000-M3_ProjectRad\SC2021_Workspace_PRad\eNVM\Debug/../drivers/mss_sys_services/mss_comblk.c:410
                        g_comblk_state = COMBLK_TX_DATA;
20000ecc:	4b46      	ldr	r3, [pc, #280]	; (20000fe8 <handle_tx_okay_irq+0x194>)
20000ece:	2202      	movs	r2, #2
20000ed0:	701a      	strb	r2, [r3, #0]
C:\Microchip\Libero_SoC_v2024.2\Designer\bin\projects\SMF2000-M3_ProjectRad\SC2021_Workspace_PRad\eNVM\Debug/../drivers/mss_sys_services/mss_comblk.c:427
        break;
20000ed2:	e085      	b.n	20000fe0 <handle_tx_okay_irq+0x18c>
C:\Microchip\Libero_SoC_v2024.2\Designer\bin\projects\SMF2000-M3_ProjectRad\SC2021_Workspace_PRad\eNVM\Debug/../drivers/mss_sys_services/mss_comblk.c:414
                        g_comblk_state = COMBLK_WAIT_RESPONSE;
20000ed4:	4b44      	ldr	r3, [pc, #272]	; (20000fe8 <handle_tx_okay_irq+0x194>)
20000ed6:	2203      	movs	r2, #3
20000ed8:	701a      	strb	r2, [r3, #0]
C:\Microchip\Libero_SoC_v2024.2\Designer\bin\projects\SMF2000-M3_ProjectRad\SC2021_Workspace_PRad\eNVM\Debug/../drivers/mss_sys_services/mss_comblk.c:427
        break;
20000eda:	e081      	b.n	20000fe0 <handle_tx_okay_irq+0x18c>
C:\Microchip\Libero_SoC_v2024.2\Designer\bin\projects\SMF2000-M3_ProjectRad\SC2021_Workspace_PRad\eNVM\Debug/../drivers/mss_sys_services/mss_comblk.c:424 (discriminator 1)
                ASSERT(0);
20000edc:	be00      	bkpt	0x0000
C:\Microchip\Libero_SoC_v2024.2\Designer\bin\projects\SMF2000-M3_ProjectRad\SC2021_Workspace_PRad\eNVM\Debug/../drivers/mss_sys_services/mss_comblk.c:425 (discriminator 1)
                abort_current_cmd();
20000ede:	f000 f9b9 	bl	20001254 <abort_current_cmd>
C:\Microchip\Libero_SoC_v2024.2\Designer\bin\projects\SMF2000-M3_ProjectRad\SC2021_Workspace_PRad\eNVM\Debug/../drivers/mss_sys_services/mss_comblk.c:427 (discriminator 1)
        break;
20000ee2:	e07d      	b.n	20000fe0 <handle_tx_okay_irq+0x18c>
C:\Microchip\Libero_SoC_v2024.2\Designer\bin\projects\SMF2000-M3_ProjectRad\SC2021_Workspace_PRad\eNVM\Debug/../drivers/mss_sys_services/mss_comblk.c:430
            
        case COMBLK_TX_DATA:
            if(g_comblk_data_size > 0u)
20000ee4:	4b43      	ldr	r3, [pc, #268]	; (20000ff4 <handle_tx_okay_irq+0x1a0>)
20000ee6:	681b      	ldr	r3, [r3, #0]
20000ee8:	2b00      	cmp	r3, #0
20000eea:	d024      	beq.n	20000f36 <handle_tx_okay_irq+0xe2>
C:\Microchip\Libero_SoC_v2024.2\Designer\bin\projects\SMF2000-M3_ProjectRad\SC2021_Workspace_PRad\eNVM\Debug/../drivers/mss_sys_services/mss_comblk.c:433
            {
                uint32_t size_sent;
                size_sent = fill_tx_fifo(g_comblk_p_data, g_comblk_data_size);
20000eec:	4b42      	ldr	r3, [pc, #264]	; (20000ff8 <handle_tx_okay_irq+0x1a4>)
20000eee:	681b      	ldr	r3, [r3, #0]
20000ef0:	4a40      	ldr	r2, [pc, #256]	; (20000ff4 <handle_tx_okay_irq+0x1a0>)
20000ef2:	6812      	ldr	r2, [r2, #0]
20000ef4:	4611      	mov	r1, r2
20000ef6:	4618      	mov	r0, r3
20000ef8:	f000 f9d2 	bl	200012a0 <fill_tx_fifo>
20000efc:	60b8      	str	r0, [r7, #8]
C:\Microchip\Libero_SoC_v2024.2\Designer\bin\projects\SMF2000-M3_ProjectRad\SC2021_Workspace_PRad\eNVM\Debug/../drivers/mss_sys_services/mss_comblk.c:434
                if(size_sent < g_comblk_data_size)
20000efe:	4b3d      	ldr	r3, [pc, #244]	; (20000ff4 <handle_tx_okay_irq+0x1a0>)
20000f00:	681b      	ldr	r3, [r3, #0]
20000f02:	68ba      	ldr	r2, [r7, #8]
20000f04:	429a      	cmp	r2, r3
20000f06:	d20c      	bcs.n	20000f22 <handle_tx_okay_irq+0xce>
C:\Microchip\Libero_SoC_v2024.2\Designer\bin\projects\SMF2000-M3_ProjectRad\SC2021_Workspace_PRad\eNVM\Debug/../drivers/mss_sys_services/mss_comblk.c:436
                {
                    g_comblk_data_size = g_comblk_data_size - size_sent;
20000f08:	4b3a      	ldr	r3, [pc, #232]	; (20000ff4 <handle_tx_okay_irq+0x1a0>)
20000f0a:	681a      	ldr	r2, [r3, #0]
20000f0c:	68bb      	ldr	r3, [r7, #8]
20000f0e:	1ad3      	subs	r3, r2, r3
20000f10:	4a38      	ldr	r2, [pc, #224]	; (20000ff4 <handle_tx_okay_irq+0x1a0>)
20000f12:	6013      	str	r3, [r2, #0]
C:\Microchip\Libero_SoC_v2024.2\Designer\bin\projects\SMF2000-M3_ProjectRad\SC2021_Workspace_PRad\eNVM\Debug/../drivers/mss_sys_services/mss_comblk.c:437
                    g_comblk_p_data = &g_comblk_p_data[size_sent];
20000f14:	4b38      	ldr	r3, [pc, #224]	; (20000ff8 <handle_tx_okay_irq+0x1a4>)
20000f16:	681a      	ldr	r2, [r3, #0]
20000f18:	68bb      	ldr	r3, [r7, #8]
20000f1a:	4413      	add	r3, r2
20000f1c:	4a36      	ldr	r2, [pc, #216]	; (20000ff8 <handle_tx_okay_irq+0x1a4>)
20000f1e:	6013      	str	r3, [r2, #0]
C:\Microchip\Libero_SoC_v2024.2\Designer\bin\projects\SMF2000-M3_ProjectRad\SC2021_Workspace_PRad\eNVM\Debug/../drivers/mss_sys_services/mss_comblk.c:454
                 * or corrupted memory.
                 */
                ASSERT(0);
                abort_current_cmd();
            }
        break;
20000f20:	e05e      	b.n	20000fe0 <handle_tx_okay_irq+0x18c>
C:\Microchip\Libero_SoC_v2024.2\Designer\bin\projects\SMF2000-M3_ProjectRad\SC2021_Workspace_PRad\eNVM\Debug/../drivers/mss_sys_services/mss_comblk.c:441
                    COMBLK->INT_ENABLE &= ~TXTOKAY_MASK;
20000f22:	4b36      	ldr	r3, [pc, #216]	; (20000ffc <handle_tx_okay_irq+0x1a8>)
20000f24:	689b      	ldr	r3, [r3, #8]
20000f26:	4a35      	ldr	r2, [pc, #212]	; (20000ffc <handle_tx_okay_irq+0x1a8>)
20000f28:	f023 0301 	bic.w	r3, r3, #1
20000f2c:	6093      	str	r3, [r2, #8]
C:\Microchip\Libero_SoC_v2024.2\Designer\bin\projects\SMF2000-M3_ProjectRad\SC2021_Workspace_PRad\eNVM\Debug/../drivers/mss_sys_services/mss_comblk.c:442
                    g_comblk_state = COMBLK_WAIT_RESPONSE;
20000f2e:	4b2e      	ldr	r3, [pc, #184]	; (20000fe8 <handle_tx_okay_irq+0x194>)
20000f30:	2203      	movs	r2, #3
20000f32:	701a      	strb	r2, [r3, #0]
C:\Microchip\Libero_SoC_v2024.2\Designer\bin\projects\SMF2000-M3_ProjectRad\SC2021_Workspace_PRad\eNVM\Debug/../drivers/mss_sys_services/mss_comblk.c:454
        break;
20000f34:	e054      	b.n	20000fe0 <handle_tx_okay_irq+0x18c>
C:\Microchip\Libero_SoC_v2024.2\Designer\bin\projects\SMF2000-M3_ProjectRad\SC2021_Workspace_PRad\eNVM\Debug/../drivers/mss_sys_services/mss_comblk.c:451 (discriminator 1)
                ASSERT(0);
20000f36:	be00      	bkpt	0x0000
C:\Microchip\Libero_SoC_v2024.2\Designer\bin\projects\SMF2000-M3_ProjectRad\SC2021_Workspace_PRad\eNVM\Debug/../drivers/mss_sys_services/mss_comblk.c:452 (discriminator 1)
                abort_current_cmd();
20000f38:	f000 f98c 	bl	20001254 <abort_current_cmd>
C:\Microchip\Libero_SoC_v2024.2\Designer\bin\projects\SMF2000-M3_ProjectRad\SC2021_Workspace_PRad\eNVM\Debug/../drivers/mss_sys_services/mss_comblk.c:454 (discriminator 1)
        break;
20000f3c:	e050      	b.n	20000fe0 <handle_tx_okay_irq+0x18c>
C:\Microchip\Libero_SoC_v2024.2\Designer\bin\projects\SMF2000-M3_ProjectRad\SC2021_Workspace_PRad\eNVM\Debug/../drivers/mss_sys_services/mss_comblk.c:460
           
        case COMBLK_TX_PAGED_DATA:
            /*
             * Read a page of data if required.
             */
            if(0u == g_comblk_data_size)
20000f3e:	4b2d      	ldr	r3, [pc, #180]	; (20000ff4 <handle_tx_okay_irq+0x1a0>)
20000f40:	681b      	ldr	r3, [r3, #0]
20000f42:	2b00      	cmp	r3, #0
20000f44:	d11b      	bne.n	20000f7e <handle_tx_okay_irq+0x12a>
C:\Microchip\Libero_SoC_v2024.2\Designer\bin\projects\SMF2000-M3_ProjectRad\SC2021_Workspace_PRad\eNVM\Debug/../drivers/mss_sys_services/mss_comblk.c:462
            {
                if(g_comblk_page_handler != 0)
20000f46:	4b2e      	ldr	r3, [pc, #184]	; (20001000 <handle_tx_okay_irq+0x1ac>)
20000f48:	681b      	ldr	r3, [r3, #0]
20000f4a:	2b00      	cmp	r3, #0
20000f4c:	d014      	beq.n	20000f78 <handle_tx_okay_irq+0x124>
C:\Microchip\Libero_SoC_v2024.2\Designer\bin\projects\SMF2000-M3_ProjectRad\SC2021_Workspace_PRad\eNVM\Debug/../drivers/mss_sys_services/mss_comblk.c:464
                {
                    g_comblk_data_size = g_comblk_page_handler(&g_comblk_p_data);
20000f4e:	4b2c      	ldr	r3, [pc, #176]	; (20001000 <handle_tx_okay_irq+0x1ac>)
20000f50:	681b      	ldr	r3, [r3, #0]
20000f52:	4829      	ldr	r0, [pc, #164]	; (20000ff8 <handle_tx_okay_irq+0x1a4>)
20000f54:	4798      	blx	r3
20000f56:	4603      	mov	r3, r0
20000f58:	4a26      	ldr	r2, [pc, #152]	; (20000ff4 <handle_tx_okay_irq+0x1a0>)
20000f5a:	6013      	str	r3, [r2, #0]
C:\Microchip\Libero_SoC_v2024.2\Designer\bin\projects\SMF2000-M3_ProjectRad\SC2021_Workspace_PRad\eNVM\Debug/../drivers/mss_sys_services/mss_comblk.c:465
                    if(0u == g_comblk_data_size)
20000f5c:	4b25      	ldr	r3, [pc, #148]	; (20000ff4 <handle_tx_okay_irq+0x1a0>)
20000f5e:	681b      	ldr	r3, [r3, #0]
20000f60:	2b00      	cmp	r3, #0
20000f62:	d10c      	bne.n	20000f7e <handle_tx_okay_irq+0x12a>
C:\Microchip\Libero_SoC_v2024.2\Designer\bin\projects\SMF2000-M3_ProjectRad\SC2021_Workspace_PRad\eNVM\Debug/../drivers/mss_sys_services/mss_comblk.c:467
                    {
                        COMBLK->INT_ENABLE &= ~TXTOKAY_MASK;
20000f64:	4b25      	ldr	r3, [pc, #148]	; (20000ffc <handle_tx_okay_irq+0x1a8>)
20000f66:	689b      	ldr	r3, [r3, #8]
20000f68:	4a24      	ldr	r2, [pc, #144]	; (20000ffc <handle_tx_okay_irq+0x1a8>)
20000f6a:	f023 0301 	bic.w	r3, r3, #1
20000f6e:	6093      	str	r3, [r2, #8]
C:\Microchip\Libero_SoC_v2024.2\Designer\bin\projects\SMF2000-M3_ProjectRad\SC2021_Workspace_PRad\eNVM\Debug/../drivers/mss_sys_services/mss_comblk.c:468
                        g_comblk_state = COMBLK_WAIT_RESPONSE;
20000f70:	4b1d      	ldr	r3, [pc, #116]	; (20000fe8 <handle_tx_okay_irq+0x194>)
20000f72:	2203      	movs	r2, #3
20000f74:	701a      	strb	r2, [r3, #0]
20000f76:	e002      	b.n	20000f7e <handle_tx_okay_irq+0x12a>
C:\Microchip\Libero_SoC_v2024.2\Designer\bin\projects\SMF2000-M3_ProjectRad\SC2021_Workspace_PRad\eNVM\Debug/../drivers/mss_sys_services/mss_comblk.c:473 (discriminator 1)
                    }
                }
                else
                {
                    ASSERT(0);
20000f78:	be00      	bkpt	0x0000
C:\Microchip\Libero_SoC_v2024.2\Designer\bin\projects\SMF2000-M3_ProjectRad\SC2021_Workspace_PRad\eNVM\Debug/../drivers/mss_sys_services/mss_comblk.c:474 (discriminator 1)
                    abort_current_cmd();
20000f7a:	f000 f96b 	bl	20001254 <abort_current_cmd>
C:\Microchip\Libero_SoC_v2024.2\Designer\bin\projects\SMF2000-M3_ProjectRad\SC2021_Workspace_PRad\eNVM\Debug/../drivers/mss_sys_services/mss_comblk.c:483
            /*
             * Transmit the page data or move to COMBLK_WAIT_RESPONSE state if
             * no further page data could be obtained by the call to the page
             * handler above.
             */
            if(0u == g_comblk_data_size)
20000f7e:	4b1d      	ldr	r3, [pc, #116]	; (20000ff4 <handle_tx_okay_irq+0x1a0>)
20000f80:	681b      	ldr	r3, [r3, #0]
20000f82:	2b00      	cmp	r3, #0
20000f84:	d109      	bne.n	20000f9a <handle_tx_okay_irq+0x146>
C:\Microchip\Libero_SoC_v2024.2\Designer\bin\projects\SMF2000-M3_ProjectRad\SC2021_Workspace_PRad\eNVM\Debug/../drivers/mss_sys_services/mss_comblk.c:485
            {
                COMBLK->INT_ENABLE &= ~TXTOKAY_MASK;
20000f86:	4b1d      	ldr	r3, [pc, #116]	; (20000ffc <handle_tx_okay_irq+0x1a8>)
20000f88:	689b      	ldr	r3, [r3, #8]
20000f8a:	4a1c      	ldr	r2, [pc, #112]	; (20000ffc <handle_tx_okay_irq+0x1a8>)
20000f8c:	f023 0301 	bic.w	r3, r3, #1
20000f90:	6093      	str	r3, [r2, #8]
C:\Microchip\Libero_SoC_v2024.2\Designer\bin\projects\SMF2000-M3_ProjectRad\SC2021_Workspace_PRad\eNVM\Debug/../drivers/mss_sys_services/mss_comblk.c:486
                g_comblk_state = COMBLK_WAIT_RESPONSE;
20000f92:	4b15      	ldr	r3, [pc, #84]	; (20000fe8 <handle_tx_okay_irq+0x194>)
20000f94:	2203      	movs	r2, #3
20000f96:	701a      	strb	r2, [r3, #0]
C:\Microchip\Libero_SoC_v2024.2\Designer\bin\projects\SMF2000-M3_ProjectRad\SC2021_Workspace_PRad\eNVM\Debug/../drivers/mss_sys_services/mss_comblk.c:495
                uint32_t size_sent;
                size_sent = fill_tx_fifo(g_comblk_p_data, g_comblk_data_size);
                g_comblk_data_size = g_comblk_data_size - size_sent;
                g_comblk_p_data = &g_comblk_p_data[size_sent];
            }
        break;
20000f98:	e022      	b.n	20000fe0 <handle_tx_okay_irq+0x18c>
C:\Microchip\Libero_SoC_v2024.2\Designer\bin\projects\SMF2000-M3_ProjectRad\SC2021_Workspace_PRad\eNVM\Debug/../drivers/mss_sys_services/mss_comblk.c:491
                size_sent = fill_tx_fifo(g_comblk_p_data, g_comblk_data_size);
20000f9a:	4b17      	ldr	r3, [pc, #92]	; (20000ff8 <handle_tx_okay_irq+0x1a4>)
20000f9c:	681b      	ldr	r3, [r3, #0]
20000f9e:	4a15      	ldr	r2, [pc, #84]	; (20000ff4 <handle_tx_okay_irq+0x1a0>)
20000fa0:	6812      	ldr	r2, [r2, #0]
20000fa2:	4611      	mov	r1, r2
20000fa4:	4618      	mov	r0, r3
20000fa6:	f000 f97b 	bl	200012a0 <fill_tx_fifo>
20000faa:	60f8      	str	r0, [r7, #12]
C:\Microchip\Libero_SoC_v2024.2\Designer\bin\projects\SMF2000-M3_ProjectRad\SC2021_Workspace_PRad\eNVM\Debug/../drivers/mss_sys_services/mss_comblk.c:492
                g_comblk_data_size = g_comblk_data_size - size_sent;
20000fac:	4b11      	ldr	r3, [pc, #68]	; (20000ff4 <handle_tx_okay_irq+0x1a0>)
20000fae:	681a      	ldr	r2, [r3, #0]
20000fb0:	68fb      	ldr	r3, [r7, #12]
20000fb2:	1ad3      	subs	r3, r2, r3
20000fb4:	4a0f      	ldr	r2, [pc, #60]	; (20000ff4 <handle_tx_okay_irq+0x1a0>)
20000fb6:	6013      	str	r3, [r2, #0]
C:\Microchip\Libero_SoC_v2024.2\Designer\bin\projects\SMF2000-M3_ProjectRad\SC2021_Workspace_PRad\eNVM\Debug/../drivers/mss_sys_services/mss_comblk.c:493
                g_comblk_p_data = &g_comblk_p_data[size_sent];
20000fb8:	4b0f      	ldr	r3, [pc, #60]	; (20000ff8 <handle_tx_okay_irq+0x1a4>)
20000fba:	681a      	ldr	r2, [r3, #0]
20000fbc:	68fb      	ldr	r3, [r7, #12]
20000fbe:	4413      	add	r3, r2
20000fc0:	4a0d      	ldr	r2, [pc, #52]	; (20000ff8 <handle_tx_okay_irq+0x1a4>)
20000fc2:	6013      	str	r3, [r2, #0]
C:\Microchip\Libero_SoC_v2024.2\Designer\bin\projects\SMF2000-M3_ProjectRad\SC2021_Workspace_PRad\eNVM\Debug/../drivers/mss_sys_services/mss_comblk.c:495
        break;
20000fc4:	e00c      	b.n	20000fe0 <handle_tx_okay_irq+0x18c>
C:\Microchip\Libero_SoC_v2024.2\Designer\bin\projects\SMF2000-M3_ProjectRad\SC2021_Workspace_PRad\eNVM\Debug/../drivers/mss_sys_services/mss_comblk.c:508
        case COMBLK_WAIT_RESPONSE:
            /* Fall through */
        case COMBLK_RX_RESPONSE:
            /* Fall through */
        default:
            COMBLK->INT_ENABLE &= ~TXTOKAY_MASK;
20000fc6:	4b0d      	ldr	r3, [pc, #52]	; (20000ffc <handle_tx_okay_irq+0x1a8>)
20000fc8:	689b      	ldr	r3, [r3, #8]
20000fca:	4a0c      	ldr	r2, [pc, #48]	; (20000ffc <handle_tx_okay_irq+0x1a8>)
20000fcc:	f023 0301 	bic.w	r3, r3, #1
20000fd0:	6093      	str	r3, [r2, #8]
C:\Microchip\Libero_SoC_v2024.2\Designer\bin\projects\SMF2000-M3_ProjectRad\SC2021_Workspace_PRad\eNVM\Debug/../drivers/mss_sys_services/mss_comblk.c:509
            complete_request(0u);
20000fd2:	2000      	movs	r0, #0
20000fd4:	f000 f91e 	bl	20001214 <complete_request>
C:\Microchip\Libero_SoC_v2024.2\Designer\bin\projects\SMF2000-M3_ProjectRad\SC2021_Workspace_PRad\eNVM\Debug/../drivers/mss_sys_services/mss_comblk.c:510
            g_comblk_state = COMBLK_IDLE;
20000fd8:	4b03      	ldr	r3, [pc, #12]	; (20000fe8 <handle_tx_okay_irq+0x194>)
20000fda:	2200      	movs	r2, #0
20000fdc:	701a      	strb	r2, [r3, #0]
C:\Microchip\Libero_SoC_v2024.2\Designer\bin\projects\SMF2000-M3_ProjectRad\SC2021_Workspace_PRad\eNVM\Debug/../drivers/mss_sys_services/mss_comblk.c:511
        break;
20000fde:	bf00      	nop
C:\Microchip\Libero_SoC_v2024.2\Designer\bin\projects\SMF2000-M3_ProjectRad\SC2021_Workspace_PRad\eNVM\Debug/../drivers/mss_sys_services/mss_comblk.c:513
    }
}
20000fe0:	bf00      	nop
20000fe2:	3710      	adds	r7, #16
20000fe4:	46bd      	mov	sp, r7
20000fe6:	bd80      	pop	{r7, pc}
20000fe8:	20009381 	.word	0x20009381
20000fec:	20009364 	.word	0x20009364
20000ff0:	20009360 	.word	0x20009360
20000ff4:	2000936c 	.word	0x2000936c
20000ff8:	20009368 	.word	0x20009368
20000ffc:	40016000 	.word	0x40016000
20001000:	2000937c 	.word	0x2000937c

20001004 <handle_rx_okay_irq>:
handle_rx_okay_irq():
C:\Microchip\Libero_SoC_v2024.2\Designer\bin\projects\SMF2000-M3_ProjectRad\SC2021_Workspace_PRad\eNVM\Debug/../drivers/mss_sys_services/mss_comblk.c:519

/*==============================================================================
 *
 */
static void handle_rx_okay_irq(void)
{
20001004:	b580      	push	{r7, lr}
20001006:	b084      	sub	sp, #16
20001008:	af00      	add	r7, sp, #0
C:\Microchip\Libero_SoC_v2024.2\Designer\bin\projects\SMF2000-M3_ProjectRad\SC2021_Workspace_PRad\eNVM\Debug/../drivers/mss_sys_services/mss_comblk.c:524
    uint16_t data16;
    uint16_t is_command;
    uint8_t data8;
    
    data16 = (uint16_t)COMBLK->DATA8;
2000100a:	4b7c      	ldr	r3, [pc, #496]	; (200011fc <handle_rx_okay_irq+0x1f8>)
2000100c:	691b      	ldr	r3, [r3, #16]
2000100e:	81fb      	strh	r3, [r7, #14]
C:\Microchip\Libero_SoC_v2024.2\Designer\bin\projects\SMF2000-M3_ProjectRad\SC2021_Workspace_PRad\eNVM\Debug/../drivers/mss_sys_services/mss_comblk.c:525
    is_command = data16 & DATA8_COMMAND_MASK;
20001010:	89fb      	ldrh	r3, [r7, #14]
20001012:	f423 43ff 	bic.w	r3, r3, #32640	; 0x7f80
20001016:	f023 037f 	bic.w	r3, r3, #127	; 0x7f
2000101a:	81bb      	strh	r3, [r7, #12]
C:\Microchip\Libero_SoC_v2024.2\Designer\bin\projects\SMF2000-M3_ProjectRad\SC2021_Workspace_PRad\eNVM\Debug/../drivers/mss_sys_services/mss_comblk.c:526
    data8 = (uint8_t)data16;
2000101c:	89fb      	ldrh	r3, [r7, #14]
2000101e:	72fb      	strb	r3, [r7, #11]
C:\Microchip\Libero_SoC_v2024.2\Designer\bin\projects\SMF2000-M3_ProjectRad\SC2021_Workspace_PRad\eNVM\Debug/../drivers/mss_sys_services/mss_comblk.c:528
            
    switch(g_comblk_state)
20001020:	4b77      	ldr	r3, [pc, #476]	; (20001200 <handle_rx_okay_irq+0x1fc>)
20001022:	781b      	ldrb	r3, [r3, #0]
20001024:	2b05      	cmp	r3, #5
20001026:	f200 80d6 	bhi.w	200011d6 <handle_rx_okay_irq+0x1d2>
2000102a:	a201      	add	r2, pc, #4	; (adr r2, 20001030 <handle_rx_okay_irq+0x2c>)
2000102c:	f852 f023 	ldr.w	pc, [r2, r3, lsl #2]
20001030:	20001049 	.word	0x20001049
20001034:	200011c3 	.word	0x200011c3
20001038:	200011c3 	.word	0x200011c3
2000103c:	200010a1 	.word	0x200010a1
20001040:	200010ef 	.word	0x200010ef
20001044:	20001197 	.word	0x20001197
C:\Microchip\Libero_SoC_v2024.2\Designer\bin\projects\SMF2000-M3_ProjectRad\SC2021_Workspace_PRad\eNVM\Debug/../drivers/mss_sys_services/mss_comblk.c:536
        * MSS_COMBLK_init() enables the RCV_OKAY interrupt for the COMBLK_IDLE
        * state to receive the asynchronous power-on-reset from the system
        * controller.
        */
        case COMBLK_IDLE:
            if(is_command)
20001048:	89bb      	ldrh	r3, [r7, #12]
2000104a:	2b00      	cmp	r3, #0
2000104c:	f000 80ca 	beq.w	200011e4 <handle_rx_okay_irq+0x1e0>
C:\Microchip\Libero_SoC_v2024.2\Designer\bin\projects\SMF2000-M3_ProjectRad\SC2021_Workspace_PRad\eNVM\Debug/../drivers/mss_sys_services/mss_comblk.c:538
            {
                if(data8 != POR_DIGEST_ERROR_OPCODE)
20001050:	7afb      	ldrb	r3, [r7, #11]
20001052:	2bf1      	cmp	r3, #241	; 0xf1
20001054:	d006      	beq.n	20001064 <handle_rx_okay_irq+0x60>
C:\Microchip\Libero_SoC_v2024.2\Designer\bin\projects\SMF2000-M3_ProjectRad\SC2021_Workspace_PRad\eNVM\Debug/../drivers/mss_sys_services/mss_comblk.c:541
                {
                    uint8_t rxed_opcode;
                    rxed_opcode = data8;
20001056:	7afb      	ldrb	r3, [r7, #11]
20001058:	717b      	strb	r3, [r7, #5]
C:\Microchip\Libero_SoC_v2024.2\Designer\bin\projects\SMF2000-M3_ProjectRad\SC2021_Workspace_PRad\eNVM\Debug/../drivers/mss_sys_services/mss_comblk.c:542
                    process_sys_ctrl_command(rxed_opcode);
2000105a:	797b      	ldrb	r3, [r7, #5]
2000105c:	4618      	mov	r0, r3
2000105e:	f000 f94f 	bl	20001300 <process_sys_ctrl_command>
C:\Microchip\Libero_SoC_v2024.2\Designer\bin\projects\SMF2000-M3_ProjectRad\SC2021_Workspace_PRad\eNVM\Debug/../drivers/mss_sys_services/mss_comblk.c:553
                    g_comblk_response_idx++;
                    g_comblk_p_response[g_comblk_response_idx] = 0x00u;                
                    g_comblk_state = COMBLK_RX_RESPONSE;
                }
            }
        break;
20001062:	e0bf      	b.n	200011e4 <handle_rx_okay_irq+0x1e0>
C:\Microchip\Libero_SoC_v2024.2\Designer\bin\projects\SMF2000-M3_ProjectRad\SC2021_Workspace_PRad\eNVM\Debug/../drivers/mss_sys_services/mss_comblk.c:546
                    g_comblk_response_idx = 0;
20001064:	4b67      	ldr	r3, [pc, #412]	; (20001204 <handle_rx_okay_irq+0x200>)
20001066:	2200      	movs	r2, #0
20001068:	801a      	strh	r2, [r3, #0]
C:\Microchip\Libero_SoC_v2024.2\Designer\bin\projects\SMF2000-M3_ProjectRad\SC2021_Workspace_PRad\eNVM\Debug/../drivers/mss_sys_services/mss_comblk.c:547
                    g_comblk_p_response[g_comblk_response_idx] = data8;
2000106a:	4b67      	ldr	r3, [pc, #412]	; (20001208 <handle_rx_okay_irq+0x204>)
2000106c:	681b      	ldr	r3, [r3, #0]
2000106e:	4a65      	ldr	r2, [pc, #404]	; (20001204 <handle_rx_okay_irq+0x200>)
20001070:	8812      	ldrh	r2, [r2, #0]
20001072:	b292      	uxth	r2, r2
20001074:	4413      	add	r3, r2
20001076:	7afa      	ldrb	r2, [r7, #11]
20001078:	701a      	strb	r2, [r3, #0]
C:\Microchip\Libero_SoC_v2024.2\Designer\bin\projects\SMF2000-M3_ProjectRad\SC2021_Workspace_PRad\eNVM\Debug/../drivers/mss_sys_services/mss_comblk.c:548
                    g_comblk_response_idx++;
2000107a:	4b62      	ldr	r3, [pc, #392]	; (20001204 <handle_rx_okay_irq+0x200>)
2000107c:	881b      	ldrh	r3, [r3, #0]
2000107e:	b29b      	uxth	r3, r3
20001080:	3301      	adds	r3, #1
20001082:	b29a      	uxth	r2, r3
20001084:	4b5f      	ldr	r3, [pc, #380]	; (20001204 <handle_rx_okay_irq+0x200>)
20001086:	801a      	strh	r2, [r3, #0]
C:\Microchip\Libero_SoC_v2024.2\Designer\bin\projects\SMF2000-M3_ProjectRad\SC2021_Workspace_PRad\eNVM\Debug/../drivers/mss_sys_services/mss_comblk.c:549
                    g_comblk_p_response[g_comblk_response_idx] = 0x00u;                
20001088:	4b5f      	ldr	r3, [pc, #380]	; (20001208 <handle_rx_okay_irq+0x204>)
2000108a:	681b      	ldr	r3, [r3, #0]
2000108c:	4a5d      	ldr	r2, [pc, #372]	; (20001204 <handle_rx_okay_irq+0x200>)
2000108e:	8812      	ldrh	r2, [r2, #0]
20001090:	b292      	uxth	r2, r2
20001092:	4413      	add	r3, r2
20001094:	2200      	movs	r2, #0
20001096:	701a      	strb	r2, [r3, #0]
C:\Microchip\Libero_SoC_v2024.2\Designer\bin\projects\SMF2000-M3_ProjectRad\SC2021_Workspace_PRad\eNVM\Debug/../drivers/mss_sys_services/mss_comblk.c:550
                    g_comblk_state = COMBLK_RX_RESPONSE;
20001098:	4b59      	ldr	r3, [pc, #356]	; (20001200 <handle_rx_okay_irq+0x1fc>)
2000109a:	2204      	movs	r2, #4
2000109c:	701a      	strb	r2, [r3, #0]
C:\Microchip\Libero_SoC_v2024.2\Designer\bin\projects\SMF2000-M3_ProjectRad\SC2021_Workspace_PRad\eNVM\Debug/../drivers/mss_sys_services/mss_comblk.c:553
        break;
2000109e:	e0a1      	b.n	200011e4 <handle_rx_okay_irq+0x1e0>
C:\Microchip\Libero_SoC_v2024.2\Designer\bin\projects\SMF2000-M3_ProjectRad\SC2021_Workspace_PRad\eNVM\Debug/../drivers/mss_sys_services/mss_comblk.c:560
        /*----------------------------------------------------------------------
         * The RCV_OKAY interrupt should only be enabled for states
         * COMBLK_WAIT_RESPONSE and COMBLK_RX_RESPONSE. 
         */
        case COMBLK_WAIT_RESPONSE:
            if(is_command)
200010a0:	89bb      	ldrh	r3, [r7, #12]
200010a2:	2b00      	cmp	r3, #0
200010a4:	f000 80a0 	beq.w	200011e8 <handle_rx_okay_irq+0x1e4>
C:\Microchip\Libero_SoC_v2024.2\Designer\bin\projects\SMF2000-M3_ProjectRad\SC2021_Workspace_PRad\eNVM\Debug/../drivers/mss_sys_services/mss_comblk.c:563
            {
                uint8_t rxed_opcode;
                rxed_opcode = data8;
200010a8:	7afb      	ldrb	r3, [r7, #11]
200010aa:	71fb      	strb	r3, [r7, #7]
C:\Microchip\Libero_SoC_v2024.2\Designer\bin\projects\SMF2000-M3_ProjectRad\SC2021_Workspace_PRad\eNVM\Debug/../drivers/mss_sys_services/mss_comblk.c:564
                if(rxed_opcode == g_comblk_cmd_opcode)
200010ac:	4b57      	ldr	r3, [pc, #348]	; (2000120c <handle_rx_okay_irq+0x208>)
200010ae:	781b      	ldrb	r3, [r3, #0]
200010b0:	b2db      	uxtb	r3, r3
200010b2:	79fa      	ldrb	r2, [r7, #7]
200010b4:	429a      	cmp	r2, r3
200010b6:	d115      	bne.n	200010e4 <handle_rx_okay_irq+0xe0>
C:\Microchip\Libero_SoC_v2024.2\Designer\bin\projects\SMF2000-M3_ProjectRad\SC2021_Workspace_PRad\eNVM\Debug/../drivers/mss_sys_services/mss_comblk.c:566
                {
                    g_comblk_response_idx = 0u;
200010b8:	4b52      	ldr	r3, [pc, #328]	; (20001204 <handle_rx_okay_irq+0x200>)
200010ba:	2200      	movs	r2, #0
200010bc:	801a      	strh	r2, [r3, #0]
C:\Microchip\Libero_SoC_v2024.2\Designer\bin\projects\SMF2000-M3_ProjectRad\SC2021_Workspace_PRad\eNVM\Debug/../drivers/mss_sys_services/mss_comblk.c:567
                    g_comblk_p_response[g_comblk_response_idx] = rxed_opcode;
200010be:	4b52      	ldr	r3, [pc, #328]	; (20001208 <handle_rx_okay_irq+0x204>)
200010c0:	681b      	ldr	r3, [r3, #0]
200010c2:	4a50      	ldr	r2, [pc, #320]	; (20001204 <handle_rx_okay_irq+0x200>)
200010c4:	8812      	ldrh	r2, [r2, #0]
200010c6:	b292      	uxth	r2, r2
200010c8:	4413      	add	r3, r2
200010ca:	79fa      	ldrb	r2, [r7, #7]
200010cc:	701a      	strb	r2, [r3, #0]
C:\Microchip\Libero_SoC_v2024.2\Designer\bin\projects\SMF2000-M3_ProjectRad\SC2021_Workspace_PRad\eNVM\Debug/../drivers/mss_sys_services/mss_comblk.c:568
                    ++g_comblk_response_idx;
200010ce:	4b4d      	ldr	r3, [pc, #308]	; (20001204 <handle_rx_okay_irq+0x200>)
200010d0:	881b      	ldrh	r3, [r3, #0]
200010d2:	b29b      	uxth	r3, r3
200010d4:	3301      	adds	r3, #1
200010d6:	b29a      	uxth	r2, r3
200010d8:	4b4a      	ldr	r3, [pc, #296]	; (20001204 <handle_rx_okay_irq+0x200>)
200010da:	801a      	strh	r2, [r3, #0]
C:\Microchip\Libero_SoC_v2024.2\Designer\bin\projects\SMF2000-M3_ProjectRad\SC2021_Workspace_PRad\eNVM\Debug/../drivers/mss_sys_services/mss_comblk.c:569
                    g_comblk_state = COMBLK_RX_RESPONSE;
200010dc:	4b48      	ldr	r3, [pc, #288]	; (20001200 <handle_rx_okay_irq+0x1fc>)
200010de:	2204      	movs	r2, #4
200010e0:	701a      	strb	r2, [r3, #0]
C:\Microchip\Libero_SoC_v2024.2\Designer\bin\projects\SMF2000-M3_ProjectRad\SC2021_Workspace_PRad\eNVM\Debug/../drivers/mss_sys_services/mss_comblk.c:576
                else
                {
                    process_sys_ctrl_command(rxed_opcode);
                }
            }
        break;
200010e2:	e081      	b.n	200011e8 <handle_rx_okay_irq+0x1e4>
C:\Microchip\Libero_SoC_v2024.2\Designer\bin\projects\SMF2000-M3_ProjectRad\SC2021_Workspace_PRad\eNVM\Debug/../drivers/mss_sys_services/mss_comblk.c:573
                    process_sys_ctrl_command(rxed_opcode);
200010e4:	79fb      	ldrb	r3, [r7, #7]
200010e6:	4618      	mov	r0, r3
200010e8:	f000 f90a 	bl	20001300 <process_sys_ctrl_command>
C:\Microchip\Libero_SoC_v2024.2\Designer\bin\projects\SMF2000-M3_ProjectRad\SC2021_Workspace_PRad\eNVM\Debug/../drivers/mss_sys_services/mss_comblk.c:576
        break;
200010ec:	e07c      	b.n	200011e8 <handle_rx_okay_irq+0x1e4>
C:\Microchip\Libero_SoC_v2024.2\Designer\bin\projects\SMF2000-M3_ProjectRad\SC2021_Workspace_PRad\eNVM\Debug/../drivers/mss_sys_services/mss_comblk.c:579
            
        case COMBLK_RX_RESPONSE:
            if(is_command)
200010ee:	89bb      	ldrh	r3, [r7, #12]
200010f0:	2b00      	cmp	r3, #0
200010f2:	d006      	beq.n	20001102 <handle_rx_okay_irq+0xfe>
C:\Microchip\Libero_SoC_v2024.2\Designer\bin\projects\SMF2000-M3_ProjectRad\SC2021_Workspace_PRad\eNVM\Debug/../drivers/mss_sys_services/mss_comblk.c:582
            {
                uint8_t rxed_opcode;
                rxed_opcode = data8;
200010f4:	7afb      	ldrb	r3, [r7, #11]
200010f6:	723b      	strb	r3, [r7, #8]
C:\Microchip\Libero_SoC_v2024.2\Designer\bin\projects\SMF2000-M3_ProjectRad\SC2021_Workspace_PRad\eNVM\Debug/../drivers/mss_sys_services/mss_comblk.c:583
                process_sys_ctrl_command(rxed_opcode);
200010f8:	7a3b      	ldrb	r3, [r7, #8]
200010fa:	4618      	mov	r0, r3
200010fc:	f000 f900 	bl	20001300 <process_sys_ctrl_command>
C:\Microchip\Libero_SoC_v2024.2\Designer\bin\projects\SMF2000-M3_ProjectRad\SC2021_Workspace_PRad\eNVM\Debug/../drivers/mss_sys_services/mss_comblk.c:611
                        complete_request(g_comblk_response_idx);
                        g_comblk_state = COMBLK_IDLE;
                    }
                }
            }
        break;
20001100:	e074      	b.n	200011ec <handle_rx_okay_irq+0x1e8>
C:\Microchip\Libero_SoC_v2024.2\Designer\bin\projects\SMF2000-M3_ProjectRad\SC2021_Workspace_PRad\eNVM\Debug/../drivers/mss_sys_services/mss_comblk.c:587
                if( g_comblk_p_response[g_comblk_response_idx-1] == POR_DIGEST_ERROR_OPCODE)
20001102:	4b41      	ldr	r3, [pc, #260]	; (20001208 <handle_rx_okay_irq+0x204>)
20001104:	681a      	ldr	r2, [r3, #0]
20001106:	4b3f      	ldr	r3, [pc, #252]	; (20001204 <handle_rx_okay_irq+0x200>)
20001108:	881b      	ldrh	r3, [r3, #0]
2000110a:	b29b      	uxth	r3, r3
2000110c:	3b01      	subs	r3, #1
2000110e:	4413      	add	r3, r2
20001110:	781b      	ldrb	r3, [r3, #0]
20001112:	2bf1      	cmp	r3, #241	; 0xf1
20001114:	d116      	bne.n	20001144 <handle_rx_okay_irq+0x140>
C:\Microchip\Libero_SoC_v2024.2\Designer\bin\projects\SMF2000-M3_ProjectRad\SC2021_Workspace_PRad\eNVM\Debug/../drivers/mss_sys_services/mss_comblk.c:589
                    g_comblk_p_response[g_comblk_response_idx] = data8;
20001116:	4b3c      	ldr	r3, [pc, #240]	; (20001208 <handle_rx_okay_irq+0x204>)
20001118:	681b      	ldr	r3, [r3, #0]
2000111a:	4a3a      	ldr	r2, [pc, #232]	; (20001204 <handle_rx_okay_irq+0x200>)
2000111c:	8812      	ldrh	r2, [r2, #0]
2000111e:	b292      	uxth	r2, r2
20001120:	4413      	add	r3, r2
20001122:	7afa      	ldrb	r2, [r7, #11]
20001124:	701a      	strb	r2, [r3, #0]
C:\Microchip\Libero_SoC_v2024.2\Designer\bin\projects\SMF2000-M3_ProjectRad\SC2021_Workspace_PRad\eNVM\Debug/../drivers/mss_sys_services/mss_comblk.c:590
                    process_sys_ctrl_command(g_comblk_p_response[g_comblk_response_idx-1]);
20001126:	4b38      	ldr	r3, [pc, #224]	; (20001208 <handle_rx_okay_irq+0x204>)
20001128:	681a      	ldr	r2, [r3, #0]
2000112a:	4b36      	ldr	r3, [pc, #216]	; (20001204 <handle_rx_okay_irq+0x200>)
2000112c:	881b      	ldrh	r3, [r3, #0]
2000112e:	b29b      	uxth	r3, r3
20001130:	3b01      	subs	r3, #1
20001132:	4413      	add	r3, r2
20001134:	781b      	ldrb	r3, [r3, #0]
20001136:	4618      	mov	r0, r3
20001138:	f000 f8e2 	bl	20001300 <process_sys_ctrl_command>
C:\Microchip\Libero_SoC_v2024.2\Designer\bin\projects\SMF2000-M3_ProjectRad\SC2021_Workspace_PRad\eNVM\Debug/../drivers/mss_sys_services/mss_comblk.c:591
                    g_comblk_state = COMBLK_IDLE;
2000113c:	4b30      	ldr	r3, [pc, #192]	; (20001200 <handle_rx_okay_irq+0x1fc>)
2000113e:	2200      	movs	r2, #0
20001140:	701a      	strb	r2, [r3, #0]
C:\Microchip\Libero_SoC_v2024.2\Designer\bin\projects\SMF2000-M3_ProjectRad\SC2021_Workspace_PRad\eNVM\Debug/../drivers/mss_sys_services/mss_comblk.c:611
        break;
20001142:	e053      	b.n	200011ec <handle_rx_okay_irq+0x1e8>
C:\Microchip\Libero_SoC_v2024.2\Designer\bin\projects\SMF2000-M3_ProjectRad\SC2021_Workspace_PRad\eNVM\Debug/../drivers/mss_sys_services/mss_comblk.c:595
                    if(g_comblk_response_idx < g_comblk_response_size)
20001144:	4b2f      	ldr	r3, [pc, #188]	; (20001204 <handle_rx_okay_irq+0x200>)
20001146:	881b      	ldrh	r3, [r3, #0]
20001148:	b29a      	uxth	r2, r3
2000114a:	4b31      	ldr	r3, [pc, #196]	; (20001210 <handle_rx_okay_irq+0x20c>)
2000114c:	881b      	ldrh	r3, [r3, #0]
2000114e:	429a      	cmp	r2, r3
20001150:	d210      	bcs.n	20001174 <handle_rx_okay_irq+0x170>
C:\Microchip\Libero_SoC_v2024.2\Designer\bin\projects\SMF2000-M3_ProjectRad\SC2021_Workspace_PRad\eNVM\Debug/../drivers/mss_sys_services/mss_comblk.c:599
                        rxed_data = data8;
20001152:	7afb      	ldrb	r3, [r7, #11]
20001154:	727b      	strb	r3, [r7, #9]
C:\Microchip\Libero_SoC_v2024.2\Designer\bin\projects\SMF2000-M3_ProjectRad\SC2021_Workspace_PRad\eNVM\Debug/../drivers/mss_sys_services/mss_comblk.c:600
                        g_comblk_p_response[g_comblk_response_idx] = rxed_data;
20001156:	4b2c      	ldr	r3, [pc, #176]	; (20001208 <handle_rx_okay_irq+0x204>)
20001158:	681b      	ldr	r3, [r3, #0]
2000115a:	4a2a      	ldr	r2, [pc, #168]	; (20001204 <handle_rx_okay_irq+0x200>)
2000115c:	8812      	ldrh	r2, [r2, #0]
2000115e:	b292      	uxth	r2, r2
20001160:	4413      	add	r3, r2
20001162:	7a7a      	ldrb	r2, [r7, #9]
20001164:	701a      	strb	r2, [r3, #0]
C:\Microchip\Libero_SoC_v2024.2\Designer\bin\projects\SMF2000-M3_ProjectRad\SC2021_Workspace_PRad\eNVM\Debug/../drivers/mss_sys_services/mss_comblk.c:601
                        ++g_comblk_response_idx;
20001166:	4b27      	ldr	r3, [pc, #156]	; (20001204 <handle_rx_okay_irq+0x200>)
20001168:	881b      	ldrh	r3, [r3, #0]
2000116a:	b29b      	uxth	r3, r3
2000116c:	3301      	adds	r3, #1
2000116e:	b29a      	uxth	r2, r3
20001170:	4b24      	ldr	r3, [pc, #144]	; (20001204 <handle_rx_okay_irq+0x200>)
20001172:	801a      	strh	r2, [r3, #0]
C:\Microchip\Libero_SoC_v2024.2\Designer\bin\projects\SMF2000-M3_ProjectRad\SC2021_Workspace_PRad\eNVM\Debug/../drivers/mss_sys_services/mss_comblk.c:604
                    if(g_comblk_response_idx == g_comblk_response_size)
20001174:	4b23      	ldr	r3, [pc, #140]	; (20001204 <handle_rx_okay_irq+0x200>)
20001176:	881b      	ldrh	r3, [r3, #0]
20001178:	b29a      	uxth	r2, r3
2000117a:	4b25      	ldr	r3, [pc, #148]	; (20001210 <handle_rx_okay_irq+0x20c>)
2000117c:	881b      	ldrh	r3, [r3, #0]
2000117e:	429a      	cmp	r2, r3
20001180:	d134      	bne.n	200011ec <handle_rx_okay_irq+0x1e8>
C:\Microchip\Libero_SoC_v2024.2\Designer\bin\projects\SMF2000-M3_ProjectRad\SC2021_Workspace_PRad\eNVM\Debug/../drivers/mss_sys_services/mss_comblk.c:606
                        complete_request(g_comblk_response_idx);
20001182:	4b20      	ldr	r3, [pc, #128]	; (20001204 <handle_rx_okay_irq+0x200>)
20001184:	881b      	ldrh	r3, [r3, #0]
20001186:	b29b      	uxth	r3, r3
20001188:	4618      	mov	r0, r3
2000118a:	f000 f843 	bl	20001214 <complete_request>
C:\Microchip\Libero_SoC_v2024.2\Designer\bin\projects\SMF2000-M3_ProjectRad\SC2021_Workspace_PRad\eNVM\Debug/../drivers/mss_sys_services/mss_comblk.c:607
                        g_comblk_state = COMBLK_IDLE;
2000118e:	4b1c      	ldr	r3, [pc, #112]	; (20001200 <handle_rx_okay_irq+0x1fc>)
20001190:	2200      	movs	r2, #0
20001192:	701a      	strb	r2, [r3, #0]
C:\Microchip\Libero_SoC_v2024.2\Designer\bin\projects\SMF2000-M3_ProjectRad\SC2021_Workspace_PRad\eNVM\Debug/../drivers/mss_sys_services/mss_comblk.c:611
        break;
20001194:	e02a      	b.n	200011ec <handle_rx_okay_irq+0x1e8>
C:\Microchip\Libero_SoC_v2024.2\Designer\bin\projects\SMF2000-M3_ProjectRad\SC2021_Workspace_PRad\eNVM\Debug/../drivers/mss_sys_services/mss_comblk.c:619
         * The RCV_OKAY interrupt should NOT be enabled for states
         * COMBLK_IDLE, COMBLK_TX_CMD and COMBLK_TX_DATA.
         */
        case COMBLK_TX_PAGED_DATA:
            /* This is needed because when there is an error, we need to terminate loading the data */
            if(!is_command)
20001196:	89bb      	ldrh	r3, [r7, #12]
20001198:	2b00      	cmp	r3, #0
2000119a:	d10b      	bne.n	200011b4 <handle_rx_okay_irq+0x1b0>
C:\Microchip\Libero_SoC_v2024.2\Designer\bin\projects\SMF2000-M3_ProjectRad\SC2021_Workspace_PRad\eNVM\Debug/../drivers/mss_sys_services/mss_comblk.c:621
            {
                g_comblk_p_response[1] = data8;
2000119c:	4b1a      	ldr	r3, [pc, #104]	; (20001208 <handle_rx_okay_irq+0x204>)
2000119e:	681b      	ldr	r3, [r3, #0]
200011a0:	3301      	adds	r3, #1
200011a2:	7afa      	ldrb	r2, [r7, #11]
200011a4:	701a      	strb	r2, [r3, #0]
C:\Microchip\Libero_SoC_v2024.2\Designer\bin\projects\SMF2000-M3_ProjectRad\SC2021_Workspace_PRad\eNVM\Debug/../drivers/mss_sys_services/mss_comblk.c:622
                complete_request(2u);
200011a6:	2002      	movs	r0, #2
200011a8:	f000 f834 	bl	20001214 <complete_request>
C:\Microchip\Libero_SoC_v2024.2\Designer\bin\projects\SMF2000-M3_ProjectRad\SC2021_Workspace_PRad\eNVM\Debug/../drivers/mss_sys_services/mss_comblk.c:623
                g_comblk_state = COMBLK_IDLE;
200011ac:	4b14      	ldr	r3, [pc, #80]	; (20001200 <handle_rx_okay_irq+0x1fc>)
200011ae:	2200      	movs	r2, #0
200011b0:	701a      	strb	r2, [r3, #0]
C:\Microchip\Libero_SoC_v2024.2\Designer\bin\projects\SMF2000-M3_ProjectRad\SC2021_Workspace_PRad\eNVM\Debug/../drivers/mss_sys_services/mss_comblk.c:631
            {
                uint8_t rxed_opcode;
                rxed_opcode = data8;
                process_sys_ctrl_command(rxed_opcode);
            }
        break;
200011b2:	e01e      	b.n	200011f2 <handle_rx_okay_irq+0x1ee>
C:\Microchip\Libero_SoC_v2024.2\Designer\bin\projects\SMF2000-M3_ProjectRad\SC2021_Workspace_PRad\eNVM\Debug/../drivers/mss_sys_services/mss_comblk.c:628
                rxed_opcode = data8;
200011b4:	7afb      	ldrb	r3, [r7, #11]
200011b6:	72bb      	strb	r3, [r7, #10]
C:\Microchip\Libero_SoC_v2024.2\Designer\bin\projects\SMF2000-M3_ProjectRad\SC2021_Workspace_PRad\eNVM\Debug/../drivers/mss_sys_services/mss_comblk.c:629
                process_sys_ctrl_command(rxed_opcode);
200011b8:	7abb      	ldrb	r3, [r7, #10]
200011ba:	4618      	mov	r0, r3
200011bc:	f000 f8a0 	bl	20001300 <process_sys_ctrl_command>
C:\Microchip\Libero_SoC_v2024.2\Designer\bin\projects\SMF2000-M3_ProjectRad\SC2021_Workspace_PRad\eNVM\Debug/../drivers/mss_sys_services/mss_comblk.c:631
        break;
200011c0:	e017      	b.n	200011f2 <handle_rx_okay_irq+0x1ee>
C:\Microchip\Libero_SoC_v2024.2\Designer\bin\projects\SMF2000-M3_ProjectRad\SC2021_Workspace_PRad\eNVM\Debug/../drivers/mss_sys_services/mss_comblk.c:637
        
        case COMBLK_TX_CMD:
            /* Fall through */
        case COMBLK_TX_DATA:
            /* Fall through */
            if(is_command)
200011c2:	89bb      	ldrh	r3, [r7, #12]
200011c4:	2b00      	cmp	r3, #0
200011c6:	d013      	beq.n	200011f0 <handle_rx_okay_irq+0x1ec>
C:\Microchip\Libero_SoC_v2024.2\Designer\bin\projects\SMF2000-M3_ProjectRad\SC2021_Workspace_PRad\eNVM\Debug/../drivers/mss_sys_services/mss_comblk.c:640
            {
                uint8_t rxed_opcode;
                rxed_opcode = data8;
200011c8:	7afb      	ldrb	r3, [r7, #11]
200011ca:	71bb      	strb	r3, [r7, #6]
C:\Microchip\Libero_SoC_v2024.2\Designer\bin\projects\SMF2000-M3_ProjectRad\SC2021_Workspace_PRad\eNVM\Debug/../drivers/mss_sys_services/mss_comblk.c:641
                process_sys_ctrl_command(rxed_opcode);
200011cc:	79bb      	ldrb	r3, [r7, #6]
200011ce:	4618      	mov	r0, r3
200011d0:	f000 f896 	bl	20001300 <process_sys_ctrl_command>
C:\Microchip\Libero_SoC_v2024.2\Designer\bin\projects\SMF2000-M3_ProjectRad\SC2021_Workspace_PRad\eNVM\Debug/../drivers/mss_sys_services/mss_comblk.c:643
            }
        break;
200011d4:	e00c      	b.n	200011f0 <handle_rx_okay_irq+0x1ec>
C:\Microchip\Libero_SoC_v2024.2\Designer\bin\projects\SMF2000-M3_ProjectRad\SC2021_Workspace_PRad\eNVM\Debug/../drivers/mss_sys_services/mss_comblk.c:646
        
        default:
            complete_request(0u);
200011d6:	2000      	movs	r0, #0
200011d8:	f000 f81c 	bl	20001214 <complete_request>
C:\Microchip\Libero_SoC_v2024.2\Designer\bin\projects\SMF2000-M3_ProjectRad\SC2021_Workspace_PRad\eNVM\Debug/../drivers/mss_sys_services/mss_comblk.c:647
            g_comblk_state = COMBLK_IDLE;
200011dc:	4b08      	ldr	r3, [pc, #32]	; (20001200 <handle_rx_okay_irq+0x1fc>)
200011de:	2200      	movs	r2, #0
200011e0:	701a      	strb	r2, [r3, #0]
C:\Microchip\Libero_SoC_v2024.2\Designer\bin\projects\SMF2000-M3_ProjectRad\SC2021_Workspace_PRad\eNVM\Debug/../drivers/mss_sys_services/mss_comblk.c:648
        break;
200011e2:	e006      	b.n	200011f2 <handle_rx_okay_irq+0x1ee>
C:\Microchip\Libero_SoC_v2024.2\Designer\bin\projects\SMF2000-M3_ProjectRad\SC2021_Workspace_PRad\eNVM\Debug/../drivers/mss_sys_services/mss_comblk.c:553
        break;
200011e4:	bf00      	nop
200011e6:	e004      	b.n	200011f2 <handle_rx_okay_irq+0x1ee>
C:\Microchip\Libero_SoC_v2024.2\Designer\bin\projects\SMF2000-M3_ProjectRad\SC2021_Workspace_PRad\eNVM\Debug/../drivers/mss_sys_services/mss_comblk.c:576
        break;
200011e8:	bf00      	nop
200011ea:	e002      	b.n	200011f2 <handle_rx_okay_irq+0x1ee>
C:\Microchip\Libero_SoC_v2024.2\Designer\bin\projects\SMF2000-M3_ProjectRad\SC2021_Workspace_PRad\eNVM\Debug/../drivers/mss_sys_services/mss_comblk.c:611
        break;
200011ec:	bf00      	nop
200011ee:	e000      	b.n	200011f2 <handle_rx_okay_irq+0x1ee>
C:\Microchip\Libero_SoC_v2024.2\Designer\bin\projects\SMF2000-M3_ProjectRad\SC2021_Workspace_PRad\eNVM\Debug/../drivers/mss_sys_services/mss_comblk.c:643
        break;
200011f0:	bf00      	nop
C:\Microchip\Libero_SoC_v2024.2\Designer\bin\projects\SMF2000-M3_ProjectRad\SC2021_Workspace_PRad\eNVM\Debug/../drivers/mss_sys_services/mss_comblk.c:650
    }
}
200011f2:	bf00      	nop
200011f4:	3710      	adds	r7, #16
200011f6:	46bd      	mov	sp, r7
200011f8:	bd80      	pop	{r7, pc}
200011fa:	bf00      	nop
200011fc:	40016000 	.word	0x40016000
20001200:	20009381 	.word	0x20009381
20001204:	20009376 	.word	0x20009376
20001208:	20009370 	.word	0x20009370
2000120c:	2000935c 	.word	0x2000935c
20001210:	20009374 	.word	0x20009374

20001214 <complete_request>:
complete_request():
C:\Microchip\Libero_SoC_v2024.2\Designer\bin\projects\SMF2000-M3_ProjectRad\SC2021_Workspace_PRad\eNVM\Debug/../drivers/mss_sys_services/mss_comblk.c:659
 */
static void complete_request
(
    uint16_t response_length
)
{
20001214:	b580      	push	{r7, lr}
20001216:	b082      	sub	sp, #8
20001218:	af00      	add	r7, sp, #0
2000121a:	4603      	mov	r3, r0
2000121c:	80fb      	strh	r3, [r7, #6]
C:\Microchip\Libero_SoC_v2024.2\Designer\bin\projects\SMF2000-M3_ProjectRad\SC2021_Workspace_PRad\eNVM\Debug/../drivers/mss_sys_services/mss_comblk.c:660
    if(g_comblk_completion_handler != 0)
2000121e:	4b0a      	ldr	r3, [pc, #40]	; (20001248 <complete_request+0x34>)
20001220:	681b      	ldr	r3, [r3, #0]
20001222:	2b00      	cmp	r3, #0
20001224:	d00c      	beq.n	20001240 <complete_request+0x2c>
C:\Microchip\Libero_SoC_v2024.2\Designer\bin\projects\SMF2000-M3_ProjectRad\SC2021_Workspace_PRad\eNVM\Debug/../drivers/mss_sys_services/mss_comblk.c:662
    {
        g_comblk_completion_handler(g_comblk_p_response, response_length);
20001226:	4b08      	ldr	r3, [pc, #32]	; (20001248 <complete_request+0x34>)
20001228:	681b      	ldr	r3, [r3, #0]
2000122a:	4a08      	ldr	r2, [pc, #32]	; (2000124c <complete_request+0x38>)
2000122c:	6812      	ldr	r2, [r2, #0]
2000122e:	88f9      	ldrh	r1, [r7, #6]
20001230:	4610      	mov	r0, r2
20001232:	4798      	blx	r3
C:\Microchip\Libero_SoC_v2024.2\Designer\bin\projects\SMF2000-M3_ProjectRad\SC2021_Workspace_PRad\eNVM\Debug/../drivers/mss_sys_services/mss_comblk.c:663
        g_comblk_completion_handler = 0;
20001234:	4b04      	ldr	r3, [pc, #16]	; (20001248 <complete_request+0x34>)
20001236:	2200      	movs	r2, #0
20001238:	601a      	str	r2, [r3, #0]
C:\Microchip\Libero_SoC_v2024.2\Designer\bin\projects\SMF2000-M3_ProjectRad\SC2021_Workspace_PRad\eNVM\Debug/../drivers/mss_sys_services/mss_comblk.c:664
        g_request_in_progress = 0u;
2000123a:	4b05      	ldr	r3, [pc, #20]	; (20001250 <complete_request+0x3c>)
2000123c:	2200      	movs	r2, #0
2000123e:	701a      	strb	r2, [r3, #0]
C:\Microchip\Libero_SoC_v2024.2\Designer\bin\projects\SMF2000-M3_ProjectRad\SC2021_Workspace_PRad\eNVM\Debug/../drivers/mss_sys_services/mss_comblk.c:666
    }
}
20001240:	bf00      	nop
20001242:	3708      	adds	r7, #8
20001244:	46bd      	mov	sp, r7
20001246:	bd80      	pop	{r7, pc}
20001248:	20009378 	.word	0x20009378
2000124c:	20009370 	.word	0x20009370
20001250:	20009380 	.word	0x20009380

20001254 <abort_current_cmd>:
abort_current_cmd():
C:\Microchip\Libero_SoC_v2024.2\Designer\bin\projects\SMF2000-M3_ProjectRad\SC2021_Workspace_PRad\eNVM\Debug/../drivers/mss_sys_services/mss_comblk.c:672

/*==============================================================================
 *
 */
static void abort_current_cmd(void)
{
20001254:	b580      	push	{r7, lr}
20001256:	b082      	sub	sp, #8
20001258:	af00      	add	r7, sp, #0
C:\Microchip\Libero_SoC_v2024.2\Designer\bin\projects\SMF2000-M3_ProjectRad\SC2021_Workspace_PRad\eNVM\Debug/../drivers/mss_sys_services/mss_comblk.c:673
    if(g_request_in_progress)
2000125a:	4b0e      	ldr	r3, [pc, #56]	; (20001294 <abort_current_cmd+0x40>)
2000125c:	781b      	ldrb	r3, [r3, #0]
2000125e:	b2db      	uxtb	r3, r3
20001260:	2b00      	cmp	r3, #0
20001262:	d013      	beq.n	2000128c <abort_current_cmd+0x38>
C:\Microchip\Libero_SoC_v2024.2\Designer\bin\projects\SMF2000-M3_ProjectRad\SC2021_Workspace_PRad\eNVM\Debug/../drivers/mss_sys_services/mss_comblk.c:681
        
        /*
         * Call completion handler just in case we are in a multi threaded system
         * to avoid a task lockup.
         */
        complete_request(g_comblk_response_idx);
20001264:	4b0c      	ldr	r3, [pc, #48]	; (20001298 <abort_current_cmd+0x44>)
20001266:	881b      	ldrh	r3, [r3, #0]
20001268:	b29b      	uxth	r3, r3
2000126a:	4618      	mov	r0, r3
2000126c:	f7ff ffd2 	bl	20001214 <complete_request>
C:\Microchip\Libero_SoC_v2024.2\Designer\bin\projects\SMF2000-M3_ProjectRad\SC2021_Workspace_PRad\eNVM\Debug/../drivers/mss_sys_services/mss_comblk.c:686
        
        /*
         * Flush the FIFOs
         */
        COMBLK->CONTROL |= CR_FLUSHOUT_MASK;
20001270:	4b0a      	ldr	r3, [pc, #40]	; (2000129c <abort_current_cmd+0x48>)
20001272:	681b      	ldr	r3, [r3, #0]
20001274:	4a09      	ldr	r2, [pc, #36]	; (2000129c <abort_current_cmd+0x48>)
20001276:	f043 0301 	orr.w	r3, r3, #1
2000127a:	6013      	str	r3, [r2, #0]
C:\Microchip\Libero_SoC_v2024.2\Designer\bin\projects\SMF2000-M3_ProjectRad\SC2021_Workspace_PRad\eNVM\Debug/../drivers/mss_sys_services/mss_comblk.c:688 (discriminator 1)
        do {
            flush_in_progress = COMBLK->CONTROL & CR_FLUSHOUT_MASK;
2000127c:	4b07      	ldr	r3, [pc, #28]	; (2000129c <abort_current_cmd+0x48>)
2000127e:	681b      	ldr	r3, [r3, #0]
20001280:	f003 0301 	and.w	r3, r3, #1
20001284:	607b      	str	r3, [r7, #4]
C:\Microchip\Libero_SoC_v2024.2\Designer\bin\projects\SMF2000-M3_ProjectRad\SC2021_Workspace_PRad\eNVM\Debug/../drivers/mss_sys_services/mss_comblk.c:689 (discriminator 1)
        } while(flush_in_progress);
20001286:	687b      	ldr	r3, [r7, #4]
20001288:	2b00      	cmp	r3, #0
2000128a:	d1f7      	bne.n	2000127c <abort_current_cmd+0x28>
C:\Microchip\Libero_SoC_v2024.2\Designer\bin\projects\SMF2000-M3_ProjectRad\SC2021_Workspace_PRad\eNVM\Debug/../drivers/mss_sys_services/mss_comblk.c:691
    }
}
2000128c:	bf00      	nop
2000128e:	3708      	adds	r7, #8
20001290:	46bd      	mov	sp, r7
20001292:	bd80      	pop	{r7, pc}
20001294:	20009380 	.word	0x20009380
20001298:	20009376 	.word	0x20009376
2000129c:	40016000 	.word	0x40016000

200012a0 <fill_tx_fifo>:
fill_tx_fifo():
C:\Microchip\Libero_SoC_v2024.2\Designer\bin\projects\SMF2000-M3_ProjectRad\SC2021_Workspace_PRad\eNVM\Debug/../drivers/mss_sys_services/mss_comblk.c:723
static uint32_t fill_tx_fifo
(
    const uint8_t * p_cmd,
    uint32_t cmd_size
)
{
200012a0:	b480      	push	{r7}
200012a2:	b085      	sub	sp, #20
200012a4:	af00      	add	r7, sp, #0
200012a6:	6078      	str	r0, [r7, #4]
200012a8:	6039      	str	r1, [r7, #0]
C:\Microchip\Libero_SoC_v2024.2\Designer\bin\projects\SMF2000-M3_ProjectRad\SC2021_Workspace_PRad\eNVM\Debug/../drivers/mss_sys_services/mss_comblk.c:728
    volatile uint32_t tx_okay;
    uint32_t size_sent;

    /* Set transmit FIFO to transfer bytes. */
    COMBLK->CONTROL &= ~CR_SIZETX_MASK;
200012aa:	4b14      	ldr	r3, [pc, #80]	; (200012fc <fill_tx_fifo+0x5c>)
200012ac:	681b      	ldr	r3, [r3, #0]
200012ae:	4a13      	ldr	r2, [pc, #76]	; (200012fc <fill_tx_fifo+0x5c>)
200012b0:	f023 0304 	bic.w	r3, r3, #4
200012b4:	6013      	str	r3, [r2, #0]
C:\Microchip\Libero_SoC_v2024.2\Designer\bin\projects\SMF2000-M3_ProjectRad\SC2021_Workspace_PRad\eNVM\Debug/../drivers/mss_sys_services/mss_comblk.c:730
    
    size_sent = 0u;
200012b6:	2300      	movs	r3, #0
200012b8:	60fb      	str	r3, [r7, #12]
C:\Microchip\Libero_SoC_v2024.2\Designer\bin\projects\SMF2000-M3_ProjectRad\SC2021_Workspace_PRad\eNVM\Debug/../drivers/mss_sys_services/mss_comblk.c:731
    tx_okay = COMBLK->STATUS & TXTOKAY_MASK;
200012ba:	4b10      	ldr	r3, [pc, #64]	; (200012fc <fill_tx_fifo+0x5c>)
200012bc:	685b      	ldr	r3, [r3, #4]
200012be:	f003 0301 	and.w	r3, r3, #1
200012c2:	60bb      	str	r3, [r7, #8]
C:\Microchip\Libero_SoC_v2024.2\Designer\bin\projects\SMF2000-M3_ProjectRad\SC2021_Workspace_PRad\eNVM\Debug/../drivers/mss_sys_services/mss_comblk.c:732
    while((tx_okay != 0u) && (size_sent < cmd_size))
200012c4:	e00d      	b.n	200012e2 <fill_tx_fifo+0x42>
C:\Microchip\Libero_SoC_v2024.2\Designer\bin\projects\SMF2000-M3_ProjectRad\SC2021_Workspace_PRad\eNVM\Debug/../drivers/mss_sys_services/mss_comblk.c:734
    {
        COMBLK->DATA8 = p_cmd[size_sent];
200012c6:	687a      	ldr	r2, [r7, #4]
200012c8:	68fb      	ldr	r3, [r7, #12]
200012ca:	4413      	add	r3, r2
200012cc:	781a      	ldrb	r2, [r3, #0]
200012ce:	4b0b      	ldr	r3, [pc, #44]	; (200012fc <fill_tx_fifo+0x5c>)
200012d0:	611a      	str	r2, [r3, #16]
C:\Microchip\Libero_SoC_v2024.2\Designer\bin\projects\SMF2000-M3_ProjectRad\SC2021_Workspace_PRad\eNVM\Debug/../drivers/mss_sys_services/mss_comblk.c:735
        ++size_sent;
200012d2:	68fb      	ldr	r3, [r7, #12]
200012d4:	3301      	adds	r3, #1
200012d6:	60fb      	str	r3, [r7, #12]
C:\Microchip\Libero_SoC_v2024.2\Designer\bin\projects\SMF2000-M3_ProjectRad\SC2021_Workspace_PRad\eNVM\Debug/../drivers/mss_sys_services/mss_comblk.c:736
        tx_okay = COMBLK->STATUS & TXTOKAY_MASK;
200012d8:	4b08      	ldr	r3, [pc, #32]	; (200012fc <fill_tx_fifo+0x5c>)
200012da:	685b      	ldr	r3, [r3, #4]
200012dc:	f003 0301 	and.w	r3, r3, #1
200012e0:	60bb      	str	r3, [r7, #8]
C:\Microchip\Libero_SoC_v2024.2\Designer\bin\projects\SMF2000-M3_ProjectRad\SC2021_Workspace_PRad\eNVM\Debug/../drivers/mss_sys_services/mss_comblk.c:732
    while((tx_okay != 0u) && (size_sent < cmd_size))
200012e2:	68bb      	ldr	r3, [r7, #8]
200012e4:	2b00      	cmp	r3, #0
200012e6:	d003      	beq.n	200012f0 <fill_tx_fifo+0x50>
C:\Microchip\Libero_SoC_v2024.2\Designer\bin\projects\SMF2000-M3_ProjectRad\SC2021_Workspace_PRad\eNVM\Debug/../drivers/mss_sys_services/mss_comblk.c:732 (discriminator 1)
200012e8:	68fa      	ldr	r2, [r7, #12]
200012ea:	683b      	ldr	r3, [r7, #0]
200012ec:	429a      	cmp	r2, r3
200012ee:	d3ea      	bcc.n	200012c6 <fill_tx_fifo+0x26>
C:\Microchip\Libero_SoC_v2024.2\Designer\bin\projects\SMF2000-M3_ProjectRad\SC2021_Workspace_PRad\eNVM\Debug/../drivers/mss_sys_services/mss_comblk.c:739
    }
    
    return size_sent;
200012f0:	68fb      	ldr	r3, [r7, #12]
C:\Microchip\Libero_SoC_v2024.2\Designer\bin\projects\SMF2000-M3_ProjectRad\SC2021_Workspace_PRad\eNVM\Debug/../drivers/mss_sys_services/mss_comblk.c:740
}
200012f2:	4618      	mov	r0, r3
200012f4:	3714      	adds	r7, #20
200012f6:	46bd      	mov	sp, r7
200012f8:	bc80      	pop	{r7}
200012fa:	4770      	bx	lr
200012fc:	40016000 	.word	0x40016000

20001300 <process_sys_ctrl_command>:
process_sys_ctrl_command():
C:\Microchip\Libero_SoC_v2024.2\Designer\bin\projects\SMF2000-M3_ProjectRad\SC2021_Workspace_PRad\eNVM\Debug/../drivers/mss_sys_services/mss_comblk.c:746

/*==============================================================================
 *
 */
static void process_sys_ctrl_command(uint8_t cmd_opcode)
{
20001300:	b580      	push	{r7, lr}
20001302:	b082      	sub	sp, #8
20001304:	af00      	add	r7, sp, #0
20001306:	4603      	mov	r3, r0
20001308:	71fb      	strb	r3, [r7, #7]
C:\Microchip\Libero_SoC_v2024.2\Designer\bin\projects\SMF2000-M3_ProjectRad\SC2021_Workspace_PRad\eNVM\Debug/../drivers/mss_sys_services/mss_comblk.c:747
    if(g_async_event_handler != 0)
2000130a:	4b06      	ldr	r3, [pc, #24]	; (20001324 <process_sys_ctrl_command+0x24>)
2000130c:	681b      	ldr	r3, [r3, #0]
2000130e:	2b00      	cmp	r3, #0
20001310:	d004      	beq.n	2000131c <process_sys_ctrl_command+0x1c>
C:\Microchip\Libero_SoC_v2024.2\Designer\bin\projects\SMF2000-M3_ProjectRad\SC2021_Workspace_PRad\eNVM\Debug/../drivers/mss_sys_services/mss_comblk.c:749
    {
        g_async_event_handler(cmd_opcode);
20001312:	4b04      	ldr	r3, [pc, #16]	; (20001324 <process_sys_ctrl_command+0x24>)
20001314:	681b      	ldr	r3, [r3, #0]
20001316:	79fa      	ldrb	r2, [r7, #7]
20001318:	4610      	mov	r0, r2
2000131a:	4798      	blx	r3
C:\Microchip\Libero_SoC_v2024.2\Designer\bin\projects\SMF2000-M3_ProjectRad\SC2021_Workspace_PRad\eNVM\Debug/../drivers/mss_sys_services/mss_comblk.c:751
    }
}
2000131c:	bf00      	nop
2000131e:	3708      	adds	r7, #8
20001320:	46bd      	mov	sp, r7
20001322:	bd80      	pop	{r7, pc}
20001324:	20009384 	.word	0x20009384

20001328 <NVIC_EnableIRQ>:
NVIC_EnableIRQ():
c:\microchip\softconsole-v2021.1\cmsis\v4.5\include/core_cm3.h:1453
{
20001328:	b480      	push	{r7}
2000132a:	b083      	sub	sp, #12
2000132c:	af00      	add	r7, sp, #0
2000132e:	4603      	mov	r3, r0
20001330:	71fb      	strb	r3, [r7, #7]
c:\microchip\softconsole-v2021.1\cmsis\v4.5\include/core_cm3.h:1454
  NVIC->ISER[(((uint32_t)(int32_t)IRQn) >> 5UL)] = (uint32_t)(1UL << (((uint32_t)(int32_t)IRQn) & 0x1FUL));
20001332:	79fb      	ldrb	r3, [r7, #7]
20001334:	f003 021f 	and.w	r2, r3, #31
20001338:	4906      	ldr	r1, [pc, #24]	; (20001354 <NVIC_EnableIRQ+0x2c>)
2000133a:	f997 3007 	ldrsb.w	r3, [r7, #7]
2000133e:	095b      	lsrs	r3, r3, #5
20001340:	2001      	movs	r0, #1
20001342:	fa00 f202 	lsl.w	r2, r0, r2
20001346:	f841 2023 	str.w	r2, [r1, r3, lsl #2]
c:\microchip\softconsole-v2021.1\cmsis\v4.5\include/core_cm3.h:1455
}
2000134a:	bf00      	nop
2000134c:	370c      	adds	r7, #12
2000134e:	46bd      	mov	sp, r7
20001350:	bc80      	pop	{r7}
20001352:	4770      	bx	lr
20001354:	e000e100 	.word	0xe000e100

20001358 <NVIC_DisableIRQ>:
NVIC_DisableIRQ():
c:\microchip\softconsole-v2021.1\cmsis\v4.5\include/core_cm3.h:1464
{
20001358:	b480      	push	{r7}
2000135a:	b083      	sub	sp, #12
2000135c:	af00      	add	r7, sp, #0
2000135e:	4603      	mov	r3, r0
20001360:	71fb      	strb	r3, [r7, #7]
c:\microchip\softconsole-v2021.1\cmsis\v4.5\include/core_cm3.h:1465
  NVIC->ICER[(((uint32_t)(int32_t)IRQn) >> 5UL)] = (uint32_t)(1UL << (((uint32_t)(int32_t)IRQn) & 0x1FUL));
20001362:	79fb      	ldrb	r3, [r7, #7]
20001364:	f003 021f 	and.w	r2, r3, #31
20001368:	4907      	ldr	r1, [pc, #28]	; (20001388 <NVIC_DisableIRQ+0x30>)
2000136a:	f997 3007 	ldrsb.w	r3, [r7, #7]
2000136e:	095b      	lsrs	r3, r3, #5
20001370:	2001      	movs	r0, #1
20001372:	fa00 f202 	lsl.w	r2, r0, r2
20001376:	3320      	adds	r3, #32
20001378:	f841 2023 	str.w	r2, [r1, r3, lsl #2]
c:\microchip\softconsole-v2021.1\cmsis\v4.5\include/core_cm3.h:1466
}
2000137c:	bf00      	nop
2000137e:	370c      	adds	r7, #12
20001380:	46bd      	mov	sp, r7
20001382:	bc80      	pop	{r7}
20001384:	4770      	bx	lr
20001386:	bf00      	nop
20001388:	e000e100 	.word	0xe000e100

2000138c <NVIC_ClearPendingIRQ>:
NVIC_ClearPendingIRQ():
c:\microchip\softconsole-v2021.1\cmsis\v4.5\include/core_cm3.h:1499
{
2000138c:	b480      	push	{r7}
2000138e:	b083      	sub	sp, #12
20001390:	af00      	add	r7, sp, #0
20001392:	4603      	mov	r3, r0
20001394:	71fb      	strb	r3, [r7, #7]
c:\microchip\softconsole-v2021.1\cmsis\v4.5\include/core_cm3.h:1500
  NVIC->ICPR[(((uint32_t)(int32_t)IRQn) >> 5UL)] = (uint32_t)(1UL << (((uint32_t)(int32_t)IRQn) & 0x1FUL));
20001396:	79fb      	ldrb	r3, [r7, #7]
20001398:	f003 021f 	and.w	r2, r3, #31
2000139c:	4907      	ldr	r1, [pc, #28]	; (200013bc <NVIC_ClearPendingIRQ+0x30>)
2000139e:	f997 3007 	ldrsb.w	r3, [r7, #7]
200013a2:	095b      	lsrs	r3, r3, #5
200013a4:	2001      	movs	r0, #1
200013a6:	fa00 f202 	lsl.w	r2, r0, r2
200013aa:	3360      	adds	r3, #96	; 0x60
200013ac:	f841 2023 	str.w	r2, [r1, r3, lsl #2]
c:\microchip\softconsole-v2021.1\cmsis\v4.5\include/core_cm3.h:1501
}
200013b0:	bf00      	nop
200013b2:	370c      	adds	r7, #12
200013b4:	46bd      	mov	sp, r7
200013b6:	bc80      	pop	{r7}
200013b8:	4770      	bx	lr
200013ba:	bf00      	nop
200013bc:	e000e100 	.word	0xe000e100

200013c0 <MSS_RTC_init>:
MSS_RTC_init():
C:\Microchip\Libero_SoC_v2024.2\Designer\bin\projects\SMF2000-M3_ProjectRad\SC2021_Workspace_PRad\eNVM\Debug/../drivers/mss_rtc/mss_rtc.c:91
MSS_RTC_init
(
    uint8_t mode,
    uint32_t prescaler
)
{
200013c0:	b580      	push	{r7, lr}
200013c2:	b082      	sub	sp, #8
200013c4:	af00      	add	r7, sp, #0
200013c6:	4603      	mov	r3, r0
200013c8:	6039      	str	r1, [r7, #0]
200013ca:	71fb      	strb	r3, [r7, #7]
C:\Microchip\Libero_SoC_v2024.2\Designer\bin\projects\SMF2000-M3_ProjectRad\SC2021_Workspace_PRad\eNVM\Debug/../drivers/mss_rtc/mss_rtc.c:92
    ASSERT(prescaler <= MAX_PRESCALAR_COUNT);
200013cc:	683b      	ldr	r3, [r7, #0]
200013ce:	f1b3 6f80 	cmp.w	r3, #67108864	; 0x4000000
200013d2:	d300      	bcc.n	200013d6 <MSS_RTC_init+0x16>
C:\Microchip\Libero_SoC_v2024.2\Designer\bin\projects\SMF2000-M3_ProjectRad\SC2021_Workspace_PRad\eNVM\Debug/../drivers/mss_rtc/mss_rtc.c:92 (discriminator 1)
200013d4:	be00      	bkpt	0x0000
C:\Microchip\Libero_SoC_v2024.2\Designer\bin\projects\SMF2000-M3_ProjectRad\SC2021_Workspace_PRad\eNVM\Debug/../drivers/mss_rtc/mss_rtc.c:94

    if(prescaler <= MAX_PRESCALAR_COUNT)
200013d6:	683b      	ldr	r3, [r7, #0]
200013d8:	f1b3 6f80 	cmp.w	r3, #67108864	; 0x4000000
200013dc:	d22e      	bcs.n	2000143c <MSS_RTC_init+0x7c>
C:\Microchip\Libero_SoC_v2024.2\Designer\bin\projects\SMF2000-M3_ProjectRad\SC2021_Workspace_PRad\eNVM\Debug/../drivers/mss_rtc/mss_rtc.c:97
    {
        /* Stop the RTC. */
        MSS_RTC_stop();
200013de:	f000 f8ab 	bl	20001538 <MSS_RTC_stop>
C:\Microchip\Libero_SoC_v2024.2\Designer\bin\projects\SMF2000-M3_ProjectRad\SC2021_Workspace_PRad\eNVM\Debug/../drivers/mss_rtc/mss_rtc.c:100
        
        /* Disable alarm. */
        RTC->CONTROL_REG = CONTROL_ALARM_OFF_MASK;
200013e2:	4b18      	ldr	r3, [pc, #96]	; (20001444 <MSS_RTC_init+0x84>)
200013e4:	2208      	movs	r2, #8
200013e6:	601a      	str	r2, [r3, #0]
C:\Microchip\Libero_SoC_v2024.2\Designer\bin\projects\SMF2000-M3_ProjectRad\SC2021_Workspace_PRad\eNVM\Debug/../drivers/mss_rtc/mss_rtc.c:103
        
        /* Disable Interrupt */
        MSS_RTC_disable_irq();
200013e8:	f000 f8d9 	bl	2000159e <MSS_RTC_disable_irq>
C:\Microchip\Libero_SoC_v2024.2\Designer\bin\projects\SMF2000-M3_ProjectRad\SC2021_Workspace_PRad\eNVM\Debug/../drivers/mss_rtc/mss_rtc.c:104
        NVIC_ClearPendingIRQ(RTC_Wakeup_IRQn);
200013ec:	2001      	movs	r0, #1
200013ee:	f7ff ffcd 	bl	2000138c <NVIC_ClearPendingIRQ>
C:\Microchip\Libero_SoC_v2024.2\Designer\bin\projects\SMF2000-M3_ProjectRad\SC2021_Workspace_PRad\eNVM\Debug/../drivers/mss_rtc/mss_rtc.c:107

        /* Clear RTC wake up interrupt signal */
        MSS_RTC_clear_irq();
200013f2:	f000 f8db 	bl	200015ac <MSS_RTC_clear_irq>
C:\Microchip\Libero_SoC_v2024.2\Designer\bin\projects\SMF2000-M3_ProjectRad\SC2021_Workspace_PRad\eNVM\Debug/../drivers/mss_rtc/mss_rtc.c:110

        /* Enable the RTC to interrupt the Cortex-M3. */
        SYSREG->RTC_WAKEUP_CR |= SYSREG_RTC_WAKEUP_M3_EN_MASK;
200013f6:	4b14      	ldr	r3, [pc, #80]	; (20001448 <MSS_RTC_init+0x88>)
200013f8:	f8d3 3088 	ldr.w	r3, [r3, #136]	; 0x88
200013fc:	4a12      	ldr	r2, [pc, #72]	; (20001448 <MSS_RTC_init+0x88>)
200013fe:	f043 0301 	orr.w	r3, r3, #1
20001402:	f8c2 3088 	str.w	r3, [r2, #136]	; 0x88
C:\Microchip\Libero_SoC_v2024.2\Designer\bin\projects\SMF2000-M3_ProjectRad\SC2021_Workspace_PRad\eNVM\Debug/../drivers/mss_rtc/mss_rtc.c:113
        
        /* Select mode of operation, including the wake configuration. */
        if(MSS_RTC_CALENDAR_MODE == mode)
20001406:	79fb      	ldrb	r3, [r7, #7]
20001408:	2b01      	cmp	r3, #1
2000140a:	d103      	bne.n	20001414 <MSS_RTC_init+0x54>
C:\Microchip\Libero_SoC_v2024.2\Designer\bin\projects\SMF2000-M3_ProjectRad\SC2021_Workspace_PRad\eNVM\Debug/../drivers/mss_rtc/mss_rtc.c:115
        {
            RTC->MODE_REG = MODE_CLK_MODE_MASK;
2000140c:	4b0d      	ldr	r3, [pc, #52]	; (20001444 <MSS_RTC_init+0x84>)
2000140e:	2201      	movs	r2, #1
20001410:	605a      	str	r2, [r3, #4]
20001412:	e002      	b.n	2000141a <MSS_RTC_init+0x5a>
C:\Microchip\Libero_SoC_v2024.2\Designer\bin\projects\SMF2000-M3_ProjectRad\SC2021_Workspace_PRad\eNVM\Debug/../drivers/mss_rtc/mss_rtc.c:119
        }
        else
        {
            RTC->MODE_REG = 0u;
20001414:	4b0b      	ldr	r3, [pc, #44]	; (20001444 <MSS_RTC_init+0x84>)
20001416:	2200      	movs	r2, #0
20001418:	605a      	str	r2, [r3, #4]
C:\Microchip\Libero_SoC_v2024.2\Designer\bin\projects\SMF2000-M3_ProjectRad\SC2021_Workspace_PRad\eNVM\Debug/../drivers/mss_rtc/mss_rtc.c:123
        }
        
        /* Reset the alarm and compare registers to a known value. */
        RTC->ALARM_LOWER_REG = 0u;
2000141a:	4b0a      	ldr	r3, [pc, #40]	; (20001444 <MSS_RTC_init+0x84>)
2000141c:	2200      	movs	r2, #0
2000141e:	60da      	str	r2, [r3, #12]
C:\Microchip\Libero_SoC_v2024.2\Designer\bin\projects\SMF2000-M3_ProjectRad\SC2021_Workspace_PRad\eNVM\Debug/../drivers/mss_rtc/mss_rtc.c:124
        RTC->ALARM_UPPER_REG = 0u;
20001420:	4b08      	ldr	r3, [pc, #32]	; (20001444 <MSS_RTC_init+0x84>)
20001422:	2200      	movs	r2, #0
20001424:	611a      	str	r2, [r3, #16]
C:\Microchip\Libero_SoC_v2024.2\Designer\bin\projects\SMF2000-M3_ProjectRad\SC2021_Workspace_PRad\eNVM\Debug/../drivers/mss_rtc/mss_rtc.c:125
        RTC->COMPARE_LOWER_REG = 0u;
20001426:	4b07      	ldr	r3, [pc, #28]	; (20001444 <MSS_RTC_init+0x84>)
20001428:	2200      	movs	r2, #0
2000142a:	615a      	str	r2, [r3, #20]
C:\Microchip\Libero_SoC_v2024.2\Designer\bin\projects\SMF2000-M3_ProjectRad\SC2021_Workspace_PRad\eNVM\Debug/../drivers/mss_rtc/mss_rtc.c:126
        RTC->COMPARE_UPPER_REG = 0u;
2000142c:	4b05      	ldr	r3, [pc, #20]	; (20001444 <MSS_RTC_init+0x84>)
2000142e:	2200      	movs	r2, #0
20001430:	619a      	str	r2, [r3, #24]
C:\Microchip\Libero_SoC_v2024.2\Designer\bin\projects\SMF2000-M3_ProjectRad\SC2021_Workspace_PRad\eNVM\Debug/../drivers/mss_rtc/mss_rtc.c:129

        /* Reset the calendar counters */
        MSS_RTC_reset_counter();
20001432:	f000 f897 	bl	20001564 <MSS_RTC_reset_counter>
C:\Microchip\Libero_SoC_v2024.2\Designer\bin\projects\SMF2000-M3_ProjectRad\SC2021_Workspace_PRad\eNVM\Debug/../drivers/mss_rtc/mss_rtc.c:132

        /* Set new Prescaler value */
        RTC->PRESCALER_REG = prescaler;
20001436:	4a03      	ldr	r2, [pc, #12]	; (20001444 <MSS_RTC_init+0x84>)
20001438:	683b      	ldr	r3, [r7, #0]
2000143a:	6093      	str	r3, [r2, #8]
C:\Microchip\Libero_SoC_v2024.2\Designer\bin\projects\SMF2000-M3_ProjectRad\SC2021_Workspace_PRad\eNVM\Debug/../drivers/mss_rtc/mss_rtc.c:134
    }
}
2000143c:	bf00      	nop
2000143e:	3708      	adds	r7, #8
20001440:	46bd      	mov	sp, r7
20001442:	bd80      	pop	{r7, pc}
20001444:	40017000 	.word	0x40017000
20001448:	40038000 	.word	0x40038000

2000144c <set_rtc_mode>:
set_rtc_mode():
C:\Microchip\Libero_SoC_v2024.2\Designer\bin\projects\SMF2000-M3_ProjectRad\SC2021_Workspace_PRad\eNVM\Debug/../drivers/mss_rtc/mss_rtc.c:455
  to be stopped for the mode register to be written. Stopping the RTC every time
  the wakeup alarm configuration is set might induce drift on the RTC time.
  This function is intended to be used when setting alarms.
 */
static void set_rtc_mode(uint8_t requested_mode)
{
2000144c:	b580      	push	{r7, lr}
2000144e:	b084      	sub	sp, #16
20001450:	af00      	add	r7, sp, #0
20001452:	4603      	mov	r3, r0
20001454:	71fb      	strb	r3, [r7, #7]
C:\Microchip\Libero_SoC_v2024.2\Designer\bin\projects\SMF2000-M3_ProjectRad\SC2021_Workspace_PRad\eNVM\Debug/../drivers/mss_rtc/mss_rtc.c:456
    if(RTC->MODE_REG != requested_mode)
20001456:	4b0e      	ldr	r3, [pc, #56]	; (20001490 <set_rtc_mode+0x44>)
20001458:	685a      	ldr	r2, [r3, #4]
2000145a:	79fb      	ldrb	r3, [r7, #7]
2000145c:	429a      	cmp	r2, r3
2000145e:	d012      	beq.n	20001486 <set_rtc_mode+0x3a>
C:\Microchip\Libero_SoC_v2024.2\Designer\bin\projects\SMF2000-M3_ProjectRad\SC2021_Workspace_PRad\eNVM\Debug/../drivers/mss_rtc/mss_rtc.c:459
    {
        uint32_t rtc_running;
        rtc_running = RTC->CONTROL_REG & CONTROL_RUNNING_MASK;
20001460:	4b0b      	ldr	r3, [pc, #44]	; (20001490 <set_rtc_mode+0x44>)
20001462:	681b      	ldr	r3, [r3, #0]
20001464:	f003 0301 	and.w	r3, r3, #1
20001468:	60fb      	str	r3, [r7, #12]
C:\Microchip\Libero_SoC_v2024.2\Designer\bin\projects\SMF2000-M3_ProjectRad\SC2021_Workspace_PRad\eNVM\Debug/../drivers/mss_rtc/mss_rtc.c:460
        if(rtc_running)
2000146a:	68fb      	ldr	r3, [r7, #12]
2000146c:	2b00      	cmp	r3, #0
2000146e:	d007      	beq.n	20001480 <set_rtc_mode+0x34>
C:\Microchip\Libero_SoC_v2024.2\Designer\bin\projects\SMF2000-M3_ProjectRad\SC2021_Workspace_PRad\eNVM\Debug/../drivers/mss_rtc/mss_rtc.c:463
        {
            /* Stop the RTC in order to change the mode register content.*/
            MSS_RTC_stop();
20001470:	f000 f862 	bl	20001538 <MSS_RTC_stop>
C:\Microchip\Libero_SoC_v2024.2\Designer\bin\projects\SMF2000-M3_ProjectRad\SC2021_Workspace_PRad\eNVM\Debug/../drivers/mss_rtc/mss_rtc.c:464
            RTC->MODE_REG = requested_mode;
20001474:	4a06      	ldr	r2, [pc, #24]	; (20001490 <set_rtc_mode+0x44>)
20001476:	79fb      	ldrb	r3, [r7, #7]
20001478:	6053      	str	r3, [r2, #4]
C:\Microchip\Libero_SoC_v2024.2\Designer\bin\projects\SMF2000-M3_ProjectRad\SC2021_Workspace_PRad\eNVM\Debug/../drivers/mss_rtc/mss_rtc.c:465
            MSS_RTC_start();
2000147a:	f000 f851 	bl	20001520 <MSS_RTC_start>
C:\Microchip\Libero_SoC_v2024.2\Designer\bin\projects\SMF2000-M3_ProjectRad\SC2021_Workspace_PRad\eNVM\Debug/../drivers/mss_rtc/mss_rtc.c:472
        else
        {
            RTC->MODE_REG = requested_mode;
        }
    }
}
2000147e:	e002      	b.n	20001486 <set_rtc_mode+0x3a>
C:\Microchip\Libero_SoC_v2024.2\Designer\bin\projects\SMF2000-M3_ProjectRad\SC2021_Workspace_PRad\eNVM\Debug/../drivers/mss_rtc/mss_rtc.c:469
            RTC->MODE_REG = requested_mode;
20001480:	4a03      	ldr	r2, [pc, #12]	; (20001490 <set_rtc_mode+0x44>)
20001482:	79fb      	ldrb	r3, [r7, #7]
20001484:	6053      	str	r3, [r2, #4]
C:\Microchip\Libero_SoC_v2024.2\Designer\bin\projects\SMF2000-M3_ProjectRad\SC2021_Workspace_PRad\eNVM\Debug/../drivers/mss_rtc/mss_rtc.c:472
}
20001486:	bf00      	nop
20001488:	3710      	adds	r7, #16
2000148a:	46bd      	mov	sp, r7
2000148c:	bd80      	pop	{r7, pc}
2000148e:	bf00      	nop
20001490:	40017000 	.word	0x40017000

20001494 <MSS_RTC_set_binary_count_alarm>:
MSS_RTC_set_binary_count_alarm():
C:\Microchip\Libero_SoC_v2024.2\Designer\bin\projects\SMF2000-M3_ProjectRad\SC2021_Workspace_PRad\eNVM\Debug/../drivers/mss_rtc/mss_rtc.c:482
void MSS_RTC_set_binary_count_alarm
(
    uint64_t alarm_value,
    mss_rtc_alarm_type_t alarm_type
)
{
20001494:	b580      	push	{r7, lr}
20001496:	b086      	sub	sp, #24
20001498:	af00      	add	r7, sp, #0
2000149a:	e9c7 0102 	strd	r0, r1, [r7, #8]
2000149e:	4613      	mov	r3, r2
200014a0:	71fb      	strb	r3, [r7, #7]
C:\Microchip\Libero_SoC_v2024.2\Designer\bin\projects\SMF2000-M3_ProjectRad\SC2021_Workspace_PRad\eNVM\Debug/../drivers/mss_rtc/mss_rtc.c:485
    uint8_t mode;
    
    mode = (uint8_t)(RTC->MODE_REG & MODE_CLK_MODE_MASK);
200014a2:	4b1e      	ldr	r3, [pc, #120]	; (2000151c <MSS_RTC_set_binary_count_alarm+0x88>)
200014a4:	685b      	ldr	r3, [r3, #4]
200014a6:	b2db      	uxtb	r3, r3
200014a8:	f003 0301 	and.w	r3, r3, #1
200014ac:	75bb      	strb	r3, [r7, #22]
C:\Microchip\Libero_SoC_v2024.2\Designer\bin\projects\SMF2000-M3_ProjectRad\SC2021_Workspace_PRad\eNVM\Debug/../drivers/mss_rtc/mss_rtc.c:490
    /*
     * This function can only be used with the RTC set to operate in binary
     * counter mode.
     */
    ASSERT(MSS_RTC_BINARY_MODE == mode);
200014ae:	7dbb      	ldrb	r3, [r7, #22]
200014b0:	2b00      	cmp	r3, #0
200014b2:	d000      	beq.n	200014b6 <MSS_RTC_set_binary_count_alarm+0x22>
C:\Microchip\Libero_SoC_v2024.2\Designer\bin\projects\SMF2000-M3_ProjectRad\SC2021_Workspace_PRad\eNVM\Debug/../drivers/mss_rtc/mss_rtc.c:490 (discriminator 1)
200014b4:	be00      	bkpt	0x0000
C:\Microchip\Libero_SoC_v2024.2\Designer\bin\projects\SMF2000-M3_ProjectRad\SC2021_Workspace_PRad\eNVM\Debug/../drivers/mss_rtc/mss_rtc.c:491
    if(MSS_RTC_BINARY_MODE == mode)
200014b6:	7dbb      	ldrb	r3, [r7, #22]
200014b8:	2b00      	cmp	r3, #0
200014ba:	d12a      	bne.n	20001512 <MSS_RTC_set_binary_count_alarm+0x7e>
C:\Microchip\Libero_SoC_v2024.2\Designer\bin\projects\SMF2000-M3_ProjectRad\SC2021_Workspace_PRad\eNVM\Debug/../drivers/mss_rtc/mss_rtc.c:496
    {
        uint8_t required_mode_reg;
        
        /* Disable the alarm before updating*/
        RTC->CONTROL_REG = CONTROL_ALARM_OFF_MASK;
200014bc:	4b17      	ldr	r3, [pc, #92]	; (2000151c <MSS_RTC_set_binary_count_alarm+0x88>)
200014be:	2208      	movs	r2, #8
200014c0:	601a      	str	r2, [r3, #0]
C:\Microchip\Libero_SoC_v2024.2\Designer\bin\projects\SMF2000-M3_ProjectRad\SC2021_Workspace_PRad\eNVM\Debug/../drivers/mss_rtc/mss_rtc.c:499

        /* Set the alarm value. */
        RTC->COMPARE_LOWER_REG = COMPARE_ALL_BITS;
200014c2:	4b16      	ldr	r3, [pc, #88]	; (2000151c <MSS_RTC_set_binary_count_alarm+0x88>)
200014c4:	f04f 32ff 	mov.w	r2, #4294967295
200014c8:	615a      	str	r2, [r3, #20]
C:\Microchip\Libero_SoC_v2024.2\Designer\bin\projects\SMF2000-M3_ProjectRad\SC2021_Workspace_PRad\eNVM\Debug/../drivers/mss_rtc/mss_rtc.c:500
        RTC->COMPARE_UPPER_REG = COMPARE_ALL_BITS;
200014ca:	4b14      	ldr	r3, [pc, #80]	; (2000151c <MSS_RTC_set_binary_count_alarm+0x88>)
200014cc:	f04f 32ff 	mov.w	r2, #4294967295
200014d0:	619a      	str	r2, [r3, #24]
C:\Microchip\Libero_SoC_v2024.2\Designer\bin\projects\SMF2000-M3_ProjectRad\SC2021_Workspace_PRad\eNVM\Debug/../drivers/mss_rtc/mss_rtc.c:501
        RTC->ALARM_LOWER_REG = (uint32_t)alarm_value;
200014d2:	4a12      	ldr	r2, [pc, #72]	; (2000151c <MSS_RTC_set_binary_count_alarm+0x88>)
200014d4:	68bb      	ldr	r3, [r7, #8]
200014d6:	60d3      	str	r3, [r2, #12]
C:\Microchip\Libero_SoC_v2024.2\Designer\bin\projects\SMF2000-M3_ProjectRad\SC2021_Workspace_PRad\eNVM\Debug/../drivers/mss_rtc/mss_rtc.c:502
        RTC->ALARM_UPPER_REG = (uint32_t)(alarm_value >> 32u);
200014d8:	e9d7 0102 	ldrd	r0, r1, [r7, #8]
200014dc:	f04f 0200 	mov.w	r2, #0
200014e0:	f04f 0300 	mov.w	r3, #0
200014e4:	000a      	movs	r2, r1
200014e6:	2300      	movs	r3, #0
200014e8:	490c      	ldr	r1, [pc, #48]	; (2000151c <MSS_RTC_set_binary_count_alarm+0x88>)
200014ea:	4613      	mov	r3, r2
200014ec:	610b      	str	r3, [r1, #16]
C:\Microchip\Libero_SoC_v2024.2\Designer\bin\projects\SMF2000-M3_ProjectRad\SC2021_Workspace_PRad\eNVM\Debug/../drivers/mss_rtc/mss_rtc.c:507

        /*
         * Configure the RTC to enable the alarm.
         */
        required_mode_reg = mode | MODE_WAKEUP_EN_MASK | MODE_WAKEUP_CONTINUE_MASK;
200014ee:	7dbb      	ldrb	r3, [r7, #22]
200014f0:	f043 030a 	orr.w	r3, r3, #10
200014f4:	75fb      	strb	r3, [r7, #23]
C:\Microchip\Libero_SoC_v2024.2\Designer\bin\projects\SMF2000-M3_ProjectRad\SC2021_Workspace_PRad\eNVM\Debug/../drivers/mss_rtc/mss_rtc.c:508
        if(MSS_RTC_PERIODIC_ALARM == alarm_type)
200014f6:	79fb      	ldrb	r3, [r7, #7]
200014f8:	2b01      	cmp	r3, #1
200014fa:	d103      	bne.n	20001504 <MSS_RTC_set_binary_count_alarm+0x70>
C:\Microchip\Libero_SoC_v2024.2\Designer\bin\projects\SMF2000-M3_ProjectRad\SC2021_Workspace_PRad\eNVM\Debug/../drivers/mss_rtc/mss_rtc.c:515
            /*
             * The RTC binary counter will be fully reset when the alarm occurs.
             * The counter will continue counting while the wake-up interrupt is
             * active.
             */
            required_mode_reg |= MODE_WAKEUP_RESET_MASK;
200014fc:	7dfb      	ldrb	r3, [r7, #23]
200014fe:	f043 0304 	orr.w	r3, r3, #4
20001502:	75fb      	strb	r3, [r7, #23]
C:\Microchip\Libero_SoC_v2024.2\Designer\bin\projects\SMF2000-M3_ProjectRad\SC2021_Workspace_PRad\eNVM\Debug/../drivers/mss_rtc/mss_rtc.c:517
        }
        set_rtc_mode(required_mode_reg);
20001504:	7dfb      	ldrb	r3, [r7, #23]
20001506:	4618      	mov	r0, r3
20001508:	f7ff ffa0 	bl	2000144c <set_rtc_mode>
C:\Microchip\Libero_SoC_v2024.2\Designer\bin\projects\SMF2000-M3_ProjectRad\SC2021_Workspace_PRad\eNVM\Debug/../drivers/mss_rtc/mss_rtc.c:520
        
        /* Enable the alarm */
        RTC->CONTROL_REG = CONTROL_ALARM_ON_MASK;
2000150c:	4b03      	ldr	r3, [pc, #12]	; (2000151c <MSS_RTC_set_binary_count_alarm+0x88>)
2000150e:	2204      	movs	r2, #4
20001510:	601a      	str	r2, [r3, #0]
C:\Microchip\Libero_SoC_v2024.2\Designer\bin\projects\SMF2000-M3_ProjectRad\SC2021_Workspace_PRad\eNVM\Debug/../drivers/mss_rtc/mss_rtc.c:522
    }
}
20001512:	bf00      	nop
20001514:	3718      	adds	r7, #24
20001516:	46bd      	mov	sp, r7
20001518:	bd80      	pop	{r7, pc}
2000151a:	bf00      	nop
2000151c:	40017000 	.word	0x40017000

20001520 <MSS_RTC_start>:
MSS_RTC_start():
C:\Microchip\Libero_SoC_v2024.2\Designer\bin\projects\SMF2000-M3_ProjectRad\SC2021_Workspace_PRad\eNVM\Debug/../drivers/mss_rtc/mss_rtc.c:532
void
MSS_RTC_start
(
    void
)
{
20001520:	b480      	push	{r7}
20001522:	af00      	add	r7, sp, #0
C:\Microchip\Libero_SoC_v2024.2\Designer\bin\projects\SMF2000-M3_ProjectRad\SC2021_Workspace_PRad\eNVM\Debug/../drivers/mss_rtc/mss_rtc.c:533
    RTC->CONTROL_REG = CONTROL_RTC_START_MASK;
20001524:	4b03      	ldr	r3, [pc, #12]	; (20001534 <MSS_RTC_start+0x14>)
20001526:	2201      	movs	r2, #1
20001528:	601a      	str	r2, [r3, #0]
C:\Microchip\Libero_SoC_v2024.2\Designer\bin\projects\SMF2000-M3_ProjectRad\SC2021_Workspace_PRad\eNVM\Debug/../drivers/mss_rtc/mss_rtc.c:534
}
2000152a:	bf00      	nop
2000152c:	46bd      	mov	sp, r7
2000152e:	bc80      	pop	{r7}
20001530:	4770      	bx	lr
20001532:	bf00      	nop
20001534:	40017000 	.word	0x40017000

20001538 <MSS_RTC_stop>:
MSS_RTC_stop():
C:\Microchip\Libero_SoC_v2024.2\Designer\bin\projects\SMF2000-M3_ProjectRad\SC2021_Workspace_PRad\eNVM\Debug/../drivers/mss_rtc/mss_rtc.c:544
void
MSS_RTC_stop
(
    void
)
{
20001538:	b480      	push	{r7}
2000153a:	b083      	sub	sp, #12
2000153c:	af00      	add	r7, sp, #0
C:\Microchip\Libero_SoC_v2024.2\Designer\bin\projects\SMF2000-M3_ProjectRad\SC2021_Workspace_PRad\eNVM\Debug/../drivers/mss_rtc/mss_rtc.c:550
    uint32_t rtc_running;
    
    /*
     * Send command to stop RTC.
     */
    RTC->CONTROL_REG = CONTROL_RTC_STOP_MASK;
2000153e:	4b08      	ldr	r3, [pc, #32]	; (20001560 <MSS_RTC_stop+0x28>)
20001540:	2202      	movs	r2, #2
20001542:	601a      	str	r2, [r3, #0]
C:\Microchip\Libero_SoC_v2024.2\Designer\bin\projects\SMF2000-M3_ProjectRad\SC2021_Workspace_PRad\eNVM\Debug/../drivers/mss_rtc/mss_rtc.c:557 (discriminator 1)
    /* 
     * Wait for RTC internal synchronization to take place and RTC to actually
     * stop.
     */
    do {
        rtc_running =  RTC->CONTROL_REG & CONTROL_RUNNING_MASK;
20001544:	4b06      	ldr	r3, [pc, #24]	; (20001560 <MSS_RTC_stop+0x28>)
20001546:	681b      	ldr	r3, [r3, #0]
20001548:	f003 0301 	and.w	r3, r3, #1
2000154c:	607b      	str	r3, [r7, #4]
C:\Microchip\Libero_SoC_v2024.2\Designer\bin\projects\SMF2000-M3_ProjectRad\SC2021_Workspace_PRad\eNVM\Debug/../drivers/mss_rtc/mss_rtc.c:558 (discriminator 1)
    } while(rtc_running);
2000154e:	687b      	ldr	r3, [r7, #4]
20001550:	2b00      	cmp	r3, #0
20001552:	d1f7      	bne.n	20001544 <MSS_RTC_stop+0xc>
C:\Microchip\Libero_SoC_v2024.2\Designer\bin\projects\SMF2000-M3_ProjectRad\SC2021_Workspace_PRad\eNVM\Debug/../drivers/mss_rtc/mss_rtc.c:559
}
20001554:	bf00      	nop
20001556:	bf00      	nop
20001558:	370c      	adds	r7, #12
2000155a:	46bd      	mov	sp, r7
2000155c:	bc80      	pop	{r7}
2000155e:	4770      	bx	lr
20001560:	40017000 	.word	0x40017000

20001564 <MSS_RTC_reset_counter>:
MSS_RTC_reset_counter():
C:\Microchip\Libero_SoC_v2024.2\Designer\bin\projects\SMF2000-M3_ProjectRad\SC2021_Workspace_PRad\eNVM\Debug/../drivers/mss_rtc/mss_rtc.c:569
void
MSS_RTC_reset_counter
(
    void
)
{
20001564:	b480      	push	{r7}
20001566:	b083      	sub	sp, #12
20001568:	af00      	add	r7, sp, #0
C:\Microchip\Libero_SoC_v2024.2\Designer\bin\projects\SMF2000-M3_ProjectRad\SC2021_Workspace_PRad\eNVM\Debug/../drivers/mss_rtc/mss_rtc.c:572
    uint32_t upload_in_progress;
    
    RTC->CONTROL_REG = CONTROL_RESET_MASK;
2000156a:	4b08      	ldr	r3, [pc, #32]	; (2000158c <MSS_RTC_reset_counter+0x28>)
2000156c:	2210      	movs	r2, #16
2000156e:	601a      	str	r2, [r3, #0]
C:\Microchip\Libero_SoC_v2024.2\Designer\bin\projects\SMF2000-M3_ProjectRad\SC2021_Workspace_PRad\eNVM\Debug/../drivers/mss_rtc/mss_rtc.c:576 (discriminator 1)
    
    /* Wait for the upload to complete. */
    do {
        upload_in_progress = RTC->CONTROL_REG & CONTROL_UPLOAD_MASK;
20001570:	4b06      	ldr	r3, [pc, #24]	; (2000158c <MSS_RTC_reset_counter+0x28>)
20001572:	681b      	ldr	r3, [r3, #0]
20001574:	f003 0320 	and.w	r3, r3, #32
20001578:	607b      	str	r3, [r7, #4]
C:\Microchip\Libero_SoC_v2024.2\Designer\bin\projects\SMF2000-M3_ProjectRad\SC2021_Workspace_PRad\eNVM\Debug/../drivers/mss_rtc/mss_rtc.c:577 (discriminator 1)
    } while(upload_in_progress);
2000157a:	687b      	ldr	r3, [r7, #4]
2000157c:	2b00      	cmp	r3, #0
2000157e:	d1f7      	bne.n	20001570 <MSS_RTC_reset_counter+0xc>
C:\Microchip\Libero_SoC_v2024.2\Designer\bin\projects\SMF2000-M3_ProjectRad\SC2021_Workspace_PRad\eNVM\Debug/../drivers/mss_rtc/mss_rtc.c:578
}
20001580:	bf00      	nop
20001582:	bf00      	nop
20001584:	370c      	adds	r7, #12
20001586:	46bd      	mov	sp, r7
20001588:	bc80      	pop	{r7}
2000158a:	4770      	bx	lr
2000158c:	40017000 	.word	0x40017000

20001590 <MSS_RTC_enable_irq>:
MSS_RTC_enable_irq():
C:\Microchip\Libero_SoC_v2024.2\Designer\bin\projects\SMF2000-M3_ProjectRad\SC2021_Workspace_PRad\eNVM\Debug/../drivers/mss_rtc/mss_rtc.c:603

/*-------------------------------------------------------------------------*//**
  See "mss_rtc.h" for details of how to use this function.
 */
void MSS_RTC_enable_irq(void)
{
20001590:	b580      	push	{r7, lr}
20001592:	af00      	add	r7, sp, #0
C:\Microchip\Libero_SoC_v2024.2\Designer\bin\projects\SMF2000-M3_ProjectRad\SC2021_Workspace_PRad\eNVM\Debug/../drivers/mss_rtc/mss_rtc.c:611
     * The RTC level interrupt enable is performed within the alarm setting
     * functions.
     * This avoid the MODE register being modified whenever Cortex-M3 RTC
     * interrupts are enabled/disabled. 
     */
    NVIC_EnableIRQ(RTC_Wakeup_IRQn);
20001594:	2001      	movs	r0, #1
20001596:	f7ff fec7 	bl	20001328 <NVIC_EnableIRQ>
C:\Microchip\Libero_SoC_v2024.2\Designer\bin\projects\SMF2000-M3_ProjectRad\SC2021_Workspace_PRad\eNVM\Debug/../drivers/mss_rtc/mss_rtc.c:612
}
2000159a:	bf00      	nop
2000159c:	bd80      	pop	{r7, pc}

2000159e <MSS_RTC_disable_irq>:
MSS_RTC_disable_irq():
C:\Microchip\Libero_SoC_v2024.2\Designer\bin\projects\SMF2000-M3_ProjectRad\SC2021_Workspace_PRad\eNVM\Debug/../drivers/mss_rtc/mss_rtc.c:622
void
MSS_RTC_disable_irq
(
    void
)
{
2000159e:	b580      	push	{r7, lr}
200015a0:	af00      	add	r7, sp, #0
C:\Microchip\Libero_SoC_v2024.2\Designer\bin\projects\SMF2000-M3_ProjectRad\SC2021_Workspace_PRad\eNVM\Debug/../drivers/mss_rtc/mss_rtc.c:628
    /*
     * Only the NVIC level interrupt disable is performed within this function.
     * This avoid the MODE register being modified whenever Cortex-M3 RTC
     * interrupts are enabled/disabled. 
     */
    NVIC_DisableIRQ(RTC_Wakeup_IRQn);
200015a2:	2001      	movs	r0, #1
200015a4:	f7ff fed8 	bl	20001358 <NVIC_DisableIRQ>
C:\Microchip\Libero_SoC_v2024.2\Designer\bin\projects\SMF2000-M3_ProjectRad\SC2021_Workspace_PRad\eNVM\Debug/../drivers/mss_rtc/mss_rtc.c:629
}
200015a8:	bf00      	nop
200015aa:	bd80      	pop	{r7, pc}

200015ac <MSS_RTC_clear_irq>:
MSS_RTC_clear_irq():
C:\Microchip\Libero_SoC_v2024.2\Designer\bin\projects\SMF2000-M3_ProjectRad\SC2021_Workspace_PRad\eNVM\Debug/../drivers/mss_rtc/mss_rtc.c:639
void
MSS_RTC_clear_irq
(
    void
)
{
200015ac:	b480      	push	{r7}
200015ae:	b083      	sub	sp, #12
200015b0:	af00      	add	r7, sp, #0
C:\Microchip\Libero_SoC_v2024.2\Designer\bin\projects\SMF2000-M3_ProjectRad\SC2021_Workspace_PRad\eNVM\Debug/../drivers/mss_rtc/mss_rtc.c:643
    volatile uint32_t dummy_read;
    
    /* Clear wake up interrupt signal */
    RTC->CONTROL_REG = CONTROL_WAKEUP_CLR_MASK;
200015b2:	4b07      	ldr	r3, [pc, #28]	; (200015d0 <MSS_RTC_clear_irq+0x24>)
200015b4:	f44f 7280 	mov.w	r2, #256	; 0x100
200015b8:	601a      	str	r2, [r3, #0]
C:\Microchip\Libero_SoC_v2024.2\Designer\bin\projects\SMF2000-M3_ProjectRad\SC2021_Workspace_PRad\eNVM\Debug/../drivers/mss_rtc/mss_rtc.c:650
    /*
    * Ensure that the posted write to the CONTROL_REG register completed before
    * returning from this function. Not doing this may result in the interrupt
    * only being cleared some time after this function returns.
    */
    dummy_read = RTC->CONTROL_REG;
200015ba:	4b05      	ldr	r3, [pc, #20]	; (200015d0 <MSS_RTC_clear_irq+0x24>)
200015bc:	681b      	ldr	r3, [r3, #0]
200015be:	607b      	str	r3, [r7, #4]
C:\Microchip\Libero_SoC_v2024.2\Designer\bin\projects\SMF2000-M3_ProjectRad\SC2021_Workspace_PRad\eNVM\Debug/../drivers/mss_rtc/mss_rtc.c:653
    
    /* Dummy operation to avoid warning message */
    ++dummy_read;
200015c0:	687b      	ldr	r3, [r7, #4]
200015c2:	3301      	adds	r3, #1
200015c4:	607b      	str	r3, [r7, #4]
C:\Microchip\Libero_SoC_v2024.2\Designer\bin\projects\SMF2000-M3_ProjectRad\SC2021_Workspace_PRad\eNVM\Debug/../drivers/mss_rtc/mss_rtc.c:654
}
200015c6:	bf00      	nop
200015c8:	370c      	adds	r7, #12
200015ca:	46bd      	mov	sp, r7
200015cc:	bc80      	pop	{r7}
200015ce:	4770      	bx	lr
200015d0:	40017000 	.word	0x40017000

200015d4 <NVM_write>:
NVM_write():
C:\Microchip\Libero_SoC_v2024.2\Designer\bin\projects\SMF2000-M3_ProjectRad\SC2021_Workspace_PRad\eNVM\Debug/../drivers/mss_nvm/mss_nvm.c:152
    uint32_t start_addr,
    const uint8_t * pidata,
    uint32_t length,
    uint32_t lock_page
)
{
200015d4:	b580      	push	{r7, lr}
200015d6:	b08e      	sub	sp, #56	; 0x38
200015d8:	af02      	add	r7, sp, #8
200015da:	60f8      	str	r0, [r7, #12]
200015dc:	60b9      	str	r1, [r7, #8]
200015de:	607a      	str	r2, [r7, #4]
200015e0:	603b      	str	r3, [r7, #0]
C:\Microchip\Libero_SoC_v2024.2\Designer\bin\projects\SMF2000-M3_ProjectRad\SC2021_Workspace_PRad\eNVM\Debug/../drivers/mss_nvm/mss_nvm.c:154
    nvm_status_t status;
    nvm_status_t lock_status = NVM_SUCCESS;
200015e2:	2300      	movs	r3, #0
200015e4:	f887 302e 	strb.w	r3, [r7, #46]	; 0x2e
C:\Microchip\Libero_SoC_v2024.2\Designer\bin\projects\SMF2000-M3_ProjectRad\SC2021_Workspace_PRad\eNVM\Debug/../drivers/mss_nvm/mss_nvm.c:159
    uint32_t nvm_offset;
    uint32_t device_version;
    uint32_t initial_nvm_config;

    g_do_not_lock_page = OFF;
200015e8:	4b70      	ldr	r3, [pc, #448]	; (200017ac <NVM_write+0x1d8>)
200015ea:	2200      	movs	r2, #0
200015ec:	701a      	strb	r2, [r3, #0]
C:\Microchip\Libero_SoC_v2024.2\Designer\bin\projects\SMF2000-M3_ProjectRad\SC2021_Workspace_PRad\eNVM\Debug/../drivers/mss_nvm/mss_nvm.c:168
     * to its maximum value (i.e. 15) to ensure successful writes to eNVM. 
     * Store the value of the eNVM configuration before updating it, so 
     * that the prior configuration can be restored when the eNVM write
     * operation has completed. 
     */
    initial_nvm_config = SYSREG->ENVM_CR;
200015ee:	4b70      	ldr	r3, [pc, #448]	; (200017b0 <NVM_write+0x1dc>)
200015f0:	68db      	ldr	r3, [r3, #12]
200015f2:	627b      	str	r3, [r7, #36]	; 0x24
C:\Microchip\Libero_SoC_v2024.2\Designer\bin\projects\SMF2000-M3_ProjectRad\SC2021_Workspace_PRad\eNVM\Debug/../drivers/mss_nvm/mss_nvm.c:169
    SYSREG->ENVM_CR = (initial_nvm_config & NVM_FREQRNG_MASK) | NVM_FREQRNG_MAX;
200015f4:	4a6e      	ldr	r2, [pc, #440]	; (200017b0 <NVM_write+0x1dc>)
200015f6:	6a7b      	ldr	r3, [r7, #36]	; 0x24
200015f8:	f443 53ff 	orr.w	r3, r3, #8160	; 0x1fe0
200015fc:	60d3      	str	r3, [r2, #12]
C:\Microchip\Libero_SoC_v2024.2\Designer\bin\projects\SMF2000-M3_ProjectRad\SC2021_Workspace_PRad\eNVM\Debug/../drivers/mss_nvm/mss_nvm.c:172

    /* Check input parameters */
    if((start_addr >= (NVM_BASE_ADDRESS + NVM_TOP_OFFSET)) ||
200015fe:	68fb      	ldr	r3, [r7, #12]
20001600:	4a6c      	ldr	r2, [pc, #432]	; (200017b4 <NVM_write+0x1e0>)
20001602:	4293      	cmp	r3, r2
20001604:	d210      	bcs.n	20001628 <NVM_write+0x54>
C:\Microchip\Libero_SoC_v2024.2\Designer\bin\projects\SMF2000-M3_ProjectRad\SC2021_Workspace_PRad\eNVM\Debug/../drivers/mss_nvm/mss_nvm.c:172 (discriminator 1)
20001606:	68fb      	ldr	r3, [r7, #12]
20001608:	4a6b      	ldr	r2, [pc, #428]	; (200017b8 <NVM_write+0x1e4>)
2000160a:	4293      	cmp	r3, r2
2000160c:	d903      	bls.n	20001616 <NVM_write+0x42>
C:\Microchip\Libero_SoC_v2024.2\Designer\bin\projects\SMF2000-M3_ProjectRad\SC2021_Workspace_PRad\eNVM\Debug/../drivers/mss_nvm/mss_nvm.c:173
        ((start_addr >= NVM_TOP_OFFSET) &&
2000160e:	68fb      	ldr	r3, [r7, #12]
20001610:	f1b3 4fc0 	cmp.w	r3, #1610612736	; 0x60000000
20001614:	d308      	bcc.n	20001628 <NVM_write+0x54>
C:\Microchip\Libero_SoC_v2024.2\Designer\bin\projects\SMF2000-M3_ProjectRad\SC2021_Workspace_PRad\eNVM\Debug/../drivers/mss_nvm/mss_nvm.c:174
        (start_addr < NVM_BASE_ADDRESS)) ||
20001616:	68bb      	ldr	r3, [r7, #8]
20001618:	2b00      	cmp	r3, #0
2000161a:	d005      	beq.n	20001628 <NVM_write+0x54>
C:\Microchip\Libero_SoC_v2024.2\Designer\bin\projects\SMF2000-M3_ProjectRad\SC2021_Workspace_PRad\eNVM\Debug/../drivers/mss_nvm/mss_nvm.c:175
        (0u == pidata) ||
2000161c:	687b      	ldr	r3, [r7, #4]
2000161e:	2b00      	cmp	r3, #0
20001620:	d002      	beq.n	20001628 <NVM_write+0x54>
C:\Microchip\Libero_SoC_v2024.2\Designer\bin\projects\SMF2000-M3_ProjectRad\SC2021_Workspace_PRad\eNVM\Debug/../drivers/mss_nvm/mss_nvm.c:176
        (0u == length) ||
20001622:	683b      	ldr	r3, [r7, #0]
20001624:	2b02      	cmp	r3, #2
20001626:	d903      	bls.n	20001630 <NVM_write+0x5c>
C:\Microchip\Libero_SoC_v2024.2\Designer\bin\projects\SMF2000-M3_ProjectRad\SC2021_Workspace_PRad\eNVM\Debug/../drivers/mss_nvm/mss_nvm.c:179
        (lock_page > PARAM_LOCK_PAGE_FLAG))
    {
        status =  NVM_INVALID_PARAMETER;
20001628:	2307      	movs	r3, #7
2000162a:	f887 302f 	strb.w	r3, [r7, #47]	; 0x2f
2000162e:	e0a4      	b.n	2000177a <NVM_write+0x1a6>
C:\Microchip\Libero_SoC_v2024.2\Designer\bin\projects\SMF2000-M3_ProjectRad\SC2021_Workspace_PRad\eNVM\Debug/../drivers/mss_nvm/mss_nvm.c:188

        /*
         * Prevent pages being locked for silicon versions which do not allow
         * locked pages to be unlocked.
         */
        device_version = SYSREG->DEVICE_VERSION;
20001630:	4b5f      	ldr	r3, [pc, #380]	; (200017b0 <NVM_write+0x1dc>)
20001632:	f8d3 314c 	ldr.w	r3, [r3, #332]	; 0x14c
20001636:	623b      	str	r3, [r7, #32]
C:\Microchip\Libero_SoC_v2024.2\Designer\bin\projects\SMF2000-M3_ProjectRad\SC2021_Workspace_PRad\eNVM\Debug/../drivers/mss_nvm/mss_nvm.c:189
        if((0x0000F802u == device_version) || (0x0001F802u == device_version))
20001638:	6a3b      	ldr	r3, [r7, #32]
2000163a:	f64f 0202 	movw	r2, #63490	; 0xf802
2000163e:	4293      	cmp	r3, r2
20001640:	d003      	beq.n	2000164a <NVM_write+0x76>
C:\Microchip\Libero_SoC_v2024.2\Designer\bin\projects\SMF2000-M3_ProjectRad\SC2021_Workspace_PRad\eNVM\Debug/../drivers/mss_nvm/mss_nvm.c:189 (discriminator 1)
20001642:	6a3b      	ldr	r3, [r7, #32]
20001644:	4a5d      	ldr	r2, [pc, #372]	; (200017bc <NVM_write+0x1e8>)
20001646:	4293      	cmp	r3, r2
20001648:	d101      	bne.n	2000164e <NVM_write+0x7a>
C:\Microchip\Libero_SoC_v2024.2\Designer\bin\projects\SMF2000-M3_ProjectRad\SC2021_Workspace_PRad\eNVM\Debug/../drivers/mss_nvm/mss_nvm.c:191
        {
            lock_page = NVM_DO_NOT_LOCK_PAGE;
2000164a:	2300      	movs	r3, #0
2000164c:	603b      	str	r3, [r7, #0]
C:\Microchip\Libero_SoC_v2024.2\Designer\bin\projects\SMF2000-M3_ProjectRad\SC2021_Workspace_PRad\eNVM\Debug/../drivers/mss_nvm/mss_nvm.c:195
        }

        /* Ignore upper address bits to ignore remapping setting. */
        nvm_offset = start_addr & NVM_OFFSET_SIGNIFICANT_BITS;  
2000164e:	68fb      	ldr	r3, [r7, #12]
20001650:	f3c3 0312 	ubfx	r3, r3, #0, #19
20001654:	61fb      	str	r3, [r7, #28]
C:\Microchip\Libero_SoC_v2024.2\Designer\bin\projects\SMF2000-M3_ProjectRad\SC2021_Workspace_PRad\eNVM\Debug/../drivers/mss_nvm/mss_nvm.c:201
        
        /* 
         * SAR 70908.
         * Check nvm offset is in protection or reserved area of eNVM
         */
        status = check_protection_reserved_nvm(nvm_offset, length);
20001656:	6879      	ldr	r1, [r7, #4]
20001658:	69f8      	ldr	r0, [r7, #28]
2000165a:	f000 fbb9 	bl	20001dd0 <check_protection_reserved_nvm>
2000165e:	4603      	mov	r3, r0
20001660:	f887 302f 	strb.w	r3, [r7, #47]	; 0x2f
C:\Microchip\Libero_SoC_v2024.2\Designer\bin\projects\SMF2000-M3_ProjectRad\SC2021_Workspace_PRad\eNVM\Debug/../drivers/mss_nvm/mss_nvm.c:203

        if(NVM_SUCCESS == status)
20001664:	f897 302f 	ldrb.w	r3, [r7, #47]	; 0x2f
20001668:	2b00      	cmp	r3, #0
2000166a:	f040 8086 	bne.w	2000177a <NVM_write+0x1a6>
C:\Microchip\Libero_SoC_v2024.2\Designer\bin\projects\SMF2000-M3_ProjectRad\SC2021_Workspace_PRad\eNVM\Debug/../drivers/mss_nvm/mss_nvm.c:209
        {
            /* 
             * SAR 79545. 
             * If eNVM write or No R/W protected is enabled, then don't lock the page
             */
            if((g_do_not_lock_page == ON)  && (NVM_LOCK_PAGE == lock_page)) 
2000166e:	4b4f      	ldr	r3, [pc, #316]	; (200017ac <NVM_write+0x1d8>)
20001670:	781b      	ldrb	r3, [r3, #0]
20001672:	2b01      	cmp	r3, #1
20001674:	d107      	bne.n	20001686 <NVM_write+0xb2>
C:\Microchip\Libero_SoC_v2024.2\Designer\bin\projects\SMF2000-M3_ProjectRad\SC2021_Workspace_PRad\eNVM\Debug/../drivers/mss_nvm/mss_nvm.c:209 (discriminator 1)
20001676:	683b      	ldr	r3, [r7, #0]
20001678:	2b01      	cmp	r3, #1
2000167a:	d104      	bne.n	20001686 <NVM_write+0xb2>
C:\Microchip\Libero_SoC_v2024.2\Designer\bin\projects\SMF2000-M3_ProjectRad\SC2021_Workspace_PRad\eNVM\Debug/../drivers/mss_nvm/mss_nvm.c:211
            {
                lock_page = NVM_DO_NOT_LOCK_PAGE;
2000167c:	2300      	movs	r3, #0
2000167e:	603b      	str	r3, [r7, #0]
C:\Microchip\Libero_SoC_v2024.2\Designer\bin\projects\SMF2000-M3_ProjectRad\SC2021_Workspace_PRad\eNVM\Debug/../drivers/mss_nvm/mss_nvm.c:212
                lock_status = NVM_PAGE_LOCK_WARNING;
20001680:	2304      	movs	r3, #4
20001682:	f887 302e 	strb.w	r3, [r7, #46]	; 0x2e
C:\Microchip\Libero_SoC_v2024.2\Designer\bin\projects\SMF2000-M3_ProjectRad\SC2021_Workspace_PRad\eNVM\Debug/../drivers/mss_nvm/mss_nvm.c:215
            }
            
            device_version = device_version & 0xFFFFu;
20001686:	6a3b      	ldr	r3, [r7, #32]
20001688:	b29b      	uxth	r3, r3
2000168a:	623b      	str	r3, [r7, #32]
C:\Microchip\Libero_SoC_v2024.2\Designer\bin\projects\SMF2000-M3_ProjectRad\SC2021_Workspace_PRad\eNVM\Debug/../drivers/mss_nvm/mss_nvm.c:218
            
            /* Don't lock pages of 090/150  device -eNVM1 memory */
            if((0xF807u == device_version) || (0xF806u == device_version))
2000168c:	6a3b      	ldr	r3, [r7, #32]
2000168e:	f64f 0207 	movw	r2, #63495	; 0xf807
20001692:	4293      	cmp	r3, r2
20001694:	d004      	beq.n	200016a0 <NVM_write+0xcc>
C:\Microchip\Libero_SoC_v2024.2\Designer\bin\projects\SMF2000-M3_ProjectRad\SC2021_Workspace_PRad\eNVM\Debug/../drivers/mss_nvm/mss_nvm.c:218 (discriminator 1)
20001696:	6a3b      	ldr	r3, [r7, #32]
20001698:	f64f 0206 	movw	r2, #63494	; 0xf806
2000169c:	4293      	cmp	r3, r2
2000169e:	d112      	bne.n	200016c6 <NVM_write+0xf2>
C:\Microchip\Libero_SoC_v2024.2\Designer\bin\projects\SMF2000-M3_ProjectRad\SC2021_Workspace_PRad\eNVM\Debug/../drivers/mss_nvm/mss_nvm.c:220
            {
                if(((nvm_offset >= NVM1_BOTTOM_OFFSET) || ((nvm_offset + length) > NVM1_BOTTOM_OFFSET))
200016a0:	69fb      	ldr	r3, [r7, #28]
200016a2:	f5b3 2f80 	cmp.w	r3, #262144	; 0x40000
200016a6:	d205      	bcs.n	200016b4 <NVM_write+0xe0>
C:\Microchip\Libero_SoC_v2024.2\Designer\bin\projects\SMF2000-M3_ProjectRad\SC2021_Workspace_PRad\eNVM\Debug/../drivers/mss_nvm/mss_nvm.c:220 (discriminator 1)
200016a8:	69fa      	ldr	r2, [r7, #28]
200016aa:	687b      	ldr	r3, [r7, #4]
200016ac:	4413      	add	r3, r2
200016ae:	f5b3 2f80 	cmp.w	r3, #262144	; 0x40000
200016b2:	d916      	bls.n	200016e2 <NVM_write+0x10e>
C:\Microchip\Libero_SoC_v2024.2\Designer\bin\projects\SMF2000-M3_ProjectRad\SC2021_Workspace_PRad\eNVM\Debug/../drivers/mss_nvm/mss_nvm.c:221
                            && (NVM_LOCK_PAGE == lock_page)) 
200016b4:	683b      	ldr	r3, [r7, #0]
200016b6:	2b01      	cmp	r3, #1
200016b8:	d113      	bne.n	200016e2 <NVM_write+0x10e>
C:\Microchip\Libero_SoC_v2024.2\Designer\bin\projects\SMF2000-M3_ProjectRad\SC2021_Workspace_PRad\eNVM\Debug/../drivers/mss_nvm/mss_nvm.c:223
                {
                    lock_page = NVM_DO_NOT_LOCK_PAGE;
200016ba:	2300      	movs	r3, #0
200016bc:	603b      	str	r3, [r7, #0]
C:\Microchip\Libero_SoC_v2024.2\Designer\bin\projects\SMF2000-M3_ProjectRad\SC2021_Workspace_PRad\eNVM\Debug/../drivers/mss_nvm/mss_nvm.c:224
                    lock_status = NVM_PAGE_LOCK_WARNING;
200016be:	2304      	movs	r3, #4
200016c0:	f887 302e 	strb.w	r3, [r7, #46]	; 0x2e
C:\Microchip\Libero_SoC_v2024.2\Designer\bin\projects\SMF2000-M3_ProjectRad\SC2021_Workspace_PRad\eNVM\Debug/../drivers/mss_nvm/mss_nvm.c:220
                if(((nvm_offset >= NVM1_BOTTOM_OFFSET) || ((nvm_offset + length) > NVM1_BOTTOM_OFFSET))
200016c4:	e00d      	b.n	200016e2 <NVM_write+0x10e>
C:\Microchip\Libero_SoC_v2024.2\Designer\bin\projects\SMF2000-M3_ProjectRad\SC2021_Workspace_PRad\eNVM\Debug/../drivers/mss_nvm/mss_nvm.c:228
                }
            }
            /* Don't lock pages of 060 device */
            else if((0xF808u == device_version) && (NVM_LOCK_PAGE == lock_page)) 
200016c6:	6a3b      	ldr	r3, [r7, #32]
200016c8:	f64f 0208 	movw	r2, #63496	; 0xf808
200016cc:	4293      	cmp	r3, r2
200016ce:	d109      	bne.n	200016e4 <NVM_write+0x110>
C:\Microchip\Libero_SoC_v2024.2\Designer\bin\projects\SMF2000-M3_ProjectRad\SC2021_Workspace_PRad\eNVM\Debug/../drivers/mss_nvm/mss_nvm.c:228 (discriminator 1)
200016d0:	683b      	ldr	r3, [r7, #0]
200016d2:	2b01      	cmp	r3, #1
200016d4:	d106      	bne.n	200016e4 <NVM_write+0x110>
C:\Microchip\Libero_SoC_v2024.2\Designer\bin\projects\SMF2000-M3_ProjectRad\SC2021_Workspace_PRad\eNVM\Debug/../drivers/mss_nvm/mss_nvm.c:230
            {
                lock_page = NVM_DO_NOT_LOCK_PAGE;
200016d6:	2300      	movs	r3, #0
200016d8:	603b      	str	r3, [r7, #0]
C:\Microchip\Libero_SoC_v2024.2\Designer\bin\projects\SMF2000-M3_ProjectRad\SC2021_Workspace_PRad\eNVM\Debug/../drivers/mss_nvm/mss_nvm.c:231
                lock_status = NVM_PAGE_LOCK_WARNING;
200016da:	2304      	movs	r3, #4
200016dc:	f887 302e 	strb.w	r3, [r7, #46]	; 0x2e
200016e0:	e000      	b.n	200016e4 <NVM_write+0x110>
C:\Microchip\Libero_SoC_v2024.2\Designer\bin\projects\SMF2000-M3_ProjectRad\SC2021_Workspace_PRad\eNVM\Debug/../drivers/mss_nvm/mss_nvm.c:220
                if(((nvm_offset >= NVM1_BOTTOM_OFFSET) || ((nvm_offset + length) > NVM1_BOTTOM_OFFSET))
200016e2:	bf00      	nop
C:\Microchip\Libero_SoC_v2024.2\Designer\bin\projects\SMF2000-M3_ProjectRad\SC2021_Workspace_PRad\eNVM\Debug/../drivers/mss_nvm/mss_nvm.c:235
            }
            
            /* Gain exclusive access to eNVM controller */
            status = get_ctrl_access(nvm_offset, length);
200016e4:	6879      	ldr	r1, [r7, #4]
200016e6:	69f8      	ldr	r0, [r7, #28]
200016e8:	f000 f9ba 	bl	20001a60 <get_ctrl_access>
200016ec:	4603      	mov	r3, r0
200016ee:	f887 302f 	strb.w	r3, [r7, #47]	; 0x2f
C:\Microchip\Libero_SoC_v2024.2\Designer\bin\projects\SMF2000-M3_ProjectRad\SC2021_Workspace_PRad\eNVM\Debug/../drivers/mss_nvm/mss_nvm.c:238

            /* Write eNVM one page at a time. */
            if(NVM_SUCCESS == status)
200016f2:	f897 302f 	ldrb.w	r3, [r7, #47]	; 0x2f
200016f6:	2b00      	cmp	r3, #0
200016f8:	d13f      	bne.n	2000177a <NVM_write+0x1a6>
C:\Microchip\Libero_SoC_v2024.2\Designer\bin\projects\SMF2000-M3_ProjectRad\SC2021_Workspace_PRad\eNVM\Debug/../drivers/mss_nvm/mss_nvm.c:240
            {
                uint32_t remaining_length = length;
200016fa:	687b      	ldr	r3, [r7, #4]
200016fc:	62bb      	str	r3, [r7, #40]	; 0x28
C:\Microchip\Libero_SoC_v2024.2\Designer\bin\projects\SMF2000-M3_ProjectRad\SC2021_Workspace_PRad\eNVM\Debug/../drivers/mss_nvm/mss_nvm.c:243
                uint32_t errors_and_warnings;
                
                while(remaining_length > 0u)
200016fe:	e037      	b.n	20001770 <NVM_write+0x19c>
C:\Microchip\Libero_SoC_v2024.2\Designer\bin\projects\SMF2000-M3_ProjectRad\SC2021_Workspace_PRad\eNVM\Debug/../drivers/mss_nvm/mss_nvm.c:246
                {
                    uint32_t length_written;
                    uint32_t nvm_hw_status = 0u;
20001700:	2300      	movs	r3, #0
20001702:	613b      	str	r3, [r7, #16]
C:\Microchip\Libero_SoC_v2024.2\Designer\bin\projects\SMF2000-M3_ProjectRad\SC2021_Workspace_PRad\eNVM\Debug/../drivers/mss_nvm/mss_nvm.c:248

                    length_written = write_nvm(start_addr + (length - remaining_length),
20001704:	687a      	ldr	r2, [r7, #4]
20001706:	6abb      	ldr	r3, [r7, #40]	; 0x28
20001708:	1ad2      	subs	r2, r2, r3
2000170a:	68fb      	ldr	r3, [r7, #12]
2000170c:	18d0      	adds	r0, r2, r3
C:\Microchip\Libero_SoC_v2024.2\Designer\bin\projects\SMF2000-M3_ProjectRad\SC2021_Workspace_PRad\eNVM\Debug/../drivers/mss_nvm/mss_nvm.c:249
                                                &pidata[length - remaining_length],
2000170e:	687a      	ldr	r2, [r7, #4]
20001710:	6abb      	ldr	r3, [r7, #40]	; 0x28
20001712:	1ad3      	subs	r3, r2, r3
C:\Microchip\Libero_SoC_v2024.2\Designer\bin\projects\SMF2000-M3_ProjectRad\SC2021_Workspace_PRad\eNVM\Debug/../drivers/mss_nvm/mss_nvm.c:248
                    length_written = write_nvm(start_addr + (length - remaining_length),
20001714:	68ba      	ldr	r2, [r7, #8]
20001716:	18d1      	adds	r1, r2, r3
20001718:	f107 0310 	add.w	r3, r7, #16
2000171c:	9300      	str	r3, [sp, #0]
2000171e:	683b      	ldr	r3, [r7, #0]
20001720:	6aba      	ldr	r2, [r7, #40]	; 0x28
20001722:	f000 fa25 	bl	20001b70 <write_nvm>
20001726:	61b8      	str	r0, [r7, #24]
C:\Microchip\Libero_SoC_v2024.2\Designer\bin\projects\SMF2000-M3_ProjectRad\SC2021_Workspace_PRad\eNVM\Debug/../drivers/mss_nvm/mss_nvm.c:255
                                                remaining_length,
                                                lock_page,
                                                &nvm_hw_status);

                    /* Check for errors and warnings. */
                    errors_and_warnings = nvm_hw_status & (WRITE_ERROR_MASK | MSS_NVM_WRCNT_OVER);
20001728:	693a      	ldr	r2, [r7, #16]
2000172a:	4b25      	ldr	r3, [pc, #148]	; (200017c0 <NVM_write+0x1ec>)
2000172c:	4013      	ands	r3, r2
2000172e:	617b      	str	r3, [r7, #20]
C:\Microchip\Libero_SoC_v2024.2\Designer\bin\projects\SMF2000-M3_ProjectRad\SC2021_Workspace_PRad\eNVM\Debug/../drivers/mss_nvm/mss_nvm.c:256
                    if(errors_and_warnings)
20001730:	697b      	ldr	r3, [r7, #20]
20001732:	2b00      	cmp	r3, #0
20001734:	d006      	beq.n	20001744 <NVM_write+0x170>
C:\Microchip\Libero_SoC_v2024.2\Designer\bin\projects\SMF2000-M3_ProjectRad\SC2021_Workspace_PRad\eNVM\Debug/../drivers/mss_nvm/mss_nvm.c:264
                        * Ensure that the status returned by the NVM_write()
                        * function is NVM_WRITE_THRESHOLD_WARNING if at least one
                        * of the written eNVM pages indicate a write over
                        * threshold condition.
                        */ 
                        status = get_error_code(nvm_hw_status);
20001736:	693b      	ldr	r3, [r7, #16]
20001738:	4618      	mov	r0, r3
2000173a:	f000 f843 	bl	200017c4 <get_error_code>
2000173e:	4603      	mov	r3, r0
20001740:	f887 302f 	strb.w	r3, [r7, #47]	; 0x2f
C:\Microchip\Libero_SoC_v2024.2\Designer\bin\projects\SMF2000-M3_ProjectRad\SC2021_Workspace_PRad\eNVM\Debug/../drivers/mss_nvm/mss_nvm.c:267
                    }

                    if((NVM_SUCCESS == status) || (NVM_WRITE_THRESHOLD_WARNING == status ))
20001744:	f897 302f 	ldrb.w	r3, [r7, #47]	; 0x2f
20001748:	2b00      	cmp	r3, #0
2000174a:	d003      	beq.n	20001754 <NVM_write+0x180>
C:\Microchip\Libero_SoC_v2024.2\Designer\bin\projects\SMF2000-M3_ProjectRad\SC2021_Workspace_PRad\eNVM\Debug/../drivers/mss_nvm/mss_nvm.c:267 (discriminator 1)
2000174c:	f897 302f 	ldrb.w	r3, [r7, #47]	; 0x2f
20001750:	2b05      	cmp	r3, #5
20001752:	d10b      	bne.n	2000176c <NVM_write+0x198>
C:\Microchip\Libero_SoC_v2024.2\Designer\bin\projects\SMF2000-M3_ProjectRad\SC2021_Workspace_PRad\eNVM\Debug/../drivers/mss_nvm/mss_nvm.c:269
                    {
                        if(remaining_length > length_written)
20001754:	6aba      	ldr	r2, [r7, #40]	; 0x28
20001756:	69bb      	ldr	r3, [r7, #24]
20001758:	429a      	cmp	r2, r3
2000175a:	d904      	bls.n	20001766 <NVM_write+0x192>
C:\Microchip\Libero_SoC_v2024.2\Designer\bin\projects\SMF2000-M3_ProjectRad\SC2021_Workspace_PRad\eNVM\Debug/../drivers/mss_nvm/mss_nvm.c:271
                        {
                            remaining_length -= length_written;
2000175c:	6aba      	ldr	r2, [r7, #40]	; 0x28
2000175e:	69bb      	ldr	r3, [r7, #24]
20001760:	1ad3      	subs	r3, r2, r3
20001762:	62bb      	str	r3, [r7, #40]	; 0x28
C:\Microchip\Libero_SoC_v2024.2\Designer\bin\projects\SMF2000-M3_ProjectRad\SC2021_Workspace_PRad\eNVM\Debug/../drivers/mss_nvm/mss_nvm.c:269
                        if(remaining_length > length_written)
20001764:	e004      	b.n	20001770 <NVM_write+0x19c>
C:\Microchip\Libero_SoC_v2024.2\Designer\bin\projects\SMF2000-M3_ProjectRad\SC2021_Workspace_PRad\eNVM\Debug/../drivers/mss_nvm/mss_nvm.c:275
                        }
                        else
                        {
                            remaining_length = 0u;
20001766:	2300      	movs	r3, #0
20001768:	62bb      	str	r3, [r7, #40]	; 0x28
C:\Microchip\Libero_SoC_v2024.2\Designer\bin\projects\SMF2000-M3_ProjectRad\SC2021_Workspace_PRad\eNVM\Debug/../drivers/mss_nvm/mss_nvm.c:269
                        if(remaining_length > length_written)
2000176a:	e001      	b.n	20001770 <NVM_write+0x19c>
C:\Microchip\Libero_SoC_v2024.2\Designer\bin\projects\SMF2000-M3_ProjectRad\SC2021_Workspace_PRad\eNVM\Debug/../drivers/mss_nvm/mss_nvm.c:280
                        }
                    }
                    else
                    {
                        remaining_length = 0u;
2000176c:	2300      	movs	r3, #0
2000176e:	62bb      	str	r3, [r7, #40]	; 0x28
C:\Microchip\Libero_SoC_v2024.2\Designer\bin\projects\SMF2000-M3_ProjectRad\SC2021_Workspace_PRad\eNVM\Debug/../drivers/mss_nvm/mss_nvm.c:243
                while(remaining_length > 0u)
20001770:	6abb      	ldr	r3, [r7, #40]	; 0x28
20001772:	2b00      	cmp	r3, #0
20001774:	d1c4      	bne.n	20001700 <NVM_write+0x12c>
C:\Microchip\Libero_SoC_v2024.2\Designer\bin\projects\SMF2000-M3_ProjectRad\SC2021_Workspace_PRad\eNVM\Debug/../drivers/mss_nvm/mss_nvm.c:286
                    }

                }

                /* Release eNVM controllers so that other masters can gain access to it. */
                release_ctrl_access();
20001776:	f000 f9a3 	bl	20001ac0 <release_ctrl_access>
C:\Microchip\Libero_SoC_v2024.2\Designer\bin\projects\SMF2000-M3_ProjectRad\SC2021_Workspace_PRad\eNVM\Debug/../drivers/mss_nvm/mss_nvm.c:291
            }
        }
    }

    g_do_not_lock_page = OFF;
2000177a:	4b0c      	ldr	r3, [pc, #48]	; (200017ac <NVM_write+0x1d8>)
2000177c:	2200      	movs	r2, #0
2000177e:	701a      	strb	r2, [r3, #0]
C:\Microchip\Libero_SoC_v2024.2\Designer\bin\projects\SMF2000-M3_ProjectRad\SC2021_Workspace_PRad\eNVM\Debug/../drivers/mss_nvm/mss_nvm.c:294

    /* Restore back to original value. */
    SYSREG->ENVM_CR = initial_nvm_config;
20001780:	4a0b      	ldr	r2, [pc, #44]	; (200017b0 <NVM_write+0x1dc>)
20001782:	6a7b      	ldr	r3, [r7, #36]	; 0x24
20001784:	60d3      	str	r3, [r2, #12]
C:\Microchip\Libero_SoC_v2024.2\Designer\bin\projects\SMF2000-M3_ProjectRad\SC2021_Workspace_PRad\eNVM\Debug/../drivers/mss_nvm/mss_nvm.c:296
    
    if((NVM_SUCCESS == status) && (NVM_PAGE_LOCK_WARNING == lock_status))
20001786:	f897 302f 	ldrb.w	r3, [r7, #47]	; 0x2f
2000178a:	2b00      	cmp	r3, #0
2000178c:	d107      	bne.n	2000179e <NVM_write+0x1ca>
C:\Microchip\Libero_SoC_v2024.2\Designer\bin\projects\SMF2000-M3_ProjectRad\SC2021_Workspace_PRad\eNVM\Debug/../drivers/mss_nvm/mss_nvm.c:296 (discriminator 1)
2000178e:	f897 302e 	ldrb.w	r3, [r7, #46]	; 0x2e
20001792:	2b04      	cmp	r3, #4
20001794:	d103      	bne.n	2000179e <NVM_write+0x1ca>
C:\Microchip\Libero_SoC_v2024.2\Designer\bin\projects\SMF2000-M3_ProjectRad\SC2021_Workspace_PRad\eNVM\Debug/../drivers/mss_nvm/mss_nvm.c:298
    {
        status = lock_status;
20001796:	f897 302e 	ldrb.w	r3, [r7, #46]	; 0x2e
2000179a:	f887 302f 	strb.w	r3, [r7, #47]	; 0x2f
C:\Microchip\Libero_SoC_v2024.2\Designer\bin\projects\SMF2000-M3_ProjectRad\SC2021_Workspace_PRad\eNVM\Debug/../drivers/mss_nvm/mss_nvm.c:300
    }
    return status;
2000179e:	f897 302f 	ldrb.w	r3, [r7, #47]	; 0x2f
C:\Microchip\Libero_SoC_v2024.2\Designer\bin\projects\SMF2000-M3_ProjectRad\SC2021_Workspace_PRad\eNVM\Debug/../drivers/mss_nvm/mss_nvm.c:301
}
200017a2:	4618      	mov	r0, r3
200017a4:	3730      	adds	r7, #48	; 0x30
200017a6:	46bd      	mov	sp, r7
200017a8:	bd80      	pop	{r7, pc}
200017aa:	bf00      	nop
200017ac:	20009388 	.word	0x20009388
200017b0:	40038000 	.word	0x40038000
200017b4:	6007ffff 	.word	0x6007ffff
200017b8:	0007fffe 	.word	0x0007fffe
200017bc:	0001f802 	.word	0x0001f802
200017c0:	0004003e 	.word	0x0004003e

200017c4 <get_error_code>:
get_error_code():
C:\Microchip\Libero_SoC_v2024.2\Designer\bin\projects\SMF2000-M3_ProjectRad\SC2021_Workspace_PRad\eNVM\Debug/../drivers/mss_nvm/mss_nvm.c:317
                 MSS_NVM_WRCNT_OVER | \
                 MSS_NVM_WR_DENIED)
  
 */
static nvm_status_t get_error_code(uint32_t nvm_hw_status)
{
200017c4:	b480      	push	{r7}
200017c6:	b085      	sub	sp, #20
200017c8:	af00      	add	r7, sp, #0
200017ca:	6078      	str	r0, [r7, #4]
C:\Microchip\Libero_SoC_v2024.2\Designer\bin\projects\SMF2000-M3_ProjectRad\SC2021_Workspace_PRad\eNVM\Debug/../drivers/mss_nvm/mss_nvm.c:320
    nvm_status_t status;
    
    if(nvm_hw_status & MSS_NVM_WR_DENIED)
200017cc:	687b      	ldr	r3, [r7, #4]
200017ce:	f403 2380 	and.w	r3, r3, #262144	; 0x40000
200017d2:	2b00      	cmp	r3, #0
200017d4:	d002      	beq.n	200017dc <get_error_code+0x18>
C:\Microchip\Libero_SoC_v2024.2\Designer\bin\projects\SMF2000-M3_ProjectRad\SC2021_Workspace_PRad\eNVM\Debug/../drivers/mss_nvm/mss_nvm.c:322
    {
        status = NVM_PROTECTION_ERROR;
200017d6:	2301      	movs	r3, #1
200017d8:	73fb      	strb	r3, [r7, #15]
200017da:	e019      	b.n	20001810 <get_error_code+0x4c>
C:\Microchip\Libero_SoC_v2024.2\Designer\bin\projects\SMF2000-M3_ProjectRad\SC2021_Workspace_PRad\eNVM\Debug/../drivers/mss_nvm/mss_nvm.c:324
    }
    else if(nvm_hw_status & MSS_NVM_PEFAIL_LOCK)
200017dc:	687b      	ldr	r3, [r7, #4]
200017de:	f003 0310 	and.w	r3, r3, #16
200017e2:	2b00      	cmp	r3, #0
200017e4:	d002      	beq.n	200017ec <get_error_code+0x28>
C:\Microchip\Libero_SoC_v2024.2\Designer\bin\projects\SMF2000-M3_ProjectRad\SC2021_Workspace_PRad\eNVM\Debug/../drivers/mss_nvm/mss_nvm.c:326
    {
        status = NVM_PAGE_LOCK_ERROR;
200017e6:	2303      	movs	r3, #3
200017e8:	73fb      	strb	r3, [r7, #15]
200017ea:	e011      	b.n	20001810 <get_error_code+0x4c>
C:\Microchip\Libero_SoC_v2024.2\Designer\bin\projects\SMF2000-M3_ProjectRad\SC2021_Workspace_PRad\eNVM\Debug/../drivers/mss_nvm/mss_nvm.c:328
    }
    else if(nvm_hw_status & (MSS_NVM_VERIFY_FAIL |
200017ec:	687b      	ldr	r3, [r7, #4]
200017ee:	f003 030e 	and.w	r3, r3, #14
200017f2:	2b00      	cmp	r3, #0
200017f4:	d002      	beq.n	200017fc <get_error_code+0x38>
C:\Microchip\Libero_SoC_v2024.2\Designer\bin\projects\SMF2000-M3_ProjectRad\SC2021_Workspace_PRad\eNVM\Debug/../drivers/mss_nvm/mss_nvm.c:331
            MSS_NVM_EVERIFY_FAIL | MSS_NVM_WVERIFY_FAIL))
    {
        status = NVM_VERIFY_FAILURE;
200017f6:	2302      	movs	r3, #2
200017f8:	73fb      	strb	r3, [r7, #15]
200017fa:	e009      	b.n	20001810 <get_error_code+0x4c>
C:\Microchip\Libero_SoC_v2024.2\Designer\bin\projects\SMF2000-M3_ProjectRad\SC2021_Workspace_PRad\eNVM\Debug/../drivers/mss_nvm/mss_nvm.c:333
    }
    else if(nvm_hw_status & MSS_NVM_WRCNT_OVER)
200017fc:	687b      	ldr	r3, [r7, #4]
200017fe:	f003 0320 	and.w	r3, r3, #32
20001802:	2b00      	cmp	r3, #0
20001804:	d002      	beq.n	2000180c <get_error_code+0x48>
C:\Microchip\Libero_SoC_v2024.2\Designer\bin\projects\SMF2000-M3_ProjectRad\SC2021_Workspace_PRad\eNVM\Debug/../drivers/mss_nvm/mss_nvm.c:335
    {
        status = NVM_WRITE_THRESHOLD_WARNING;
20001806:	2305      	movs	r3, #5
20001808:	73fb      	strb	r3, [r7, #15]
2000180a:	e001      	b.n	20001810 <get_error_code+0x4c>
C:\Microchip\Libero_SoC_v2024.2\Designer\bin\projects\SMF2000-M3_ProjectRad\SC2021_Workspace_PRad\eNVM\Debug/../drivers/mss_nvm/mss_nvm.c:339
    }
    else
    {
        status = NVM_SUCCESS;
2000180c:	2300      	movs	r3, #0
2000180e:	73fb      	strb	r3, [r7, #15]
C:\Microchip\Libero_SoC_v2024.2\Designer\bin\projects\SMF2000-M3_ProjectRad\SC2021_Workspace_PRad\eNVM\Debug/../drivers/mss_nvm/mss_nvm.c:342
    }
    
    return status;
20001810:	7bfb      	ldrb	r3, [r7, #15]
C:\Microchip\Libero_SoC_v2024.2\Designer\bin\projects\SMF2000-M3_ProjectRad\SC2021_Workspace_PRad\eNVM\Debug/../drivers/mss_nvm/mss_nvm.c:343
}
20001812:	4618      	mov	r0, r3
20001814:	3714      	adds	r7, #20
20001816:	46bd      	mov	sp, r7
20001818:	bc80      	pop	{r7}
2000181a:	4770      	bx	lr

2000181c <NVM_unlock>:
NVM_unlock():
C:\Microchip\Libero_SoC_v2024.2\Designer\bin\projects\SMF2000-M3_ProjectRad\SC2021_Workspace_PRad\eNVM\Debug/../drivers/mss_nvm/mss_nvm.c:354
NVM_unlock
(
    uint32_t start_addr,
    uint32_t length
)
{
2000181c:	b580      	push	{r7, lr}
2000181e:	b08e      	sub	sp, #56	; 0x38
20001820:	af00      	add	r7, sp, #0
20001822:	6078      	str	r0, [r7, #4]
20001824:	6039      	str	r1, [r7, #0]
C:\Microchip\Libero_SoC_v2024.2\Designer\bin\projects\SMF2000-M3_ProjectRad\SC2021_Workspace_PRad\eNVM\Debug/../drivers/mss_nvm/mss_nvm.c:370
     * to its maximum value (i.e. 15) to ensure successful writes to eNVM. 
     * Store the value of the eNVM configuration before updating it, so 
     * that the prior configuration can be restored when the eNVM write
     * operation has completed. 
     */
    initial_nvm_config = SYSREG->ENVM_CR;
20001826:	4b66      	ldr	r3, [pc, #408]	; (200019c0 <NVM_unlock+0x1a4>)
20001828:	68db      	ldr	r3, [r3, #12]
2000182a:	627b      	str	r3, [r7, #36]	; 0x24
C:\Microchip\Libero_SoC_v2024.2\Designer\bin\projects\SMF2000-M3_ProjectRad\SC2021_Workspace_PRad\eNVM\Debug/../drivers/mss_nvm/mss_nvm.c:371
    SYSREG->ENVM_CR = (initial_nvm_config & NVM_FREQRNG_MASK) | NVM_FREQRNG_MAX;
2000182c:	4a64      	ldr	r2, [pc, #400]	; (200019c0 <NVM_unlock+0x1a4>)
2000182e:	6a7b      	ldr	r3, [r7, #36]	; 0x24
20001830:	f443 53ff 	orr.w	r3, r3, #8160	; 0x1fe0
20001834:	60d3      	str	r3, [r2, #12]
C:\Microchip\Libero_SoC_v2024.2\Designer\bin\projects\SMF2000-M3_ProjectRad\SC2021_Workspace_PRad\eNVM\Debug/../drivers/mss_nvm/mss_nvm.c:374
    
    /* Check input parameters */
    if((start_addr >= (NVM_BASE_ADDRESS + NVM_TOP_OFFSET)) ||
20001836:	687b      	ldr	r3, [r7, #4]
20001838:	4a62      	ldr	r2, [pc, #392]	; (200019c4 <NVM_unlock+0x1a8>)
2000183a:	4293      	cmp	r3, r2
2000183c:	d20a      	bcs.n	20001854 <NVM_unlock+0x38>
C:\Microchip\Libero_SoC_v2024.2\Designer\bin\projects\SMF2000-M3_ProjectRad\SC2021_Workspace_PRad\eNVM\Debug/../drivers/mss_nvm/mss_nvm.c:374 (discriminator 1)
2000183e:	687b      	ldr	r3, [r7, #4]
20001840:	4a61      	ldr	r2, [pc, #388]	; (200019c8 <NVM_unlock+0x1ac>)
20001842:	4293      	cmp	r3, r2
20001844:	d903      	bls.n	2000184e <NVM_unlock+0x32>
C:\Microchip\Libero_SoC_v2024.2\Designer\bin\projects\SMF2000-M3_ProjectRad\SC2021_Workspace_PRad\eNVM\Debug/../drivers/mss_nvm/mss_nvm.c:375
        ((start_addr >= NVM_TOP_OFFSET) &&
20001846:	687b      	ldr	r3, [r7, #4]
20001848:	f1b3 4fc0 	cmp.w	r3, #1610612736	; 0x60000000
2000184c:	d302      	bcc.n	20001854 <NVM_unlock+0x38>
C:\Microchip\Libero_SoC_v2024.2\Designer\bin\projects\SMF2000-M3_ProjectRad\SC2021_Workspace_PRad\eNVM\Debug/../drivers/mss_nvm/mss_nvm.c:376
        (start_addr < NVM_BASE_ADDRESS)) ||
2000184e:	683b      	ldr	r3, [r7, #0]
20001850:	2b00      	cmp	r3, #0
20001852:	d103      	bne.n	2000185c <NVM_unlock+0x40>
C:\Microchip\Libero_SoC_v2024.2\Designer\bin\projects\SMF2000-M3_ProjectRad\SC2021_Workspace_PRad\eNVM\Debug/../drivers/mss_nvm/mss_nvm.c:379
        (0u == length))
    {
        status =  NVM_INVALID_PARAMETER;
20001854:	2307      	movs	r3, #7
20001856:	f887 3037 	strb.w	r3, [r7, #55]	; 0x37
2000185a:	e0a8      	b.n	200019ae <NVM_unlock+0x192>
C:\Microchip\Libero_SoC_v2024.2\Designer\bin\projects\SMF2000-M3_ProjectRad\SC2021_Workspace_PRad\eNVM\Debug/../drivers/mss_nvm/mss_nvm.c:384
    }
    else
    {
        /* Ignore upper address bits to ignore remapping setting. */
        nvm_offset = start_addr & NVM_OFFSET_SIGNIFICANT_BITS;
2000185c:	687b      	ldr	r3, [r7, #4]
2000185e:	f3c3 0312 	ubfx	r3, r3, #0, #19
20001862:	623b      	str	r3, [r7, #32]
C:\Microchip\Libero_SoC_v2024.2\Designer\bin\projects\SMF2000-M3_ProjectRad\SC2021_Workspace_PRad\eNVM\Debug/../drivers/mss_nvm/mss_nvm.c:387
        
        /* Check nvm offset is in protection or reserved area of eNVM */
        status = check_protection_reserved_nvm(nvm_offset, length);
20001864:	6839      	ldr	r1, [r7, #0]
20001866:	6a38      	ldr	r0, [r7, #32]
20001868:	f000 fab2 	bl	20001dd0 <check_protection_reserved_nvm>
2000186c:	4603      	mov	r3, r0
2000186e:	f887 3037 	strb.w	r3, [r7, #55]	; 0x37
C:\Microchip\Libero_SoC_v2024.2\Designer\bin\projects\SMF2000-M3_ProjectRad\SC2021_Workspace_PRad\eNVM\Debug/../drivers/mss_nvm/mss_nvm.c:389

        if(NVM_SUCCESS == status)
20001872:	f897 3037 	ldrb.w	r3, [r7, #55]	; 0x37
20001876:	2b00      	cmp	r3, #0
20001878:	f040 8099 	bne.w	200019ae <NVM_unlock+0x192>
C:\Microchip\Libero_SoC_v2024.2\Designer\bin\projects\SMF2000-M3_ProjectRad\SC2021_Workspace_PRad\eNVM\Debug/../drivers/mss_nvm/mss_nvm.c:391
        {
            first_page = nvm_offset / BYTES_PER_PAGE;
2000187c:	6a3b      	ldr	r3, [r7, #32]
2000187e:	09db      	lsrs	r3, r3, #7
20001880:	61fb      	str	r3, [r7, #28]
C:\Microchip\Libero_SoC_v2024.2\Designer\bin\projects\SMF2000-M3_ProjectRad\SC2021_Workspace_PRad\eNVM\Debug/../drivers/mss_nvm/mss_nvm.c:392
            last_page = (nvm_offset + (length - 1u)) / BYTES_PER_PAGE;
20001882:	683a      	ldr	r2, [r7, #0]
20001884:	6a3b      	ldr	r3, [r7, #32]
20001886:	4413      	add	r3, r2
20001888:	3b01      	subs	r3, #1
2000188a:	09db      	lsrs	r3, r3, #7
2000188c:	61bb      	str	r3, [r7, #24]
C:\Microchip\Libero_SoC_v2024.2\Designer\bin\projects\SMF2000-M3_ProjectRad\SC2021_Workspace_PRad\eNVM\Debug/../drivers/mss_nvm/mss_nvm.c:395

            /* Gain exclusive access to eNVM controller */
            status = get_ctrl_access(nvm_offset, length);
2000188e:	6839      	ldr	r1, [r7, #0]
20001890:	6a38      	ldr	r0, [r7, #32]
20001892:	f000 f8e5 	bl	20001a60 <get_ctrl_access>
20001896:	4603      	mov	r3, r0
20001898:	f887 3037 	strb.w	r3, [r7, #55]	; 0x37
C:\Microchip\Libero_SoC_v2024.2\Designer\bin\projects\SMF2000-M3_ProjectRad\SC2021_Workspace_PRad\eNVM\Debug/../drivers/mss_nvm/mss_nvm.c:398

            /* Unlock eNVM one page at a time. */
            if(NVM_SUCCESS == status)
2000189c:	f897 3037 	ldrb.w	r3, [r7, #55]	; 0x37
200018a0:	2b00      	cmp	r3, #0
200018a2:	f040 8084 	bne.w	200019ae <NVM_unlock+0x192>
C:\Microchip\Libero_SoC_v2024.2\Designer\bin\projects\SMF2000-M3_ProjectRad\SC2021_Workspace_PRad\eNVM\Debug/../drivers/mss_nvm/mss_nvm.c:406
                uint32_t inc;
                uint32_t * p_nvm32;
                uint32_t errors_and_warnings;


                for(current_page = first_page; (current_page <= last_page) &&
200018a6:	69fb      	ldr	r3, [r7, #28]
200018a8:	633b      	str	r3, [r7, #48]	; 0x30
200018aa:	e072      	b.n	20001992 <NVM_unlock+0x176>
C:\Microchip\Libero_SoC_v2024.2\Designer\bin\projects\SMF2000-M3_ProjectRad\SC2021_Workspace_PRad\eNVM\Debug/../drivers/mss_nvm/mss_nvm.c:412
                    ((NVM_SUCCESS == status) ||(NVM_WRITE_THRESHOLD_WARNING == status));
                    ++current_page)
                {
                    uint32_t ctrl_status;

                    if(current_page >= PAGES_PER_BLOCK)
200018ac:	6b3b      	ldr	r3, [r7, #48]	; 0x30
200018ae:	f5b3 6f00 	cmp.w	r3, #2048	; 0x800
200018b2:	d302      	bcc.n	200018ba <NVM_unlock+0x9e>
C:\Microchip\Libero_SoC_v2024.2\Designer\bin\projects\SMF2000-M3_ProjectRad\SC2021_Workspace_PRad\eNVM\Debug/../drivers/mss_nvm/mss_nvm.c:414
                    {
                        block = NVM_BLOCK_1;
200018b4:	2301      	movs	r3, #1
200018b6:	62fb      	str	r3, [r7, #44]	; 0x2c
200018b8:	e001      	b.n	200018be <NVM_unlock+0xa2>
C:\Microchip\Libero_SoC_v2024.2\Designer\bin\projects\SMF2000-M3_ProjectRad\SC2021_Workspace_PRad\eNVM\Debug/../drivers/mss_nvm/mss_nvm.c:418
                    }
                    else
                    {
                        block = NVM_BLOCK_0;
200018ba:	2300      	movs	r3, #0
200018bc:	62fb      	str	r3, [r7, #44]	; 0x2c
C:\Microchip\Libero_SoC_v2024.2\Designer\bin\projects\SMF2000-M3_ProjectRad\SC2021_Workspace_PRad\eNVM\Debug/../drivers/mss_nvm/mss_nvm.c:421
                    }

                    if(g_nvm[block]->STATUS & MSS_NVM_WR_DENIED)
200018be:	4a43      	ldr	r2, [pc, #268]	; (200019cc <NVM_unlock+0x1b0>)
200018c0:	6afb      	ldr	r3, [r7, #44]	; 0x2c
200018c2:	f852 3023 	ldr.w	r3, [r2, r3, lsl #2]
200018c6:	f8d3 3120 	ldr.w	r3, [r3, #288]	; 0x120
200018ca:	f403 2380 	and.w	r3, r3, #262144	; 0x40000
200018ce:	2b00      	cmp	r3, #0
200018d0:	d00d      	beq.n	200018ee <NVM_unlock+0xd2>
C:\Microchip\Libero_SoC_v2024.2\Designer\bin\projects\SMF2000-M3_ProjectRad\SC2021_Workspace_PRad\eNVM\Debug/../drivers/mss_nvm/mss_nvm.c:424
                    {
                        /* Clear the access denied flag */
                        g_nvm[block]->CLRHINT |= ACCESS_DENIED_FLAG_CLEAR;
200018d2:	4a3e      	ldr	r2, [pc, #248]	; (200019cc <NVM_unlock+0x1b0>)
200018d4:	6afb      	ldr	r3, [r7, #44]	; 0x2c
200018d6:	f852 3023 	ldr.w	r3, [r2, r3, lsl #2]
200018da:	f8d3 2158 	ldr.w	r2, [r3, #344]	; 0x158
200018de:	493b      	ldr	r1, [pc, #236]	; (200019cc <NVM_unlock+0x1b0>)
200018e0:	6afb      	ldr	r3, [r7, #44]	; 0x2c
200018e2:	f851 3023 	ldr.w	r3, [r1, r3, lsl #2]
200018e6:	f042 0202 	orr.w	r2, r2, #2
200018ea:	f8c3 2158 	str.w	r2, [r3, #344]	; 0x158
C:\Microchip\Libero_SoC_v2024.2\Designer\bin\projects\SMF2000-M3_ProjectRad\SC2021_Workspace_PRad\eNVM\Debug/../drivers/mss_nvm/mss_nvm.c:427
                    }

                    current_offset = (current_page << 0x7u);
200018ee:	6b3b      	ldr	r3, [r7, #48]	; 0x30
200018f0:	01db      	lsls	r3, r3, #7
200018f2:	617b      	str	r3, [r7, #20]
C:\Microchip\Libero_SoC_v2024.2\Designer\bin\projects\SMF2000-M3_ProjectRad\SC2021_Workspace_PRad\eNVM\Debug/../drivers/mss_nvm/mss_nvm.c:428
                    p_nvm32 = (uint32_t *)(NVM_BASE_ADDRESS + current_offset);
200018f4:	697b      	ldr	r3, [r7, #20]
200018f6:	f103 43c0 	add.w	r3, r3, #1610612736	; 0x60000000
200018fa:	613b      	str	r3, [r7, #16]
C:\Microchip\Libero_SoC_v2024.2\Designer\bin\projects\SMF2000-M3_ProjectRad\SC2021_Workspace_PRad\eNVM\Debug/../drivers/mss_nvm/mss_nvm.c:430
                     
                    for(inc = 0u; inc < WD_WORD_SIZE; ++inc)
200018fc:	2300      	movs	r3, #0
200018fe:	62bb      	str	r3, [r7, #40]	; 0x28
20001900:	e00f      	b.n	20001922 <NVM_unlock+0x106>
C:\Microchip\Libero_SoC_v2024.2\Designer\bin\projects\SMF2000-M3_ProjectRad\SC2021_Workspace_PRad\eNVM\Debug/../drivers/mss_nvm/mss_nvm.c:432 (discriminator 3)
                    {
                        g_nvm32[block]->WD[inc] = p_nvm32[inc];
20001902:	6abb      	ldr	r3, [r7, #40]	; 0x28
20001904:	009b      	lsls	r3, r3, #2
20001906:	693a      	ldr	r2, [r7, #16]
20001908:	441a      	add	r2, r3
2000190a:	4931      	ldr	r1, [pc, #196]	; (200019d0 <NVM_unlock+0x1b4>)
2000190c:	6afb      	ldr	r3, [r7, #44]	; 0x2c
2000190e:	f851 3023 	ldr.w	r3, [r1, r3, lsl #2]
20001912:	6811      	ldr	r1, [r2, #0]
20001914:	6aba      	ldr	r2, [r7, #40]	; 0x28
20001916:	3220      	adds	r2, #32
20001918:	f843 1022 	str.w	r1, [r3, r2, lsl #2]
C:\Microchip\Libero_SoC_v2024.2\Designer\bin\projects\SMF2000-M3_ProjectRad\SC2021_Workspace_PRad\eNVM\Debug/../drivers/mss_nvm/mss_nvm.c:430 (discriminator 3)
                    for(inc = 0u; inc < WD_WORD_SIZE; ++inc)
2000191c:	6abb      	ldr	r3, [r7, #40]	; 0x28
2000191e:	3301      	adds	r3, #1
20001920:	62bb      	str	r3, [r7, #40]	; 0x28
C:\Microchip\Libero_SoC_v2024.2\Designer\bin\projects\SMF2000-M3_ProjectRad\SC2021_Workspace_PRad\eNVM\Debug/../drivers/mss_nvm/mss_nvm.c:430 (discriminator 1)
20001922:	6abb      	ldr	r3, [r7, #40]	; 0x28
20001924:	2b1f      	cmp	r3, #31
20001926:	d9ec      	bls.n	20001902 <NVM_unlock+0xe6>
C:\Microchip\Libero_SoC_v2024.2\Designer\bin\projects\SMF2000-M3_ProjectRad\SC2021_Workspace_PRad\eNVM\Debug/../drivers/mss_nvm/mss_nvm.c:435
                    }
                    
                    g_nvm[block]->PAGE_LOCK = NVM_DO_NOT_LOCK_PAGE;
20001928:	4a28      	ldr	r2, [pc, #160]	; (200019cc <NVM_unlock+0x1b0>)
2000192a:	6afb      	ldr	r3, [r7, #44]	; 0x2c
2000192c:	f852 3023 	ldr.w	r3, [r2, r3, lsl #2]
20001930:	2200      	movs	r2, #0
20001932:	f8c3 2140 	str.w	r2, [r3, #320]	; 0x140
C:\Microchip\Libero_SoC_v2024.2\Designer\bin\projects\SMF2000-M3_ProjectRad\SC2021_Workspace_PRad\eNVM\Debug/../drivers/mss_nvm/mss_nvm.c:436
                    g_nvm[block]->CMD = USER_UNLOCK | (current_offset & PAGE_ADDR_MASK);
20001936:	697b      	ldr	r3, [r7, #20]
20001938:	f023 5398 	bic.w	r3, r3, #318767104	; 0x13000000
2000193c:	f023 037f 	bic.w	r3, r3, #127	; 0x7f
20001940:	4922      	ldr	r1, [pc, #136]	; (200019cc <NVM_unlock+0x1b0>)
20001942:	6afa      	ldr	r2, [r7, #44]	; 0x2c
20001944:	f851 2022 	ldr.w	r2, [r1, r2, lsl #2]
20001948:	f043 5398 	orr.w	r3, r3, #318767104	; 0x13000000
2000194c:	f8c2 3148 	str.w	r3, [r2, #328]	; 0x148
C:\Microchip\Libero_SoC_v2024.2\Designer\bin\projects\SMF2000-M3_ProjectRad\SC2021_Workspace_PRad\eNVM\Debug/../drivers/mss_nvm/mss_nvm.c:439

                    /* Issue program command */
                    g_nvm[block]->CMD = PROG_ADS | (current_offset & PAGE_ADDR_MASK);
20001950:	697b      	ldr	r3, [r7, #20]
20001952:	f023 6300 	bic.w	r3, r3, #134217728	; 0x8000000
20001956:	f023 037f 	bic.w	r3, r3, #127	; 0x7f
2000195a:	491c      	ldr	r1, [pc, #112]	; (200019cc <NVM_unlock+0x1b0>)
2000195c:	6afa      	ldr	r2, [r7, #44]	; 0x2c
2000195e:	f851 2022 	ldr.w	r2, [r1, r2, lsl #2]
20001962:	f043 6300 	orr.w	r3, r3, #134217728	; 0x8000000
20001966:	f8c2 3148 	str.w	r3, [r2, #328]	; 0x148
C:\Microchip\Libero_SoC_v2024.2\Designer\bin\projects\SMF2000-M3_ProjectRad\SC2021_Workspace_PRad\eNVM\Debug/../drivers/mss_nvm/mss_nvm.c:442

                    /* Wait for NVM to become ready. */
                    ctrl_status = wait_nvm_ready(block);
2000196a:	6af8      	ldr	r0, [r7, #44]	; 0x2c
2000196c:	f000 f8dc 	bl	20001b28 <wait_nvm_ready>
20001970:	60f8      	str	r0, [r7, #12]
C:\Microchip\Libero_SoC_v2024.2\Designer\bin\projects\SMF2000-M3_ProjectRad\SC2021_Workspace_PRad\eNVM\Debug/../drivers/mss_nvm/mss_nvm.c:445

                    /* Check for errors and warnings. */
                    errors_and_warnings = ctrl_status & (WRITE_ERROR_MASK | MSS_NVM_WRCNT_OVER);
20001972:	68fa      	ldr	r2, [r7, #12]
20001974:	4b17      	ldr	r3, [pc, #92]	; (200019d4 <NVM_unlock+0x1b8>)
20001976:	4013      	ands	r3, r2
20001978:	60bb      	str	r3, [r7, #8]
C:\Microchip\Libero_SoC_v2024.2\Designer\bin\projects\SMF2000-M3_ProjectRad\SC2021_Workspace_PRad\eNVM\Debug/../drivers/mss_nvm/mss_nvm.c:446
                    if(errors_and_warnings)
2000197a:	68bb      	ldr	r3, [r7, #8]
2000197c:	2b00      	cmp	r3, #0
2000197e:	d005      	beq.n	2000198c <NVM_unlock+0x170>
C:\Microchip\Libero_SoC_v2024.2\Designer\bin\projects\SMF2000-M3_ProjectRad\SC2021_Workspace_PRad\eNVM\Debug/../drivers/mss_nvm/mss_nvm.c:448
                    {
                        status = get_error_code(ctrl_status);
20001980:	68f8      	ldr	r0, [r7, #12]
20001982:	f7ff ff1f 	bl	200017c4 <get_error_code>
20001986:	4603      	mov	r3, r0
20001988:	f887 3037 	strb.w	r3, [r7, #55]	; 0x37
C:\Microchip\Libero_SoC_v2024.2\Designer\bin\projects\SMF2000-M3_ProjectRad\SC2021_Workspace_PRad\eNVM\Debug/../drivers/mss_nvm/mss_nvm.c:408
                    ++current_page)
2000198c:	6b3b      	ldr	r3, [r7, #48]	; 0x30
2000198e:	3301      	adds	r3, #1
20001990:	633b      	str	r3, [r7, #48]	; 0x30
C:\Microchip\Libero_SoC_v2024.2\Designer\bin\projects\SMF2000-M3_ProjectRad\SC2021_Workspace_PRad\eNVM\Debug/../drivers/mss_nvm/mss_nvm.c:406 (discriminator 1)
                for(current_page = first_page; (current_page <= last_page) &&
20001992:	6b3a      	ldr	r2, [r7, #48]	; 0x30
20001994:	69bb      	ldr	r3, [r7, #24]
20001996:	429a      	cmp	r2, r3
20001998:	d807      	bhi.n	200019aa <NVM_unlock+0x18e>
C:\Microchip\Libero_SoC_v2024.2\Designer\bin\projects\SMF2000-M3_ProjectRad\SC2021_Workspace_PRad\eNVM\Debug/../drivers/mss_nvm/mss_nvm.c:406 (discriminator 2)
2000199a:	f897 3037 	ldrb.w	r3, [r7, #55]	; 0x37
2000199e:	2b00      	cmp	r3, #0
200019a0:	d084      	beq.n	200018ac <NVM_unlock+0x90>
C:\Microchip\Libero_SoC_v2024.2\Designer\bin\projects\SMF2000-M3_ProjectRad\SC2021_Workspace_PRad\eNVM\Debug/../drivers/mss_nvm/mss_nvm.c:407
                    ((NVM_SUCCESS == status) ||(NVM_WRITE_THRESHOLD_WARNING == status));
200019a2:	f897 3037 	ldrb.w	r3, [r7, #55]	; 0x37
200019a6:	2b05      	cmp	r3, #5
200019a8:	d080      	beq.n	200018ac <NVM_unlock+0x90>
C:\Microchip\Libero_SoC_v2024.2\Designer\bin\projects\SMF2000-M3_ProjectRad\SC2021_Workspace_PRad\eNVM\Debug/../drivers/mss_nvm/mss_nvm.c:453
                    }
                }

                /* Release eNVM controllers so that other masters can gain access to it. */
                release_ctrl_access();
200019aa:	f000 f889 	bl	20001ac0 <release_ctrl_access>
C:\Microchip\Libero_SoC_v2024.2\Designer\bin\projects\SMF2000-M3_ProjectRad\SC2021_Workspace_PRad\eNVM\Debug/../drivers/mss_nvm/mss_nvm.c:458
            }
        }
    }
    /* Restore back to original value. */
    SYSREG->ENVM_CR = initial_nvm_config;
200019ae:	4a04      	ldr	r2, [pc, #16]	; (200019c0 <NVM_unlock+0x1a4>)
200019b0:	6a7b      	ldr	r3, [r7, #36]	; 0x24
200019b2:	60d3      	str	r3, [r2, #12]
C:\Microchip\Libero_SoC_v2024.2\Designer\bin\projects\SMF2000-M3_ProjectRad\SC2021_Workspace_PRad\eNVM\Debug/../drivers/mss_nvm/mss_nvm.c:460
    
    return status;
200019b4:	f897 3037 	ldrb.w	r3, [r7, #55]	; 0x37
C:\Microchip\Libero_SoC_v2024.2\Designer\bin\projects\SMF2000-M3_ProjectRad\SC2021_Workspace_PRad\eNVM\Debug/../drivers/mss_nvm/mss_nvm.c:461
}
200019b8:	4618      	mov	r0, r3
200019ba:	3738      	adds	r7, #56	; 0x38
200019bc:	46bd      	mov	sp, r7
200019be:	bd80      	pop	{r7, pc}
200019c0:	40038000 	.word	0x40038000
200019c4:	6007ffff 	.word	0x6007ffff
200019c8:	0007fffe 	.word	0x0007fffe
200019cc:	20008308 	.word	0x20008308
200019d0:	20008310 	.word	0x20008310
200019d4:	0004003e 	.word	0x0004003e

200019d8 <request_nvm_access>:
request_nvm_access():
C:\Microchip\Libero_SoC_v2024.2\Designer\bin\projects\SMF2000-M3_ProjectRad\SC2021_Workspace_PRad\eNVM\Debug/../drivers/mss_nvm/mss_nvm.c:477
#define CORTEX_M3_ACCESS_GRANTED    0x05u

static uint8_t g_envm_ctrl_locks = 0x00u;

static nvm_status_t request_nvm_access(uint32_t nvm_block_id)
{
200019d8:	b480      	push	{r7}
200019da:	b087      	sub	sp, #28
200019dc:	af00      	add	r7, sp, #0
200019de:	6078      	str	r0, [r7, #4]
C:\Microchip\Libero_SoC_v2024.2\Designer\bin\projects\SMF2000-M3_ProjectRad\SC2021_Workspace_PRad\eNVM\Debug/../drivers/mss_nvm/mss_nvm.c:478
    nvm_status_t status = NVM_SUCCESS;
200019e0:	2300      	movs	r3, #0
200019e2:	75fb      	strb	r3, [r7, #23]
C:\Microchip\Libero_SoC_v2024.2\Designer\bin\projects\SMF2000-M3_ProjectRad\SC2021_Workspace_PRad\eNVM\Debug/../drivers/mss_nvm/mss_nvm.c:486
    
    /*
     * Use the SystemCoreClock frequency to compute a delay counter value giving
     * us a delay in the 500ms range. This is a very approximate delay.
     */
    timeout_counter = SystemCoreClock / 16u;
200019e4:	4b1b      	ldr	r3, [pc, #108]	; (20001a54 <request_nvm_access+0x7c>)
200019e6:	681b      	ldr	r3, [r3, #0]
200019e8:	091b      	lsrs	r3, r3, #4
200019ea:	60fb      	str	r3, [r7, #12]
C:\Microchip\Libero_SoC_v2024.2\Designer\bin\projects\SMF2000-M3_ProjectRad\SC2021_Workspace_PRad\eNVM\Debug/../drivers/mss_nvm/mss_nvm.c:492
    
    /*
     * Gain access to eNVM controller.
     */
    do {
        g_nvm[nvm_block_id]->REQ_ACCESS = REQUEST_NVM_ACCESS;
200019ec:	4a1a      	ldr	r2, [pc, #104]	; (20001a58 <request_nvm_access+0x80>)
200019ee:	687b      	ldr	r3, [r7, #4]
200019f0:	f852 3023 	ldr.w	r3, [r2, r3, lsl #2]
200019f4:	2201      	movs	r2, #1
200019f6:	f8c3 21fc 	str.w	r2, [r3, #508]	; 0x1fc
C:\Microchip\Libero_SoC_v2024.2\Designer\bin\projects\SMF2000-M3_ProjectRad\SC2021_Workspace_PRad\eNVM\Debug/../drivers/mss_nvm/mss_nvm.c:493
        access = g_nvm[nvm_block_id]->REQ_ACCESS;
200019fa:	4a17      	ldr	r2, [pc, #92]	; (20001a58 <request_nvm_access+0x80>)
200019fc:	687b      	ldr	r3, [r7, #4]
200019fe:	f852 3023 	ldr.w	r3, [r2, r3, lsl #2]
20001a02:	f8d3 31fc 	ldr.w	r3, [r3, #508]	; 0x1fc
20001a06:	613b      	str	r3, [r7, #16]
C:\Microchip\Libero_SoC_v2024.2\Designer\bin\projects\SMF2000-M3_ProjectRad\SC2021_Workspace_PRad\eNVM\Debug/../drivers/mss_nvm/mss_nvm.c:494
        if(access != CORTEX_M3_ACCESS_GRANTED)
20001a08:	693b      	ldr	r3, [r7, #16]
20001a0a:	2b05      	cmp	r3, #5
20001a0c:	d007      	beq.n	20001a1e <request_nvm_access+0x46>
C:\Microchip\Libero_SoC_v2024.2\Designer\bin\projects\SMF2000-M3_ProjectRad\SC2021_Workspace_PRad\eNVM\Debug/../drivers/mss_nvm/mss_nvm.c:501
            /*
             * Time out if another AHB master locked access to eNVM to prevent
             * the Cortex-M3 from locking up on eNVM write if some other part
             * of the system fails from releasing the eNVM.
             */
            --timeout_counter;
20001a0e:	68fb      	ldr	r3, [r7, #12]
20001a10:	3b01      	subs	r3, #1
20001a12:	60fb      	str	r3, [r7, #12]
C:\Microchip\Libero_SoC_v2024.2\Designer\bin\projects\SMF2000-M3_ProjectRad\SC2021_Workspace_PRad\eNVM\Debug/../drivers/mss_nvm/mss_nvm.c:502
            if(0u == timeout_counter)
20001a14:	68fb      	ldr	r3, [r7, #12]
20001a16:	2b00      	cmp	r3, #0
20001a18:	d101      	bne.n	20001a1e <request_nvm_access+0x46>
C:\Microchip\Libero_SoC_v2024.2\Designer\bin\projects\SMF2000-M3_ProjectRad\SC2021_Workspace_PRad\eNVM\Debug/../drivers/mss_nvm/mss_nvm.c:504
            {
                status = NVM_IN_USE_BY_OTHER_MASTER;
20001a1a:	2306      	movs	r3, #6
20001a1c:	75fb      	strb	r3, [r7, #23]
C:\Microchip\Libero_SoC_v2024.2\Designer\bin\projects\SMF2000-M3_ProjectRad\SC2021_Workspace_PRad\eNVM\Debug/../drivers/mss_nvm/mss_nvm.c:507
            }
        }
    } while((access != CORTEX_M3_ACCESS_GRANTED) && (NVM_SUCCESS == status));
20001a1e:	693b      	ldr	r3, [r7, #16]
20001a20:	2b05      	cmp	r3, #5
20001a22:	d002      	beq.n	20001a2a <request_nvm_access+0x52>
C:\Microchip\Libero_SoC_v2024.2\Designer\bin\projects\SMF2000-M3_ProjectRad\SC2021_Workspace_PRad\eNVM\Debug/../drivers/mss_nvm/mss_nvm.c:507 (discriminator 1)
20001a24:	7dfb      	ldrb	r3, [r7, #23]
20001a26:	2b00      	cmp	r3, #0
20001a28:	d0e0      	beq.n	200019ec <request_nvm_access+0x14>
C:\Microchip\Libero_SoC_v2024.2\Designer\bin\projects\SMF2000-M3_ProjectRad\SC2021_Workspace_PRad\eNVM\Debug/../drivers/mss_nvm/mss_nvm.c:513
    
    /*
     * Mark controller as locked if successful so that it will be unlocked by a
     * call to release_ctrl_access.
     */
    if(NVM_SUCCESS == status)
20001a2a:	7dfb      	ldrb	r3, [r7, #23]
20001a2c:	2b00      	cmp	r3, #0
20001a2e:	d10a      	bne.n	20001a46 <request_nvm_access+0x6e>
C:\Microchip\Libero_SoC_v2024.2\Designer\bin\projects\SMF2000-M3_ProjectRad\SC2021_Workspace_PRad\eNVM\Debug/../drivers/mss_nvm/mss_nvm.c:515
    {
        g_envm_ctrl_locks |= (uint8_t)((uint32_t)0x01 << nvm_block_id);
20001a30:	2201      	movs	r2, #1
20001a32:	687b      	ldr	r3, [r7, #4]
20001a34:	fa02 f303 	lsl.w	r3, r2, r3
20001a38:	b2da      	uxtb	r2, r3
20001a3a:	4b08      	ldr	r3, [pc, #32]	; (20001a5c <request_nvm_access+0x84>)
20001a3c:	781b      	ldrb	r3, [r3, #0]
20001a3e:	4313      	orrs	r3, r2
20001a40:	b2da      	uxtb	r2, r3
20001a42:	4b06      	ldr	r3, [pc, #24]	; (20001a5c <request_nvm_access+0x84>)
20001a44:	701a      	strb	r2, [r3, #0]
C:\Microchip\Libero_SoC_v2024.2\Designer\bin\projects\SMF2000-M3_ProjectRad\SC2021_Workspace_PRad\eNVM\Debug/../drivers/mss_nvm/mss_nvm.c:518
    }
    
    return status;
20001a46:	7dfb      	ldrb	r3, [r7, #23]
C:\Microchip\Libero_SoC_v2024.2\Designer\bin\projects\SMF2000-M3_ProjectRad\SC2021_Workspace_PRad\eNVM\Debug/../drivers/mss_nvm/mss_nvm.c:519
}
20001a48:	4618      	mov	r0, r3
20001a4a:	371c      	adds	r7, #28
20001a4c:	46bd      	mov	sp, r7
20001a4e:	bc80      	pop	{r7}
20001a50:	4770      	bx	lr
20001a52:	bf00      	nop
20001a54:	20008970 	.word	0x20008970
20001a58:	20008308 	.word	0x20008308
20001a5c:	20009389 	.word	0x20009389

20001a60 <get_ctrl_access>:
get_ctrl_access():
C:\Microchip\Libero_SoC_v2024.2\Designer\bin\projects\SMF2000-M3_ProjectRad\SC2021_Workspace_PRad\eNVM\Debug/../drivers/mss_nvm/mss_nvm.c:525

/**************************************************************************//**
 * Get access to eNVM controller for eNVM0 and eNVM1
 */
static nvm_status_t get_ctrl_access(uint32_t nvm_offset, uint32_t length)
{
20001a60:	b580      	push	{r7, lr}
20001a62:	b084      	sub	sp, #16
20001a64:	af00      	add	r7, sp, #0
20001a66:	6078      	str	r0, [r7, #4]
20001a68:	6039      	str	r1, [r7, #0]
C:\Microchip\Libero_SoC_v2024.2\Designer\bin\projects\SMF2000-M3_ProjectRad\SC2021_Workspace_PRad\eNVM\Debug/../drivers/mss_nvm/mss_nvm.c:531
    nvm_status_t access_req_status;
    
    /*
     * Gain access to eNVM controller(s).
     */
    if(nvm_offset < NVM1_BOTTOM_OFFSET)
20001a6a:	687b      	ldr	r3, [r7, #4]
20001a6c:	f5b3 2f80 	cmp.w	r3, #262144	; 0x40000
20001a70:	d21b      	bcs.n	20001aaa <get_ctrl_access+0x4a>
C:\Microchip\Libero_SoC_v2024.2\Designer\bin\projects\SMF2000-M3_ProjectRad\SC2021_Workspace_PRad\eNVM\Debug/../drivers/mss_nvm/mss_nvm.c:533
    {
        access_req_status = request_nvm_access(NVM_BLOCK_0);
20001a72:	2000      	movs	r0, #0
20001a74:	f7ff ffb0 	bl	200019d8 <request_nvm_access>
20001a78:	4603      	mov	r3, r0
20001a7a:	73fb      	strb	r3, [r7, #15]
C:\Microchip\Libero_SoC_v2024.2\Designer\bin\projects\SMF2000-M3_ProjectRad\SC2021_Workspace_PRad\eNVM\Debug/../drivers/mss_nvm/mss_nvm.c:534
        if(NVM_SUCCESS == access_req_status)
20001a7c:	7bfb      	ldrb	r3, [r7, #15]
20001a7e:	2b00      	cmp	r3, #0
20001a80:	d118      	bne.n	20001ab4 <get_ctrl_access+0x54>
C:\Microchip\Libero_SoC_v2024.2\Designer\bin\projects\SMF2000-M3_ProjectRad\SC2021_Workspace_PRad\eNVM\Debug/../drivers/mss_nvm/mss_nvm.c:537
        {
            uint32_t last_offset;
            last_offset = nvm_offset + (length - 0x1u);
20001a82:	683a      	ldr	r2, [r7, #0]
20001a84:	687b      	ldr	r3, [r7, #4]
20001a86:	4413      	add	r3, r2
20001a88:	3b01      	subs	r3, #1
20001a8a:	60bb      	str	r3, [r7, #8]
C:\Microchip\Libero_SoC_v2024.2\Designer\bin\projects\SMF2000-M3_ProjectRad\SC2021_Workspace_PRad\eNVM\Debug/../drivers/mss_nvm/mss_nvm.c:538
            if(last_offset >= NVM1_BOTTOM_OFFSET)
20001a8c:	68bb      	ldr	r3, [r7, #8]
20001a8e:	f5b3 2f80 	cmp.w	r3, #262144	; 0x40000
20001a92:	d30f      	bcc.n	20001ab4 <get_ctrl_access+0x54>
C:\Microchip\Libero_SoC_v2024.2\Designer\bin\projects\SMF2000-M3_ProjectRad\SC2021_Workspace_PRad\eNVM\Debug/../drivers/mss_nvm/mss_nvm.c:540
            {
                access_req_status = request_nvm_access(NVM_BLOCK_1);
20001a94:	2001      	movs	r0, #1
20001a96:	f7ff ff9f 	bl	200019d8 <request_nvm_access>
20001a9a:	4603      	mov	r3, r0
20001a9c:	73fb      	strb	r3, [r7, #15]
C:\Microchip\Libero_SoC_v2024.2\Designer\bin\projects\SMF2000-M3_ProjectRad\SC2021_Workspace_PRad\eNVM\Debug/../drivers/mss_nvm/mss_nvm.c:541
                if(NVM_IN_USE_BY_OTHER_MASTER == access_req_status)
20001a9e:	7bfb      	ldrb	r3, [r7, #15]
20001aa0:	2b06      	cmp	r3, #6
20001aa2:	d107      	bne.n	20001ab4 <get_ctrl_access+0x54>
C:\Microchip\Libero_SoC_v2024.2\Designer\bin\projects\SMF2000-M3_ProjectRad\SC2021_Workspace_PRad\eNVM\Debug/../drivers/mss_nvm/mss_nvm.c:543
                {
                    release_ctrl_access();
20001aa4:	f000 f80c 	bl	20001ac0 <release_ctrl_access>
20001aa8:	e004      	b.n	20001ab4 <get_ctrl_access+0x54>
C:\Microchip\Libero_SoC_v2024.2\Designer\bin\projects\SMF2000-M3_ProjectRad\SC2021_Workspace_PRad\eNVM\Debug/../drivers/mss_nvm/mss_nvm.c:550
            }
        }
    }
    else
    {
        access_req_status = request_nvm_access(NVM_BLOCK_1);
20001aaa:	2001      	movs	r0, #1
20001aac:	f7ff ff94 	bl	200019d8 <request_nvm_access>
20001ab0:	4603      	mov	r3, r0
20001ab2:	73fb      	strb	r3, [r7, #15]
C:\Microchip\Libero_SoC_v2024.2\Designer\bin\projects\SMF2000-M3_ProjectRad\SC2021_Workspace_PRad\eNVM\Debug/../drivers/mss_nvm/mss_nvm.c:553
    }
    
    return access_req_status;
20001ab4:	7bfb      	ldrb	r3, [r7, #15]
C:\Microchip\Libero_SoC_v2024.2\Designer\bin\projects\SMF2000-M3_ProjectRad\SC2021_Workspace_PRad\eNVM\Debug/../drivers/mss_nvm/mss_nvm.c:554
}
20001ab6:	4618      	mov	r0, r3
20001ab8:	3710      	adds	r7, #16
20001aba:	46bd      	mov	sp, r7
20001abc:	bd80      	pop	{r7, pc}
	...

20001ac0 <release_ctrl_access>:
release_ctrl_access():
C:\Microchip\Libero_SoC_v2024.2\Designer\bin\projects\SMF2000-M3_ProjectRad\SC2021_Workspace_PRad\eNVM\Debug/../drivers/mss_nvm/mss_nvm.c:563
 */
#define NVM_BLOCK_0_LOCK_MASK   0x01u
#define NVM_BLOCK_1_LOCK_MASK   0x02u

static void release_ctrl_access(void)
{
20001ac0:	b480      	push	{r7}
20001ac2:	b083      	sub	sp, #12
20001ac4:	af00      	add	r7, sp, #0
C:\Microchip\Libero_SoC_v2024.2\Designer\bin\projects\SMF2000-M3_ProjectRad\SC2021_Workspace_PRad\eNVM\Debug/../drivers/mss_nvm/mss_nvm.c:566
    uint8_t block_locked;
    
    block_locked = g_envm_ctrl_locks & NVM_BLOCK_0_LOCK_MASK;
20001ac6:	4b15      	ldr	r3, [pc, #84]	; (20001b1c <release_ctrl_access+0x5c>)
20001ac8:	781b      	ldrb	r3, [r3, #0]
20001aca:	f003 0301 	and.w	r3, r3, #1
20001ace:	71fb      	strb	r3, [r7, #7]
C:\Microchip\Libero_SoC_v2024.2\Designer\bin\projects\SMF2000-M3_ProjectRad\SC2021_Workspace_PRad\eNVM\Debug/../drivers/mss_nvm/mss_nvm.c:567
    if(block_locked)
20001ad0:	79fb      	ldrb	r3, [r7, #7]
20001ad2:	2b00      	cmp	r3, #0
20001ad4:	d00a      	beq.n	20001aec <release_ctrl_access+0x2c>
C:\Microchip\Libero_SoC_v2024.2\Designer\bin\projects\SMF2000-M3_ProjectRad\SC2021_Workspace_PRad\eNVM\Debug/../drivers/mss_nvm/mss_nvm.c:569
    {
        g_nvm[NVM_BLOCK_0]->REQ_ACCESS = 0x00u;
20001ad6:	4b12      	ldr	r3, [pc, #72]	; (20001b20 <release_ctrl_access+0x60>)
20001ad8:	2200      	movs	r2, #0
20001ada:	f8c3 21fc 	str.w	r2, [r3, #508]	; 0x1fc
C:\Microchip\Libero_SoC_v2024.2\Designer\bin\projects\SMF2000-M3_ProjectRad\SC2021_Workspace_PRad\eNVM\Debug/../drivers/mss_nvm/mss_nvm.c:570
        g_envm_ctrl_locks &= ~NVM_BLOCK_0_LOCK_MASK;
20001ade:	4b0f      	ldr	r3, [pc, #60]	; (20001b1c <release_ctrl_access+0x5c>)
20001ae0:	781b      	ldrb	r3, [r3, #0]
20001ae2:	f023 0301 	bic.w	r3, r3, #1
20001ae6:	b2da      	uxtb	r2, r3
20001ae8:	4b0c      	ldr	r3, [pc, #48]	; (20001b1c <release_ctrl_access+0x5c>)
20001aea:	701a      	strb	r2, [r3, #0]
C:\Microchip\Libero_SoC_v2024.2\Designer\bin\projects\SMF2000-M3_ProjectRad\SC2021_Workspace_PRad\eNVM\Debug/../drivers/mss_nvm/mss_nvm.c:573
    }
    
    block_locked = g_envm_ctrl_locks & NVM_BLOCK_1_LOCK_MASK;
20001aec:	4b0b      	ldr	r3, [pc, #44]	; (20001b1c <release_ctrl_access+0x5c>)
20001aee:	781b      	ldrb	r3, [r3, #0]
20001af0:	f003 0302 	and.w	r3, r3, #2
20001af4:	71fb      	strb	r3, [r7, #7]
C:\Microchip\Libero_SoC_v2024.2\Designer\bin\projects\SMF2000-M3_ProjectRad\SC2021_Workspace_PRad\eNVM\Debug/../drivers/mss_nvm/mss_nvm.c:574
    if(block_locked)
20001af6:	79fb      	ldrb	r3, [r7, #7]
20001af8:	2b00      	cmp	r3, #0
20001afa:	d00a      	beq.n	20001b12 <release_ctrl_access+0x52>
C:\Microchip\Libero_SoC_v2024.2\Designer\bin\projects\SMF2000-M3_ProjectRad\SC2021_Workspace_PRad\eNVM\Debug/../drivers/mss_nvm/mss_nvm.c:576
    {
        g_nvm[NVM_BLOCK_1]->REQ_ACCESS = 0x00u;
20001afc:	4b09      	ldr	r3, [pc, #36]	; (20001b24 <release_ctrl_access+0x64>)
20001afe:	2200      	movs	r2, #0
20001b00:	f8c3 21fc 	str.w	r2, [r3, #508]	; 0x1fc
C:\Microchip\Libero_SoC_v2024.2\Designer\bin\projects\SMF2000-M3_ProjectRad\SC2021_Workspace_PRad\eNVM\Debug/../drivers/mss_nvm/mss_nvm.c:577
        g_envm_ctrl_locks &= ~NVM_BLOCK_1_LOCK_MASK;
20001b04:	4b05      	ldr	r3, [pc, #20]	; (20001b1c <release_ctrl_access+0x5c>)
20001b06:	781b      	ldrb	r3, [r3, #0]
20001b08:	f023 0302 	bic.w	r3, r3, #2
20001b0c:	b2da      	uxtb	r2, r3
20001b0e:	4b03      	ldr	r3, [pc, #12]	; (20001b1c <release_ctrl_access+0x5c>)
20001b10:	701a      	strb	r2, [r3, #0]
C:\Microchip\Libero_SoC_v2024.2\Designer\bin\projects\SMF2000-M3_ProjectRad\SC2021_Workspace_PRad\eNVM\Debug/../drivers/mss_nvm/mss_nvm.c:579
    }
}
20001b12:	bf00      	nop
20001b14:	370c      	adds	r7, #12
20001b16:	46bd      	mov	sp, r7
20001b18:	bc80      	pop	{r7}
20001b1a:	4770      	bx	lr
20001b1c:	20009389 	.word	0x20009389
20001b20:	60080000 	.word	0x60080000
20001b24:	600c0000 	.word	0x600c0000

20001b28 <wait_nvm_ready>:
wait_nvm_ready():
C:\Microchip\Libero_SoC_v2024.2\Designer\bin\projects\SMF2000-M3_ProjectRad\SC2021_Workspace_PRad\eNVM\Debug/../drivers/mss_nvm/mss_nvm.c:585

/**************************************************************************//**
 * Wait for NVM to become ready from busy state
 */
static uint32_t wait_nvm_ready(uint32_t block) 
{
20001b28:	b480      	push	{r7}
20001b2a:	b087      	sub	sp, #28
20001b2c:	af00      	add	r7, sp, #0
20001b2e:	6078      	str	r0, [r7, #4]
C:\Microchip\Libero_SoC_v2024.2\Designer\bin\projects\SMF2000-M3_ProjectRad\SC2021_Workspace_PRad\eNVM\Debug/../drivers/mss_nvm/mss_nvm.c:595
    /*
     * Wait for NVM to become ready.
     * We must ensure that we can read the ready bit set to 1 twice before we
     * can assume that the other status bits are valid. See SmartFusion2 errata.
     */
    for(inc = 0u; inc < 2u; ++inc)
20001b30:	2300      	movs	r3, #0
20001b32:	617b      	str	r3, [r7, #20]
20001b34:	e010      	b.n	20001b58 <wait_nvm_ready+0x30>
C:\Microchip\Libero_SoC_v2024.2\Designer\bin\projects\SMF2000-M3_ProjectRad\SC2021_Workspace_PRad\eNVM\Debug/../drivers/mss_nvm/mss_nvm.c:598 (discriminator 1)
    {
        do {
            ctrl_status = g_nvm[block]->STATUS;
20001b36:	4a0d      	ldr	r2, [pc, #52]	; (20001b6c <wait_nvm_ready+0x44>)
20001b38:	687b      	ldr	r3, [r7, #4]
20001b3a:	f852 3023 	ldr.w	r3, [r2, r3, lsl #2]
20001b3e:	f8d3 3120 	ldr.w	r3, [r3, #288]	; 0x120
20001b42:	60fb      	str	r3, [r7, #12]
C:\Microchip\Libero_SoC_v2024.2\Designer\bin\projects\SMF2000-M3_ProjectRad\SC2021_Workspace_PRad\eNVM\Debug/../drivers/mss_nvm/mss_nvm.c:599 (discriminator 1)
            ctrl_ready = ctrl_status  & MSS_NVM_BUSY_B;
20001b44:	68fb      	ldr	r3, [r7, #12]
20001b46:	f003 0301 	and.w	r3, r3, #1
20001b4a:	613b      	str	r3, [r7, #16]
C:\Microchip\Libero_SoC_v2024.2\Designer\bin\projects\SMF2000-M3_ProjectRad\SC2021_Workspace_PRad\eNVM\Debug/../drivers/mss_nvm/mss_nvm.c:600 (discriminator 1)
        } while(0u == ctrl_ready);
20001b4c:	693b      	ldr	r3, [r7, #16]
20001b4e:	2b00      	cmp	r3, #0
20001b50:	d0f1      	beq.n	20001b36 <wait_nvm_ready+0xe>
C:\Microchip\Libero_SoC_v2024.2\Designer\bin\projects\SMF2000-M3_ProjectRad\SC2021_Workspace_PRad\eNVM\Debug/../drivers/mss_nvm/mss_nvm.c:595 (discriminator 2)
    for(inc = 0u; inc < 2u; ++inc)
20001b52:	697b      	ldr	r3, [r7, #20]
20001b54:	3301      	adds	r3, #1
20001b56:	617b      	str	r3, [r7, #20]
C:\Microchip\Libero_SoC_v2024.2\Designer\bin\projects\SMF2000-M3_ProjectRad\SC2021_Workspace_PRad\eNVM\Debug/../drivers/mss_nvm/mss_nvm.c:595 (discriminator 1)
20001b58:	697b      	ldr	r3, [r7, #20]
20001b5a:	2b01      	cmp	r3, #1
20001b5c:	d9eb      	bls.n	20001b36 <wait_nvm_ready+0xe>
C:\Microchip\Libero_SoC_v2024.2\Designer\bin\projects\SMF2000-M3_ProjectRad\SC2021_Workspace_PRad\eNVM\Debug/../drivers/mss_nvm/mss_nvm.c:603
    }
    
    return ctrl_status;
20001b5e:	68fb      	ldr	r3, [r7, #12]
C:\Microchip\Libero_SoC_v2024.2\Designer\bin\projects\SMF2000-M3_ProjectRad\SC2021_Workspace_PRad\eNVM\Debug/../drivers/mss_nvm/mss_nvm.c:604
}
20001b60:	4618      	mov	r0, r3
20001b62:	371c      	adds	r7, #28
20001b64:	46bd      	mov	sp, r7
20001b66:	bc80      	pop	{r7}
20001b68:	4770      	bx	lr
20001b6a:	bf00      	nop
20001b6c:	20008308 	.word	0x20008308

20001b70 <write_nvm>:
write_nvm():
C:\Microchip\Libero_SoC_v2024.2\Designer\bin\projects\SMF2000-M3_ProjectRad\SC2021_Workspace_PRad\eNVM\Debug/../drivers/mss_nvm/mss_nvm.c:622
    const uint8_t * pidata,
    uint32_t  length,
    uint32_t  lock_page,
    uint32_t * p_status
)
{
20001b70:	b580      	push	{r7, lr}
20001b72:	b08a      	sub	sp, #40	; 0x28
20001b74:	af00      	add	r7, sp, #0
20001b76:	60f8      	str	r0, [r7, #12]
20001b78:	60b9      	str	r1, [r7, #8]
20001b7a:	607a      	str	r2, [r7, #4]
20001b7c:	603b      	str	r3, [r7, #0]
C:\Microchip\Libero_SoC_v2024.2\Designer\bin\projects\SMF2000-M3_ProjectRad\SC2021_Workspace_PRad\eNVM\Debug/../drivers/mss_nvm/mss_nvm.c:626
    uint32_t length_written;
    uint32_t offset;
   
    *p_status = 0u;
20001b7e:	6b3b      	ldr	r3, [r7, #48]	; 0x30
20001b80:	2200      	movs	r2, #0
20001b82:	601a      	str	r2, [r3, #0]
C:\Microchip\Libero_SoC_v2024.2\Designer\bin\projects\SMF2000-M3_ProjectRad\SC2021_Workspace_PRad\eNVM\Debug/../drivers/mss_nvm/mss_nvm.c:629
    
    /* Ignore upper address bits to ignore remapping setting. */    
    offset = addr & NVM_OFFSET_SIGNIFICANT_BITS;
20001b84:	68fb      	ldr	r3, [r7, #12]
20001b86:	f3c3 0312 	ubfx	r3, r3, #0, #19
20001b8a:	627b      	str	r3, [r7, #36]	; 0x24
C:\Microchip\Libero_SoC_v2024.2\Designer\bin\projects\SMF2000-M3_ProjectRad\SC2021_Workspace_PRad\eNVM\Debug/../drivers/mss_nvm/mss_nvm.c:631
    
    ASSERT(offset <= NVM1_TOP_OFFSET);
20001b8c:	6a7b      	ldr	r3, [r7, #36]	; 0x24
20001b8e:	f5b3 2f00 	cmp.w	r3, #524288	; 0x80000
20001b92:	d300      	bcc.n	20001b96 <write_nvm+0x26>
C:\Microchip\Libero_SoC_v2024.2\Designer\bin\projects\SMF2000-M3_ProjectRad\SC2021_Workspace_PRad\eNVM\Debug/../drivers/mss_nvm/mss_nvm.c:631 (discriminator 1)
20001b94:	be00      	bkpt	0x0000
C:\Microchip\Libero_SoC_v2024.2\Designer\bin\projects\SMF2000-M3_ProjectRad\SC2021_Workspace_PRad\eNVM\Debug/../drivers/mss_nvm/mss_nvm.c:634
    
    /* Adjust length to fit within one page. */
    length_written = get_remaining_page_length(offset, length);
20001b96:	6879      	ldr	r1, [r7, #4]
20001b98:	6a78      	ldr	r0, [r7, #36]	; 0x24
20001b9a:	f000 f873 	bl	20001c84 <get_remaining_page_length>
20001b9e:	61f8      	str	r0, [r7, #28]
C:\Microchip\Libero_SoC_v2024.2\Designer\bin\projects\SMF2000-M3_ProjectRad\SC2021_Workspace_PRad\eNVM\Debug/../drivers/mss_nvm/mss_nvm.c:636
    
    if(offset <= NVM1_TOP_OFFSET)
20001ba0:	6a7b      	ldr	r3, [r7, #36]	; 0x24
20001ba2:	f5b3 2f00 	cmp.w	r3, #524288	; 0x80000
20001ba6:	d263      	bcs.n	20001c70 <write_nvm+0x100>
C:\Microchip\Libero_SoC_v2024.2\Designer\bin\projects\SMF2000-M3_ProjectRad\SC2021_Workspace_PRad\eNVM\Debug/../drivers/mss_nvm/mss_nvm.c:642
    {
        uint32_t block;
        volatile uint32_t ctrl_status;
        uint32_t errors;
        
        if(offset < NVM1_BOTTOM_OFFSET)
20001ba8:	6a7b      	ldr	r3, [r7, #36]	; 0x24
20001baa:	f5b3 2f80 	cmp.w	r3, #262144	; 0x40000
20001bae:	d202      	bcs.n	20001bb6 <write_nvm+0x46>
C:\Microchip\Libero_SoC_v2024.2\Designer\bin\projects\SMF2000-M3_ProjectRad\SC2021_Workspace_PRad\eNVM\Debug/../drivers/mss_nvm/mss_nvm.c:644
        {
            block = NVM_BLOCK_0;
20001bb0:	2300      	movs	r3, #0
20001bb2:	623b      	str	r3, [r7, #32]
20001bb4:	e005      	b.n	20001bc2 <write_nvm+0x52>
C:\Microchip\Libero_SoC_v2024.2\Designer\bin\projects\SMF2000-M3_ProjectRad\SC2021_Workspace_PRad\eNVM\Debug/../drivers/mss_nvm/mss_nvm.c:648
        }
        else
        {
            block = NVM_BLOCK_1;
20001bb6:	2301      	movs	r3, #1
20001bb8:	623b      	str	r3, [r7, #32]
C:\Microchip\Libero_SoC_v2024.2\Designer\bin\projects\SMF2000-M3_ProjectRad\SC2021_Workspace_PRad\eNVM\Debug/../drivers/mss_nvm/mss_nvm.c:649
            offset = offset - NVM1_BOTTOM_OFFSET;
20001bba:	6a7b      	ldr	r3, [r7, #36]	; 0x24
20001bbc:	f5a3 2380 	sub.w	r3, r3, #262144	; 0x40000
20001bc0:	627b      	str	r3, [r7, #36]	; 0x24
C:\Microchip\Libero_SoC_v2024.2\Designer\bin\projects\SMF2000-M3_ProjectRad\SC2021_Workspace_PRad\eNVM\Debug/../drivers/mss_nvm/mss_nvm.c:652
        }
        
        if(g_nvm[block]->STATUS & MSS_NVM_WR_DENIED)
20001bc2:	4a2e      	ldr	r2, [pc, #184]	; (20001c7c <write_nvm+0x10c>)
20001bc4:	6a3b      	ldr	r3, [r7, #32]
20001bc6:	f852 3023 	ldr.w	r3, [r2, r3, lsl #2]
20001bca:	f8d3 3120 	ldr.w	r3, [r3, #288]	; 0x120
20001bce:	f403 2380 	and.w	r3, r3, #262144	; 0x40000
20001bd2:	2b00      	cmp	r3, #0
20001bd4:	d00d      	beq.n	20001bf2 <write_nvm+0x82>
C:\Microchip\Libero_SoC_v2024.2\Designer\bin\projects\SMF2000-M3_ProjectRad\SC2021_Workspace_PRad\eNVM\Debug/../drivers/mss_nvm/mss_nvm.c:655
        {
            /* Clear the access denied flag */
            g_nvm[block]->CLRHINT |= ACCESS_DENIED_FLAG_CLEAR;
20001bd6:	4a29      	ldr	r2, [pc, #164]	; (20001c7c <write_nvm+0x10c>)
20001bd8:	6a3b      	ldr	r3, [r7, #32]
20001bda:	f852 3023 	ldr.w	r3, [r2, r3, lsl #2]
20001bde:	f8d3 2158 	ldr.w	r2, [r3, #344]	; 0x158
20001be2:	4926      	ldr	r1, [pc, #152]	; (20001c7c <write_nvm+0x10c>)
20001be4:	6a3b      	ldr	r3, [r7, #32]
20001be6:	f851 3023 	ldr.w	r3, [r1, r3, lsl #2]
20001bea:	f042 0202 	orr.w	r2, r2, #2
20001bee:	f8c3 2158 	str.w	r2, [r3, #344]	; 0x158
C:\Microchip\Libero_SoC_v2024.2\Designer\bin\projects\SMF2000-M3_ProjectRad\SC2021_Workspace_PRad\eNVM\Debug/../drivers/mss_nvm/mss_nvm.c:658
        }

        fill_wd_buffer(pidata, length_written, block, offset);
20001bf2:	6a7b      	ldr	r3, [r7, #36]	; 0x24
20001bf4:	6a3a      	ldr	r2, [r7, #32]
20001bf6:	69f9      	ldr	r1, [r7, #28]
20001bf8:	68b8      	ldr	r0, [r7, #8]
20001bfa:	f000 f861 	bl	20001cc0 <fill_wd_buffer>
C:\Microchip\Libero_SoC_v2024.2\Designer\bin\projects\SMF2000-M3_ProjectRad\SC2021_Workspace_PRad\eNVM\Debug/../drivers/mss_nvm/mss_nvm.c:661

        /* Set requested locking option. */
        g_nvm[block]->PAGE_LOCK = lock_page;
20001bfe:	4a1f      	ldr	r2, [pc, #124]	; (20001c7c <write_nvm+0x10c>)
20001c00:	6a3b      	ldr	r3, [r7, #32]
20001c02:	f852 3023 	ldr.w	r3, [r2, r3, lsl #2]
20001c06:	683a      	ldr	r2, [r7, #0]
20001c08:	f8c3 2140 	str.w	r2, [r3, #320]	; 0x140
C:\Microchip\Libero_SoC_v2024.2\Designer\bin\projects\SMF2000-M3_ProjectRad\SC2021_Workspace_PRad\eNVM\Debug/../drivers/mss_nvm/mss_nvm.c:664
        
        /* Issue program command */
        g_nvm[block]->CMD = PROG_ADS | (offset & PAGE_ADDR_MASK);
20001c0c:	6a7b      	ldr	r3, [r7, #36]	; 0x24
20001c0e:	f023 6300 	bic.w	r3, r3, #134217728	; 0x8000000
20001c12:	f023 037f 	bic.w	r3, r3, #127	; 0x7f
20001c16:	4919      	ldr	r1, [pc, #100]	; (20001c7c <write_nvm+0x10c>)
20001c18:	6a3a      	ldr	r2, [r7, #32]
20001c1a:	f851 2022 	ldr.w	r2, [r1, r2, lsl #2]
20001c1e:	f043 6300 	orr.w	r3, r3, #134217728	; 0x8000000
20001c22:	f8c2 3148 	str.w	r3, [r2, #328]	; 0x148
C:\Microchip\Libero_SoC_v2024.2\Designer\bin\projects\SMF2000-M3_ProjectRad\SC2021_Workspace_PRad\eNVM\Debug/../drivers/mss_nvm/mss_nvm.c:667
        
        /* Wait for NVM to become ready. */
        ctrl_status = wait_nvm_ready(block);
20001c26:	6a38      	ldr	r0, [r7, #32]
20001c28:	f7ff ff7e 	bl	20001b28 <wait_nvm_ready>
20001c2c:	4603      	mov	r3, r0
20001c2e:	617b      	str	r3, [r7, #20]
C:\Microchip\Libero_SoC_v2024.2\Designer\bin\projects\SMF2000-M3_ProjectRad\SC2021_Workspace_PRad\eNVM\Debug/../drivers/mss_nvm/mss_nvm.c:670

        /* Check for errors. */
        errors = ctrl_status & WRITE_ERROR_MASK;
20001c30:	697a      	ldr	r2, [r7, #20]
20001c32:	4b13      	ldr	r3, [pc, #76]	; (20001c80 <write_nvm+0x110>)
20001c34:	4013      	ands	r3, r2
20001c36:	61bb      	str	r3, [r7, #24]
C:\Microchip\Libero_SoC_v2024.2\Designer\bin\projects\SMF2000-M3_ProjectRad\SC2021_Workspace_PRad\eNVM\Debug/../drivers/mss_nvm/mss_nvm.c:671
        if(errors)
20001c38:	69bb      	ldr	r3, [r7, #24]
20001c3a:	2b00      	cmp	r3, #0
20001c3c:	d003      	beq.n	20001c46 <write_nvm+0xd6>
C:\Microchip\Libero_SoC_v2024.2\Designer\bin\projects\SMF2000-M3_ProjectRad\SC2021_Workspace_PRad\eNVM\Debug/../drivers/mss_nvm/mss_nvm.c:673
        {
            *p_status = ctrl_status;
20001c3e:	697a      	ldr	r2, [r7, #20]
20001c40:	6b3b      	ldr	r3, [r7, #48]	; 0x30
20001c42:	601a      	str	r2, [r3, #0]
20001c44:	e014      	b.n	20001c70 <write_nvm+0x100>
C:\Microchip\Libero_SoC_v2024.2\Designer\bin\projects\SMF2000-M3_ProjectRad\SC2021_Workspace_PRad\eNVM\Debug/../drivers/mss_nvm/mss_nvm.c:678
        }
        else
        {
            /* Perform a verify. */
            g_nvm[block]->CMD = VERIFY_ADS | (offset & PAGE_ADDR_MASK);
20001c46:	6a7b      	ldr	r3, [r7, #36]	; 0x24
20001c48:	f023 5380 	bic.w	r3, r3, #268435456	; 0x10000000
20001c4c:	f023 037f 	bic.w	r3, r3, #127	; 0x7f
20001c50:	490a      	ldr	r1, [pc, #40]	; (20001c7c <write_nvm+0x10c>)
20001c52:	6a3a      	ldr	r2, [r7, #32]
20001c54:	f851 2022 	ldr.w	r2, [r1, r2, lsl #2]
20001c58:	f043 5380 	orr.w	r3, r3, #268435456	; 0x10000000
20001c5c:	f8c2 3148 	str.w	r3, [r2, #328]	; 0x148
C:\Microchip\Libero_SoC_v2024.2\Designer\bin\projects\SMF2000-M3_ProjectRad\SC2021_Workspace_PRad\eNVM\Debug/../drivers/mss_nvm/mss_nvm.c:680
            /* Wait for NVM to become ready. */
            ctrl_status = wait_nvm_ready(block);
20001c60:	6a38      	ldr	r0, [r7, #32]
20001c62:	f7ff ff61 	bl	20001b28 <wait_nvm_ready>
20001c66:	4603      	mov	r3, r0
20001c68:	617b      	str	r3, [r7, #20]
C:\Microchip\Libero_SoC_v2024.2\Designer\bin\projects\SMF2000-M3_ProjectRad\SC2021_Workspace_PRad\eNVM\Debug/../drivers/mss_nvm/mss_nvm.c:682

            *p_status = ctrl_status;
20001c6a:	697a      	ldr	r2, [r7, #20]
20001c6c:	6b3b      	ldr	r3, [r7, #48]	; 0x30
20001c6e:	601a      	str	r2, [r3, #0]
C:\Microchip\Libero_SoC_v2024.2\Designer\bin\projects\SMF2000-M3_ProjectRad\SC2021_Workspace_PRad\eNVM\Debug/../drivers/mss_nvm/mss_nvm.c:686
        }
    }
    
    return length_written;
20001c70:	69fb      	ldr	r3, [r7, #28]
C:\Microchip\Libero_SoC_v2024.2\Designer\bin\projects\SMF2000-M3_ProjectRad\SC2021_Workspace_PRad\eNVM\Debug/../drivers/mss_nvm/mss_nvm.c:687
}
20001c72:	4618      	mov	r0, r3
20001c74:	3728      	adds	r7, #40	; 0x28
20001c76:	46bd      	mov	sp, r7
20001c78:	bd80      	pop	{r7, pc}
20001c7a:	bf00      	nop
20001c7c:	20008308 	.word	0x20008308
20001c80:	0004001e 	.word	0x0004001e

20001c84 <get_remaining_page_length>:
get_remaining_page_length():
C:\Microchip\Libero_SoC_v2024.2\Designer\bin\projects\SMF2000-M3_ProjectRad\SC2021_Workspace_PRad\eNVM\Debug/../drivers/mss_nvm/mss_nvm.c:701
  indicates that the WD[] buffer will have to be seeded with the existing
  content of the eNVM before copying the data to program to eNVM into the WD[]
  buffer.
 */
static uint32_t get_remaining_page_length(uint32_t offset, uint32_t length)
{
20001c84:	b480      	push	{r7}
20001c86:	b085      	sub	sp, #20
20001c88:	af00      	add	r7, sp, #0
20001c8a:	6078      	str	r0, [r7, #4]
20001c8c:	6039      	str	r1, [r7, #0]
C:\Microchip\Libero_SoC_v2024.2\Designer\bin\projects\SMF2000-M3_ProjectRad\SC2021_Workspace_PRad\eNVM\Debug/../drivers/mss_nvm/mss_nvm.c:705
    uint32_t start_page_plus_one;
    uint32_t last_page;
    
    start_page_plus_one = (offset / BYTES_PER_PAGE) + 1u;
20001c8e:	687b      	ldr	r3, [r7, #4]
20001c90:	09db      	lsrs	r3, r3, #7
20001c92:	3301      	adds	r3, #1
20001c94:	60fb      	str	r3, [r7, #12]
C:\Microchip\Libero_SoC_v2024.2\Designer\bin\projects\SMF2000-M3_ProjectRad\SC2021_Workspace_PRad\eNVM\Debug/../drivers/mss_nvm/mss_nvm.c:706
    last_page = (offset + length) / BYTES_PER_PAGE;
20001c96:	687a      	ldr	r2, [r7, #4]
20001c98:	683b      	ldr	r3, [r7, #0]
20001c9a:	4413      	add	r3, r2
20001c9c:	09db      	lsrs	r3, r3, #7
20001c9e:	60bb      	str	r3, [r7, #8]
C:\Microchip\Libero_SoC_v2024.2\Designer\bin\projects\SMF2000-M3_ProjectRad\SC2021_Workspace_PRad\eNVM\Debug/../drivers/mss_nvm/mss_nvm.c:707
    if(last_page >= start_page_plus_one)
20001ca0:	68ba      	ldr	r2, [r7, #8]
20001ca2:	68fb      	ldr	r3, [r7, #12]
20001ca4:	429a      	cmp	r2, r3
20001ca6:	d305      	bcc.n	20001cb4 <get_remaining_page_length+0x30>
C:\Microchip\Libero_SoC_v2024.2\Designer\bin\projects\SMF2000-M3_ProjectRad\SC2021_Workspace_PRad\eNVM\Debug/../drivers/mss_nvm/mss_nvm.c:709
    {
        length = BYTES_PER_PAGE - (offset % BYTES_PER_PAGE);
20001ca8:	687b      	ldr	r3, [r7, #4]
20001caa:	f003 037f 	and.w	r3, r3, #127	; 0x7f
20001cae:	f1c3 0380 	rsb	r3, r3, #128	; 0x80
20001cb2:	603b      	str	r3, [r7, #0]
C:\Microchip\Libero_SoC_v2024.2\Designer\bin\projects\SMF2000-M3_ProjectRad\SC2021_Workspace_PRad\eNVM\Debug/../drivers/mss_nvm/mss_nvm.c:712
    }
    
    return length;
20001cb4:	683b      	ldr	r3, [r7, #0]
C:\Microchip\Libero_SoC_v2024.2\Designer\bin\projects\SMF2000-M3_ProjectRad\SC2021_Workspace_PRad\eNVM\Debug/../drivers/mss_nvm/mss_nvm.c:713
}
20001cb6:	4618      	mov	r0, r3
20001cb8:	3714      	adds	r7, #20
20001cba:	46bd      	mov	sp, r7
20001cbc:	bc80      	pop	{r7}
20001cbe:	4770      	bx	lr

20001cc0 <fill_wd_buffer>:
fill_wd_buffer():
C:\Microchip\Libero_SoC_v2024.2\Designer\bin\projects\SMF2000-M3_ProjectRad\SC2021_Workspace_PRad\eNVM\Debug/../drivers/mss_nvm/mss_nvm.c:725
    const uint8_t * p_data,
    uint32_t  length,
    uint32_t block,
    uint32_t offset
)
{
20001cc0:	b480      	push	{r7}
20001cc2:	b08b      	sub	sp, #44	; 0x2c
20001cc4:	af00      	add	r7, sp, #0
20001cc6:	60f8      	str	r0, [r7, #12]
20001cc8:	60b9      	str	r1, [r7, #8]
20001cca:	607a      	str	r2, [r7, #4]
20001ccc:	603b      	str	r3, [r7, #0]
C:\Microchip\Libero_SoC_v2024.2\Designer\bin\projects\SMF2000-M3_ProjectRad\SC2021_Workspace_PRad\eNVM\Debug/../drivers/mss_nvm/mss_nvm.c:729
    uint32_t inc;
    uint32_t wd_offset;
    
    if(length != BYTES_PER_PAGE)
20001cce:	68bb      	ldr	r3, [r7, #8]
20001cd0:	2b80      	cmp	r3, #128	; 0x80
20001cd2:	d055      	beq.n	20001d80 <fill_wd_buffer+0xc0>
C:\Microchip\Libero_SoC_v2024.2\Designer\bin\projects\SMF2000-M3_ProjectRad\SC2021_Workspace_PRad\eNVM\Debug/../drivers/mss_nvm/mss_nvm.c:738
        uint32_t first_non_written_word;
        /* 
         * Fill beginning of WD[] with current content of NVM page that must not
         * be overwritten.
         */
        p_nvm32 = (uint32_t *)((NVM_BASE_ADDRESS + offset + (block * NVM1_BOTTOM_OFFSET)) & PAGE_ADDR_MASK);
20001cd4:	687b      	ldr	r3, [r7, #4]
20001cd6:	049a      	lsls	r2, r3, #18
20001cd8:	683b      	ldr	r3, [r7, #0]
20001cda:	4413      	add	r3, r2
20001cdc:	f103 43c0 	add.w	r3, r3, #1610612736	; 0x60000000
20001ce0:	f023 037f 	bic.w	r3, r3, #127	; 0x7f
20001ce4:	61fb      	str	r3, [r7, #28]
C:\Microchip\Libero_SoC_v2024.2\Designer\bin\projects\SMF2000-M3_ProjectRad\SC2021_Workspace_PRad\eNVM\Debug/../drivers/mss_nvm/mss_nvm.c:739
        nb_non_written_words = (offset % BYTES_PER_PAGE) / NB_OF_BYTES_IN_A_WORD;
20001ce6:	683b      	ldr	r3, [r7, #0]
20001ce8:	f003 037f 	and.w	r3, r3, #127	; 0x7f
20001cec:	089b      	lsrs	r3, r3, #2
20001cee:	623b      	str	r3, [r7, #32]
C:\Microchip\Libero_SoC_v2024.2\Designer\bin\projects\SMF2000-M3_ProjectRad\SC2021_Workspace_PRad\eNVM\Debug/../drivers/mss_nvm/mss_nvm.c:740
        if((offset % NB_OF_BYTES_IN_A_WORD) > 0u)
20001cf0:	683b      	ldr	r3, [r7, #0]
20001cf2:	f003 0303 	and.w	r3, r3, #3
20001cf6:	2b00      	cmp	r3, #0
20001cf8:	d002      	beq.n	20001d00 <fill_wd_buffer+0x40>
C:\Microchip\Libero_SoC_v2024.2\Designer\bin\projects\SMF2000-M3_ProjectRad\SC2021_Workspace_PRad\eNVM\Debug/../drivers/mss_nvm/mss_nvm.c:742
        {
            ++nb_non_written_words;
20001cfa:	6a3b      	ldr	r3, [r7, #32]
20001cfc:	3301      	adds	r3, #1
20001cfe:	623b      	str	r3, [r7, #32]
C:\Microchip\Libero_SoC_v2024.2\Designer\bin\projects\SMF2000-M3_ProjectRad\SC2021_Workspace_PRad\eNVM\Debug/../drivers/mss_nvm/mss_nvm.c:744
        }
        for(inc = 0u; (inc < WD_WORD_SIZE) && (inc < nb_non_written_words); ++inc)
20001d00:	2300      	movs	r3, #0
20001d02:	627b      	str	r3, [r7, #36]	; 0x24
20001d04:	e00f      	b.n	20001d26 <fill_wd_buffer+0x66>
C:\Microchip\Libero_SoC_v2024.2\Designer\bin\projects\SMF2000-M3_ProjectRad\SC2021_Workspace_PRad\eNVM\Debug/../drivers/mss_nvm/mss_nvm.c:746 (discriminator 4)
        {
            g_nvm32[block]->WD[inc] = p_nvm32[inc];
20001d06:	6a7b      	ldr	r3, [r7, #36]	; 0x24
20001d08:	009b      	lsls	r3, r3, #2
20001d0a:	69fa      	ldr	r2, [r7, #28]
20001d0c:	441a      	add	r2, r3
20001d0e:	492e      	ldr	r1, [pc, #184]	; (20001dc8 <fill_wd_buffer+0x108>)
20001d10:	687b      	ldr	r3, [r7, #4]
20001d12:	f851 3023 	ldr.w	r3, [r1, r3, lsl #2]
20001d16:	6811      	ldr	r1, [r2, #0]
20001d18:	6a7a      	ldr	r2, [r7, #36]	; 0x24
20001d1a:	3220      	adds	r2, #32
20001d1c:	f843 1022 	str.w	r1, [r3, r2, lsl #2]
C:\Microchip\Libero_SoC_v2024.2\Designer\bin\projects\SMF2000-M3_ProjectRad\SC2021_Workspace_PRad\eNVM\Debug/../drivers/mss_nvm/mss_nvm.c:744 (discriminator 4)
        for(inc = 0u; (inc < WD_WORD_SIZE) && (inc < nb_non_written_words); ++inc)
20001d20:	6a7b      	ldr	r3, [r7, #36]	; 0x24
20001d22:	3301      	adds	r3, #1
20001d24:	627b      	str	r3, [r7, #36]	; 0x24
C:\Microchip\Libero_SoC_v2024.2\Designer\bin\projects\SMF2000-M3_ProjectRad\SC2021_Workspace_PRad\eNVM\Debug/../drivers/mss_nvm/mss_nvm.c:744 (discriminator 1)
20001d26:	6a7b      	ldr	r3, [r7, #36]	; 0x24
20001d28:	2b1f      	cmp	r3, #31
20001d2a:	d803      	bhi.n	20001d34 <fill_wd_buffer+0x74>
C:\Microchip\Libero_SoC_v2024.2\Designer\bin\projects\SMF2000-M3_ProjectRad\SC2021_Workspace_PRad\eNVM\Debug/../drivers/mss_nvm/mss_nvm.c:744 (discriminator 3)
20001d2c:	6a7a      	ldr	r2, [r7, #36]	; 0x24
20001d2e:	6a3b      	ldr	r3, [r7, #32]
20001d30:	429a      	cmp	r2, r3
20001d32:	d3e8      	bcc.n	20001d06 <fill_wd_buffer+0x46>
C:\Microchip\Libero_SoC_v2024.2\Designer\bin\projects\SMF2000-M3_ProjectRad\SC2021_Workspace_PRad\eNVM\Debug/../drivers/mss_nvm/mss_nvm.c:753
        
        /*
         * Fill end of WD[] with current content of NVM page that must not be
         * overwritten.
         */
        first_non_written_word = ((offset + length) % BYTES_PER_PAGE) / NB_OF_BYTES_IN_A_WORD;
20001d34:	683a      	ldr	r2, [r7, #0]
20001d36:	68bb      	ldr	r3, [r7, #8]
20001d38:	4413      	add	r3, r2
20001d3a:	f003 037f 	and.w	r3, r3, #127	; 0x7f
20001d3e:	089b      	lsrs	r3, r3, #2
20001d40:	61bb      	str	r3, [r7, #24]
C:\Microchip\Libero_SoC_v2024.2\Designer\bin\projects\SMF2000-M3_ProjectRad\SC2021_Workspace_PRad\eNVM\Debug/../drivers/mss_nvm/mss_nvm.c:754
        nb_non_written_words = (BYTES_PER_PAGE / NB_OF_BYTES_IN_A_WORD) - first_non_written_word;
20001d42:	69bb      	ldr	r3, [r7, #24]
20001d44:	f1c3 0320 	rsb	r3, r3, #32
20001d48:	623b      	str	r3, [r7, #32]
C:\Microchip\Libero_SoC_v2024.2\Designer\bin\projects\SMF2000-M3_ProjectRad\SC2021_Workspace_PRad\eNVM\Debug/../drivers/mss_nvm/mss_nvm.c:756
        
        for(inc = 0u; inc < nb_non_written_words; ++inc)
20001d4a:	2300      	movs	r3, #0
20001d4c:	627b      	str	r3, [r7, #36]	; 0x24
20001d4e:	e013      	b.n	20001d78 <fill_wd_buffer+0xb8>
C:\Microchip\Libero_SoC_v2024.2\Designer\bin\projects\SMF2000-M3_ProjectRad\SC2021_Workspace_PRad\eNVM\Debug/../drivers/mss_nvm/mss_nvm.c:758 (discriminator 3)
        {
            g_nvm32[block]->WD[first_non_written_word + inc] = p_nvm32[first_non_written_word + inc];
20001d50:	69ba      	ldr	r2, [r7, #24]
20001d52:	6a7b      	ldr	r3, [r7, #36]	; 0x24
20001d54:	4413      	add	r3, r2
20001d56:	009b      	lsls	r3, r3, #2
20001d58:	69fa      	ldr	r2, [r7, #28]
20001d5a:	18d1      	adds	r1, r2, r3
20001d5c:	4a1a      	ldr	r2, [pc, #104]	; (20001dc8 <fill_wd_buffer+0x108>)
20001d5e:	687b      	ldr	r3, [r7, #4]
20001d60:	f852 3023 	ldr.w	r3, [r2, r3, lsl #2]
20001d64:	69b8      	ldr	r0, [r7, #24]
20001d66:	6a7a      	ldr	r2, [r7, #36]	; 0x24
20001d68:	4402      	add	r2, r0
20001d6a:	6809      	ldr	r1, [r1, #0]
20001d6c:	3220      	adds	r2, #32
20001d6e:	f843 1022 	str.w	r1, [r3, r2, lsl #2]
C:\Microchip\Libero_SoC_v2024.2\Designer\bin\projects\SMF2000-M3_ProjectRad\SC2021_Workspace_PRad\eNVM\Debug/../drivers/mss_nvm/mss_nvm.c:756 (discriminator 3)
        for(inc = 0u; inc < nb_non_written_words; ++inc)
20001d72:	6a7b      	ldr	r3, [r7, #36]	; 0x24
20001d74:	3301      	adds	r3, #1
20001d76:	627b      	str	r3, [r7, #36]	; 0x24
C:\Microchip\Libero_SoC_v2024.2\Designer\bin\projects\SMF2000-M3_ProjectRad\SC2021_Workspace_PRad\eNVM\Debug/../drivers/mss_nvm/mss_nvm.c:756 (discriminator 1)
20001d78:	6a7a      	ldr	r2, [r7, #36]	; 0x24
20001d7a:	6a3b      	ldr	r3, [r7, #32]
20001d7c:	429a      	cmp	r2, r3
20001d7e:	d3e7      	bcc.n	20001d50 <fill_wd_buffer+0x90>
C:\Microchip\Libero_SoC_v2024.2\Designer\bin\projects\SMF2000-M3_ProjectRad\SC2021_Workspace_PRad\eNVM\Debug/../drivers/mss_nvm/mss_nvm.c:765
    }
    
    /*
     * Fill WD[] with data requested to be written into NVM.
     */
    wd_offset = offset % BYTES_PER_PAGE;
20001d80:	683b      	ldr	r3, [r7, #0]
20001d82:	f003 037f 	and.w	r3, r3, #127	; 0x7f
20001d86:	617b      	str	r3, [r7, #20]
C:\Microchip\Libero_SoC_v2024.2\Designer\bin\projects\SMF2000-M3_ProjectRad\SC2021_Workspace_PRad\eNVM\Debug/../drivers/mss_nvm/mss_nvm.c:766
    for(inc = 0u; inc < length; ++inc)
20001d88:	2300      	movs	r3, #0
20001d8a:	627b      	str	r3, [r7, #36]	; 0x24
20001d8c:	e011      	b.n	20001db2 <fill_wd_buffer+0xf2>
C:\Microchip\Libero_SoC_v2024.2\Designer\bin\projects\SMF2000-M3_ProjectRad\SC2021_Workspace_PRad\eNVM\Debug/../drivers/mss_nvm/mss_nvm.c:768 (discriminator 3)
    {
        g_nvm[block]->WD[wd_offset + inc] = p_data[inc];
20001d8e:	68fa      	ldr	r2, [r7, #12]
20001d90:	6a7b      	ldr	r3, [r7, #36]	; 0x24
20001d92:	18d1      	adds	r1, r2, r3
20001d94:	4a0d      	ldr	r2, [pc, #52]	; (20001dcc <fill_wd_buffer+0x10c>)
20001d96:	687b      	ldr	r3, [r7, #4]
20001d98:	f852 2023 	ldr.w	r2, [r2, r3, lsl #2]
20001d9c:	6978      	ldr	r0, [r7, #20]
20001d9e:	6a7b      	ldr	r3, [r7, #36]	; 0x24
20001da0:	4403      	add	r3, r0
20001da2:	7809      	ldrb	r1, [r1, #0]
20001da4:	4413      	add	r3, r2
20001da6:	460a      	mov	r2, r1
20001da8:	f883 2080 	strb.w	r2, [r3, #128]	; 0x80
C:\Microchip\Libero_SoC_v2024.2\Designer\bin\projects\SMF2000-M3_ProjectRad\SC2021_Workspace_PRad\eNVM\Debug/../drivers/mss_nvm/mss_nvm.c:766 (discriminator 3)
    for(inc = 0u; inc < length; ++inc)
20001dac:	6a7b      	ldr	r3, [r7, #36]	; 0x24
20001dae:	3301      	adds	r3, #1
20001db0:	627b      	str	r3, [r7, #36]	; 0x24
C:\Microchip\Libero_SoC_v2024.2\Designer\bin\projects\SMF2000-M3_ProjectRad\SC2021_Workspace_PRad\eNVM\Debug/../drivers/mss_nvm/mss_nvm.c:766 (discriminator 1)
20001db2:	6a7a      	ldr	r2, [r7, #36]	; 0x24
20001db4:	68bb      	ldr	r3, [r7, #8]
20001db6:	429a      	cmp	r2, r3
20001db8:	d3e9      	bcc.n	20001d8e <fill_wd_buffer+0xce>
C:\Microchip\Libero_SoC_v2024.2\Designer\bin\projects\SMF2000-M3_ProjectRad\SC2021_Workspace_PRad\eNVM\Debug/../drivers/mss_nvm/mss_nvm.c:770
    }
}
20001dba:	bf00      	nop
20001dbc:	bf00      	nop
20001dbe:	372c      	adds	r7, #44	; 0x2c
20001dc0:	46bd      	mov	sp, r7
20001dc2:	bc80      	pop	{r7}
20001dc4:	4770      	bx	lr
20001dc6:	bf00      	nop
20001dc8:	20008310 	.word	0x20008310
20001dcc:	20008308 	.word	0x20008308

20001dd0 <check_protection_reserved_nvm>:
check_protection_reserved_nvm():
C:\Microchip\Libero_SoC_v2024.2\Designer\bin\projects\SMF2000-M3_ProjectRad\SC2021_Workspace_PRad\eNVM\Debug/../drivers/mss_nvm/mss_nvm.c:926
 *  0x7C000 - 0x7CFFF - 4KB(32 pages) user lower1(bottom) protected area of eNVM1 memory.
 *  0x7B000 - 0x7BFFF - 4KB(32 pages) user upper1(top) protected area of eNVM1 memory.          
 *
 */
static nvm_status_t check_protection_reserved_nvm(uint32_t offset, uint32_t length)
{
20001dd0:	b580      	push	{r7, lr}
20001dd2:	b08c      	sub	sp, #48	; 0x30
20001dd4:	af00      	add	r7, sp, #0
20001dd6:	6078      	str	r0, [r7, #4]
20001dd8:	6039      	str	r1, [r7, #0]
C:\Microchip\Libero_SoC_v2024.2\Designer\bin\projects\SMF2000-M3_ProjectRad\SC2021_Workspace_PRad\eNVM\Debug/../drivers/mss_nvm/mss_nvm.c:934
    uint32_t protection_user0;
    uint32_t protection_user1;
    uint32_t protection_user2;
    uint32_t protection_user3;
    uint32_t protection_flag;
    uint32_t length_minus_one = 0u;
20001dda:	2300      	movs	r3, #0
20001ddc:	62bb      	str	r3, [r7, #40]	; 0x28
C:\Microchip\Libero_SoC_v2024.2\Designer\bin\projects\SMF2000-M3_ProjectRad\SC2021_Workspace_PRad\eNVM\Debug/../drivers/mss_nvm/mss_nvm.c:935
    nvm_status_t status = NVM_SUCCESS;
20001dde:	2300      	movs	r3, #0
20001de0:	f887 3027 	strb.w	r3, [r7, #39]	; 0x27
C:\Microchip\Libero_SoC_v2024.2\Designer\bin\projects\SMF2000-M3_ProjectRad\SC2021_Workspace_PRad\eNVM\Debug/../drivers/mss_nvm/mss_nvm.c:937

    if(0u != length)
20001de4:	683b      	ldr	r3, [r7, #0]
20001de6:	2b00      	cmp	r3, #0
20001de8:	d002      	beq.n	20001df0 <check_protection_reserved_nvm+0x20>
C:\Microchip\Libero_SoC_v2024.2\Designer\bin\projects\SMF2000-M3_ProjectRad\SC2021_Workspace_PRad\eNVM\Debug/../drivers/mss_nvm/mss_nvm.c:939
    {
        length_minus_one = length - 1u;
20001dea:	683b      	ldr	r3, [r7, #0]
20001dec:	3b01      	subs	r3, #1
20001dee:	62bb      	str	r3, [r7, #40]	; 0x28
C:\Microchip\Libero_SoC_v2024.2\Designer\bin\projects\SMF2000-M3_ProjectRad\SC2021_Workspace_PRad\eNVM\Debug/../drivers/mss_nvm/mss_nvm.c:942
    }

    device_version = (SYSREG->DEVICE_VERSION & 0xFFFFu);
20001df0:	4b85      	ldr	r3, [pc, #532]	; (20002008 <check_protection_reserved_nvm+0x238>)
20001df2:	f8d3 314c 	ldr.w	r3, [r3, #332]	; 0x14c
20001df6:	b29b      	uxth	r3, r3
20001df8:	623b      	str	r3, [r7, #32]
C:\Microchip\Libero_SoC_v2024.2\Designer\bin\projects\SMF2000-M3_ProjectRad\SC2021_Workspace_PRad\eNVM\Debug/../drivers/mss_nvm/mss_nvm.c:944
    
    protection_flag = PROTECTION_OFF;
20001dfa:	2300      	movs	r3, #0
20001dfc:	62fb      	str	r3, [r7, #44]	; 0x2c
C:\Microchip\Libero_SoC_v2024.2\Designer\bin\projects\SMF2000-M3_ProjectRad\SC2021_Workspace_PRad\eNVM\Debug/../drivers/mss_nvm/mss_nvm.c:947
    
    /* 005 device */
    if(0xF805u == device_version)
20001dfe:	6a3b      	ldr	r3, [r7, #32]
20001e00:	f64f 0205 	movw	r2, #63493	; 0xf805
20001e04:	4293      	cmp	r3, r2
20001e06:	d177      	bne.n	20001ef8 <check_protection_reserved_nvm+0x128>
C:\Microchip\Libero_SoC_v2024.2\Designer\bin\projects\SMF2000-M3_ProjectRad\SC2021_Workspace_PRad\eNVM\Debug/../drivers/mss_nvm/mss_nvm.c:950
    {
        /* Read eNVM user protect register for lower and upper area protection data */
        protection_data = (SYSREG->ENVM_PROTECT_USER & PROTECT_USER_MASK);
20001e08:	4b7f      	ldr	r3, [pc, #508]	; (20002008 <check_protection_reserved_nvm+0x238>)
20001e0a:	f8d3 2144 	ldr.w	r2, [r3, #324]	; 0x144
20001e0e:	f649 1399 	movw	r3, #39321	; 0x9999
20001e12:	4013      	ands	r3, r2
20001e14:	61fb      	str	r3, [r7, #28]
C:\Microchip\Libero_SoC_v2024.2\Designer\bin\projects\SMF2000-M3_ProjectRad\SC2021_Workspace_PRad\eNVM\Debug/../drivers/mss_nvm/mss_nvm.c:953
        
        /* Check whether the eNVM0 lower or upper area is protected or not */
        if(PROTECT_USER_MASK != protection_data)
20001e16:	69fb      	ldr	r3, [r7, #28]
20001e18:	f649 1299 	movw	r2, #39321	; 0x9999
20001e1c:	4293      	cmp	r3, r2
20001e1e:	d040      	beq.n	20001ea2 <check_protection_reserved_nvm+0xd2>
C:\Microchip\Libero_SoC_v2024.2\Designer\bin\projects\SMF2000-M3_ProjectRad\SC2021_Workspace_PRad\eNVM\Debug/../drivers/mss_nvm/mss_nvm.c:955
        {
            protection_user0 = (protection_data & 0x000Fu);
20001e20:	69fb      	ldr	r3, [r7, #28]
20001e22:	f003 030f 	and.w	r3, r3, #15
20001e26:	61bb      	str	r3, [r7, #24]
C:\Microchip\Libero_SoC_v2024.2\Designer\bin\projects\SMF2000-M3_ProjectRad\SC2021_Workspace_PRad\eNVM\Debug/../drivers/mss_nvm/mss_nvm.c:956
            protection_user1 = ((protection_data & 0x00F0u) >> 4u);
20001e28:	69fb      	ldr	r3, [r7, #28]
20001e2a:	091b      	lsrs	r3, r3, #4
20001e2c:	f003 030f 	and.w	r3, r3, #15
20001e30:	617b      	str	r3, [r7, #20]
C:\Microchip\Libero_SoC_v2024.2\Designer\bin\projects\SMF2000-M3_ProjectRad\SC2021_Workspace_PRad\eNVM\Debug/../drivers/mss_nvm/mss_nvm.c:963
            /* 
             * SAR 79545. 
             * Check write or No read/write protection is enabled then don't lock pages
             * of that eNVM block
             */
            if((WRITE_ONLY == protection_user0) || (WRITE_ONLY == protection_user1) ||
20001e32:	69bb      	ldr	r3, [r7, #24]
20001e34:	2b08      	cmp	r3, #8
20001e36:	d008      	beq.n	20001e4a <check_protection_reserved_nvm+0x7a>
C:\Microchip\Libero_SoC_v2024.2\Designer\bin\projects\SMF2000-M3_ProjectRad\SC2021_Workspace_PRad\eNVM\Debug/../drivers/mss_nvm/mss_nvm.c:963 (discriminator 1)
20001e38:	697b      	ldr	r3, [r7, #20]
20001e3a:	2b08      	cmp	r3, #8
20001e3c:	d005      	beq.n	20001e4a <check_protection_reserved_nvm+0x7a>
C:\Microchip\Libero_SoC_v2024.2\Designer\bin\projects\SMF2000-M3_ProjectRad\SC2021_Workspace_PRad\eNVM\Debug/../drivers/mss_nvm/mss_nvm.c:963 (discriminator 2)
20001e3e:	69bb      	ldr	r3, [r7, #24]
20001e40:	2b00      	cmp	r3, #0
20001e42:	d002      	beq.n	20001e4a <check_protection_reserved_nvm+0x7a>
C:\Microchip\Libero_SoC_v2024.2\Designer\bin\projects\SMF2000-M3_ProjectRad\SC2021_Workspace_PRad\eNVM\Debug/../drivers/mss_nvm/mss_nvm.c:964
               (NO_READ_WRITE == protection_user0) || (NO_READ_WRITE == protection_user1))
20001e44:	697b      	ldr	r3, [r7, #20]
20001e46:	2b00      	cmp	r3, #0
20001e48:	d102      	bne.n	20001e50 <check_protection_reserved_nvm+0x80>
C:\Microchip\Libero_SoC_v2024.2\Designer\bin\projects\SMF2000-M3_ProjectRad\SC2021_Workspace_PRad\eNVM\Debug/../drivers/mss_nvm/mss_nvm.c:966
            {
                g_do_not_lock_page = ON;
20001e4a:	4b70      	ldr	r3, [pc, #448]	; (2000200c <check_protection_reserved_nvm+0x23c>)
20001e4c:	2201      	movs	r2, #1
20001e4e:	701a      	strb	r2, [r3, #0]
C:\Microchip\Libero_SoC_v2024.2\Designer\bin\projects\SMF2000-M3_ProjectRad\SC2021_Workspace_PRad\eNVM\Debug/../drivers/mss_nvm/mss_nvm.c:973
            
            /* 
             * SAR 70908.
             * Checking NVM0 lower protected area is Read or Write or 'No R/W' access
             */
            if(WRITE_ENABLED != protection_user0)
20001e50:	69bb      	ldr	r3, [r7, #24]
20001e52:	2b09      	cmp	r3, #9
20001e54:	d008      	beq.n	20001e68 <check_protection_reserved_nvm+0x98>
C:\Microchip\Libero_SoC_v2024.2\Designer\bin\projects\SMF2000-M3_ProjectRad\SC2021_Workspace_PRad\eNVM\Debug/../drivers/mss_nvm/mss_nvm.c:978
            {
                /* Check the offset is in the range of lower protected memory area,
                 * if it is then the memory is protected.
                 */
                if(offset <= LOWER0_PROTECT_TOP_OFFSET)
20001e56:	687b      	ldr	r3, [r7, #4]
20001e58:	f5b3 5f80 	cmp.w	r3, #4096	; 0x1000
20001e5c:	d204      	bcs.n	20001e68 <check_protection_reserved_nvm+0x98>
C:\Microchip\Libero_SoC_v2024.2\Designer\bin\projects\SMF2000-M3_ProjectRad\SC2021_Workspace_PRad\eNVM\Debug/../drivers/mss_nvm/mss_nvm.c:980
                {
                    protection_flag = protection_check(protection_user0, length);
20001e5e:	6839      	ldr	r1, [r7, #0]
20001e60:	69b8      	ldr	r0, [r7, #24]
20001e62:	f000 fa1d 	bl	200022a0 <protection_check>
20001e66:	62f8      	str	r0, [r7, #44]	; 0x2c
C:\Microchip\Libero_SoC_v2024.2\Designer\bin\projects\SMF2000-M3_ProjectRad\SC2021_Workspace_PRad\eNVM\Debug/../drivers/mss_nvm/mss_nvm.c:988
            
            /*
             * SAR 70908.
             * Checking NVM0 upper protected area is Read or Write or 'No R/W' access 
             */
            if((WRITE_ENABLED != protection_user1) && (OFF == protection_flag))
20001e68:	697b      	ldr	r3, [r7, #20]
20001e6a:	2b09      	cmp	r3, #9
20001e6c:	d019      	beq.n	20001ea2 <check_protection_reserved_nvm+0xd2>
C:\Microchip\Libero_SoC_v2024.2\Designer\bin\projects\SMF2000-M3_ProjectRad\SC2021_Workspace_PRad\eNVM\Debug/../drivers/mss_nvm/mss_nvm.c:988 (discriminator 1)
20001e6e:	6afb      	ldr	r3, [r7, #44]	; 0x2c
20001e70:	2b00      	cmp	r3, #0
20001e72:	d116      	bne.n	20001ea2 <check_protection_reserved_nvm+0xd2>
C:\Microchip\Libero_SoC_v2024.2\Designer\bin\projects\SMF2000-M3_ProjectRad\SC2021_Workspace_PRad\eNVM\Debug/../drivers/mss_nvm/mss_nvm.c:993
            {
                /* Check the offset or (offset + length) is in the range of upper 
                 *  protect memory area, if it is then the memory is protected.
                 */
                if(((offset >= OO5_UPPER0_PROTECT_BOTTOM_OFFSET) && 
20001e74:	687b      	ldr	r3, [r7, #4]
20001e76:	f5b3 3ff8 	cmp.w	r3, #126976	; 0x1f000
20001e7a:	d303      	bcc.n	20001e84 <check_protection_reserved_nvm+0xb4>
C:\Microchip\Libero_SoC_v2024.2\Designer\bin\projects\SMF2000-M3_ProjectRad\SC2021_Workspace_PRad\eNVM\Debug/../drivers/mss_nvm/mss_nvm.c:993 (discriminator 1)
20001e7c:	687b      	ldr	r3, [r7, #4]
20001e7e:	f5b3 3f00 	cmp.w	r3, #131072	; 0x20000
20001e82:	d309      	bcc.n	20001e98 <check_protection_reserved_nvm+0xc8>
C:\Microchip\Libero_SoC_v2024.2\Designer\bin\projects\SMF2000-M3_ProjectRad\SC2021_Workspace_PRad\eNVM\Debug/../drivers/mss_nvm/mss_nvm.c:995
                    (offset <= OO5_UPPER0_PROTECT_TOP_OFFSET)) ||
                    (((offset + length_minus_one) >= OO5_UPPER0_PROTECT_BOTTOM_OFFSET) &&
20001e84:	687a      	ldr	r2, [r7, #4]
20001e86:	6abb      	ldr	r3, [r7, #40]	; 0x28
20001e88:	4413      	add	r3, r2
C:\Microchip\Libero_SoC_v2024.2\Designer\bin\projects\SMF2000-M3_ProjectRad\SC2021_Workspace_PRad\eNVM\Debug/../drivers/mss_nvm/mss_nvm.c:994
                    (offset <= OO5_UPPER0_PROTECT_TOP_OFFSET)) ||
20001e8a:	f5b3 3ff8 	cmp.w	r3, #126976	; 0x1f000
20001e8e:	d308      	bcc.n	20001ea2 <check_protection_reserved_nvm+0xd2>
C:\Microchip\Libero_SoC_v2024.2\Designer\bin\projects\SMF2000-M3_ProjectRad\SC2021_Workspace_PRad\eNVM\Debug/../drivers/mss_nvm/mss_nvm.c:995
                    (((offset + length_minus_one) >= OO5_UPPER0_PROTECT_BOTTOM_OFFSET) &&
20001e90:	687b      	ldr	r3, [r7, #4]
20001e92:	f5b3 3ff8 	cmp.w	r3, #126976	; 0x1f000
20001e96:	d204      	bcs.n	20001ea2 <check_protection_reserved_nvm+0xd2>
C:\Microchip\Libero_SoC_v2024.2\Designer\bin\projects\SMF2000-M3_ProjectRad\SC2021_Workspace_PRad\eNVM\Debug/../drivers/mss_nvm/mss_nvm.c:998
                    (offset < OO5_UPPER0_PROTECT_BOTTOM_OFFSET)))
                {
                    protection_flag = protection_check(protection_user1, length);
20001e98:	6839      	ldr	r1, [r7, #0]
20001e9a:	6978      	ldr	r0, [r7, #20]
20001e9c:	f000 fa00 	bl	200022a0 <protection_check>
20001ea0:	62f8      	str	r0, [r7, #44]	; 0x2c
C:\Microchip\Libero_SoC_v2024.2\Designer\bin\projects\SMF2000-M3_ProjectRad\SC2021_Workspace_PRad\eNVM\Debug/../drivers/mss_nvm/mss_nvm.c:1004
                }
            }
        }
        
        /* Check the eNVM memory is protected or not */
        if(PROTECTION_ON == protection_flag)
20001ea2:	6afb      	ldr	r3, [r7, #44]	; 0x2c
20001ea4:	2b01      	cmp	r3, #1
20001ea6:	d103      	bne.n	20001eb0 <check_protection_reserved_nvm+0xe0>
C:\Microchip\Libero_SoC_v2024.2\Designer\bin\projects\SMF2000-M3_ProjectRad\SC2021_Workspace_PRad\eNVM\Debug/../drivers/mss_nvm/mss_nvm.c:1007
        {
            /* Status is protection error if lower or upper area of eNVM is protected */
            status = NVM_PROTECTION_ERROR;
20001ea8:	2301      	movs	r3, #1
20001eaa:	f887 3027 	strb.w	r3, [r7, #39]	; 0x27
20001eae:	e1ec      	b.n	2000228a <check_protection_reserved_nvm+0x4ba>
C:\Microchip\Libero_SoC_v2024.2\Designer\bin\projects\SMF2000-M3_ProjectRad\SC2021_Workspace_PRad\eNVM\Debug/../drivers/mss_nvm/mss_nvm.c:1012
        }
        else
        {
            /* Check (offset + length) is out of eNVM memory */
            if((offset + length_minus_one) > OO5_UPPER0_PROTECT_TOP_OFFSET)
20001eb0:	687a      	ldr	r2, [r7, #4]
20001eb2:	6abb      	ldr	r3, [r7, #40]	; 0x28
20001eb4:	4413      	add	r3, r2
20001eb6:	f5b3 3f00 	cmp.w	r3, #131072	; 0x20000
20001eba:	d303      	bcc.n	20001ec4 <check_protection_reserved_nvm+0xf4>
C:\Microchip\Libero_SoC_v2024.2\Designer\bin\projects\SMF2000-M3_ProjectRad\SC2021_Workspace_PRad\eNVM\Debug/../drivers/mss_nvm/mss_nvm.c:1014
            {
                status = NVM_INVALID_PARAMETER;
20001ebc:	2307      	movs	r3, #7
20001ebe:	f887 3027 	strb.w	r3, [r7, #39]	; 0x27
20001ec2:	e1e2      	b.n	2000228a <check_protection_reserved_nvm+0x4ba>
C:\Microchip\Libero_SoC_v2024.2\Designer\bin\projects\SMF2000-M3_ProjectRad\SC2021_Workspace_PRad\eNVM\Debug/../drivers/mss_nvm/mss_nvm.c:1019
            }
            else
            {
                /* Check the offset is in eNVM reserved memory area - 16 pages reserved */
                if(((offset >= OO5_NVM_RSV_OFFSET) && (offset <= OO5_UPPER0_PROTECT_TOP_OFFSET)) ||
20001ec4:	687b      	ldr	r3, [r7, #4]
20001ec6:	f5b3 3ffc 	cmp.w	r3, #129024	; 0x1f800
20001eca:	d303      	bcc.n	20001ed4 <check_protection_reserved_nvm+0x104>
C:\Microchip\Libero_SoC_v2024.2\Designer\bin\projects\SMF2000-M3_ProjectRad\SC2021_Workspace_PRad\eNVM\Debug/../drivers/mss_nvm/mss_nvm.c:1019 (discriminator 1)
20001ecc:	687b      	ldr	r3, [r7, #4]
20001ece:	f5b3 3f00 	cmp.w	r3, #131072	; 0x20000
20001ed2:	d309      	bcc.n	20001ee8 <check_protection_reserved_nvm+0x118>
C:\Microchip\Libero_SoC_v2024.2\Designer\bin\projects\SMF2000-M3_ProjectRad\SC2021_Workspace_PRad\eNVM\Debug/../drivers/mss_nvm/mss_nvm.c:1020 (discriminator 3)
                    (((offset + length_minus_one) >= OO5_NVM_RSV_OFFSET) &&
20001ed4:	687a      	ldr	r2, [r7, #4]
20001ed6:	6abb      	ldr	r3, [r7, #40]	; 0x28
20001ed8:	4413      	add	r3, r2
C:\Microchip\Libero_SoC_v2024.2\Designer\bin\projects\SMF2000-M3_ProjectRad\SC2021_Workspace_PRad\eNVM\Debug/../drivers/mss_nvm/mss_nvm.c:1019 (discriminator 3)
                if(((offset >= OO5_NVM_RSV_OFFSET) && (offset <= OO5_UPPER0_PROTECT_TOP_OFFSET)) ||
20001eda:	f5b3 3ffc 	cmp.w	r3, #129024	; 0x1f800
20001ede:	d307      	bcc.n	20001ef0 <check_protection_reserved_nvm+0x120>
C:\Microchip\Libero_SoC_v2024.2\Designer\bin\projects\SMF2000-M3_ProjectRad\SC2021_Workspace_PRad\eNVM\Debug/../drivers/mss_nvm/mss_nvm.c:1020
                    (((offset + length_minus_one) >= OO5_NVM_RSV_OFFSET) &&
20001ee0:	687b      	ldr	r3, [r7, #4]
20001ee2:	f5b3 3ffc 	cmp.w	r3, #129024	; 0x1f800
20001ee6:	d203      	bcs.n	20001ef0 <check_protection_reserved_nvm+0x120>
C:\Microchip\Libero_SoC_v2024.2\Designer\bin\projects\SMF2000-M3_ProjectRad\SC2021_Workspace_PRad\eNVM\Debug/../drivers/mss_nvm/mss_nvm.c:1028
                    /* 
                     * SAR 70908.
                     * Status is protection error if the offset or (offset + length) is 
                     * in reserved area of eNVM
                     */
                    status = NVM_PROTECTION_ERROR;
20001ee8:	2301      	movs	r3, #1
20001eea:	f887 3027 	strb.w	r3, [r7, #39]	; 0x27
20001eee:	e1cc      	b.n	2000228a <check_protection_reserved_nvm+0x4ba>
C:\Microchip\Libero_SoC_v2024.2\Designer\bin\projects\SMF2000-M3_ProjectRad\SC2021_Workspace_PRad\eNVM\Debug/../drivers/mss_nvm/mss_nvm.c:1035
                else
                {
                    /* Status is success if the offset or (offset + length) is 
                     * in RW access of eNVM memory(not protected)
                     */
                    status = NVM_SUCCESS;
20001ef0:	2300      	movs	r3, #0
20001ef2:	f887 3027 	strb.w	r3, [r7, #39]	; 0x27
20001ef6:	e1c8      	b.n	2000228a <check_protection_reserved_nvm+0x4ba>
C:\Microchip\Libero_SoC_v2024.2\Designer\bin\projects\SMF2000-M3_ProjectRad\SC2021_Workspace_PRad\eNVM\Debug/../drivers/mss_nvm/mss_nvm.c:1042
            }
        }
    }
    
    /* 010/025/050 device */
    else if((0xF802u == device_version) || (0xF803u == device_version) || (0xF804u == device_version))
20001ef8:	6a3b      	ldr	r3, [r7, #32]
20001efa:	f64f 0202 	movw	r2, #63490	; 0xf802
20001efe:	4293      	cmp	r3, r2
20001f00:	d009      	beq.n	20001f16 <check_protection_reserved_nvm+0x146>
C:\Microchip\Libero_SoC_v2024.2\Designer\bin\projects\SMF2000-M3_ProjectRad\SC2021_Workspace_PRad\eNVM\Debug/../drivers/mss_nvm/mss_nvm.c:1042 (discriminator 1)
20001f02:	6a3b      	ldr	r3, [r7, #32]
20001f04:	f64f 0203 	movw	r2, #63491	; 0xf803
20001f08:	4293      	cmp	r3, r2
20001f0a:	d004      	beq.n	20001f16 <check_protection_reserved_nvm+0x146>
C:\Microchip\Libero_SoC_v2024.2\Designer\bin\projects\SMF2000-M3_ProjectRad\SC2021_Workspace_PRad\eNVM\Debug/../drivers/mss_nvm/mss_nvm.c:1042 (discriminator 2)
20001f0c:	6a3b      	ldr	r3, [r7, #32]
20001f0e:	f64f 0204 	movw	r2, #63492	; 0xf804
20001f12:	4293      	cmp	r3, r2
20001f14:	d17c      	bne.n	20002010 <check_protection_reserved_nvm+0x240>
C:\Microchip\Libero_SoC_v2024.2\Designer\bin\projects\SMF2000-M3_ProjectRad\SC2021_Workspace_PRad\eNVM\Debug/../drivers/mss_nvm/mss_nvm.c:1045
    {    
        /* Read eNVM user protect register for lower and upper area protection data */
        protection_data = (SYSREG->ENVM_PROTECT_USER & PROTECT_USER_MASK);
20001f16:	4b3c      	ldr	r3, [pc, #240]	; (20002008 <check_protection_reserved_nvm+0x238>)
20001f18:	f8d3 2144 	ldr.w	r2, [r3, #324]	; 0x144
20001f1c:	f649 1399 	movw	r3, #39321	; 0x9999
20001f20:	4013      	ands	r3, r2
20001f22:	61fb      	str	r3, [r7, #28]
C:\Microchip\Libero_SoC_v2024.2\Designer\bin\projects\SMF2000-M3_ProjectRad\SC2021_Workspace_PRad\eNVM\Debug/../drivers/mss_nvm/mss_nvm.c:1048
        
        /* Check whether the eNVM0 lower or upper area is protected or not */
        if(PROTECT_USER_MASK != protection_data)
20001f24:	69fb      	ldr	r3, [r7, #28]
20001f26:	f649 1299 	movw	r2, #39321	; 0x9999
20001f2a:	4293      	cmp	r3, r2
20001f2c:	d040      	beq.n	20001fb0 <check_protection_reserved_nvm+0x1e0>
C:\Microchip\Libero_SoC_v2024.2\Designer\bin\projects\SMF2000-M3_ProjectRad\SC2021_Workspace_PRad\eNVM\Debug/../drivers/mss_nvm/mss_nvm.c:1050
        {
            protection_user0 = (protection_data & 0x000Fu);
20001f2e:	69fb      	ldr	r3, [r7, #28]
20001f30:	f003 030f 	and.w	r3, r3, #15
20001f34:	61bb      	str	r3, [r7, #24]
C:\Microchip\Libero_SoC_v2024.2\Designer\bin\projects\SMF2000-M3_ProjectRad\SC2021_Workspace_PRad\eNVM\Debug/../drivers/mss_nvm/mss_nvm.c:1051
            protection_user1 = ((protection_data & 0x00F0u) >> 4u);
20001f36:	69fb      	ldr	r3, [r7, #28]
20001f38:	091b      	lsrs	r3, r3, #4
20001f3a:	f003 030f 	and.w	r3, r3, #15
20001f3e:	617b      	str	r3, [r7, #20]
C:\Microchip\Libero_SoC_v2024.2\Designer\bin\projects\SMF2000-M3_ProjectRad\SC2021_Workspace_PRad\eNVM\Debug/../drivers/mss_nvm/mss_nvm.c:1058
            /* 
             * SAR 79545. 
             * Check write or No read/write protection is enabled then don't lock pages
             * of that eNVM block
             */
            if((WRITE_ONLY == protection_user0) || (WRITE_ONLY == protection_user1) ||
20001f40:	69bb      	ldr	r3, [r7, #24]
20001f42:	2b08      	cmp	r3, #8
20001f44:	d008      	beq.n	20001f58 <check_protection_reserved_nvm+0x188>
C:\Microchip\Libero_SoC_v2024.2\Designer\bin\projects\SMF2000-M3_ProjectRad\SC2021_Workspace_PRad\eNVM\Debug/../drivers/mss_nvm/mss_nvm.c:1058 (discriminator 1)
20001f46:	697b      	ldr	r3, [r7, #20]
20001f48:	2b08      	cmp	r3, #8
20001f4a:	d005      	beq.n	20001f58 <check_protection_reserved_nvm+0x188>
C:\Microchip\Libero_SoC_v2024.2\Designer\bin\projects\SMF2000-M3_ProjectRad\SC2021_Workspace_PRad\eNVM\Debug/../drivers/mss_nvm/mss_nvm.c:1058 (discriminator 2)
20001f4c:	69bb      	ldr	r3, [r7, #24]
20001f4e:	2b00      	cmp	r3, #0
20001f50:	d002      	beq.n	20001f58 <check_protection_reserved_nvm+0x188>
C:\Microchip\Libero_SoC_v2024.2\Designer\bin\projects\SMF2000-M3_ProjectRad\SC2021_Workspace_PRad\eNVM\Debug/../drivers/mss_nvm/mss_nvm.c:1059
               (NO_READ_WRITE == protection_user0) || (NO_READ_WRITE == protection_user1))
20001f52:	697b      	ldr	r3, [r7, #20]
20001f54:	2b00      	cmp	r3, #0
20001f56:	d102      	bne.n	20001f5e <check_protection_reserved_nvm+0x18e>
C:\Microchip\Libero_SoC_v2024.2\Designer\bin\projects\SMF2000-M3_ProjectRad\SC2021_Workspace_PRad\eNVM\Debug/../drivers/mss_nvm/mss_nvm.c:1061
            {
                g_do_not_lock_page = ON;
20001f58:	4b2c      	ldr	r3, [pc, #176]	; (2000200c <check_protection_reserved_nvm+0x23c>)
20001f5a:	2201      	movs	r2, #1
20001f5c:	701a      	strb	r2, [r3, #0]
C:\Microchip\Libero_SoC_v2024.2\Designer\bin\projects\SMF2000-M3_ProjectRad\SC2021_Workspace_PRad\eNVM\Debug/../drivers/mss_nvm/mss_nvm.c:1068
            
            /* 
             * SAR 70908.
             * Check NVM0 lower protected area is Read or Write or 'No R/W' access
             */
            if(WRITE_ENABLED != protection_user0)
20001f5e:	69bb      	ldr	r3, [r7, #24]
20001f60:	2b09      	cmp	r3, #9
20001f62:	d008      	beq.n	20001f76 <check_protection_reserved_nvm+0x1a6>
C:\Microchip\Libero_SoC_v2024.2\Designer\bin\projects\SMF2000-M3_ProjectRad\SC2021_Workspace_PRad\eNVM\Debug/../drivers/mss_nvm/mss_nvm.c:1073
            {
                /* Check the offset is in the range of lower protected memory area,
                 * if it is then the memory is protected.
                 */
                if(offset <= LOWER0_PROTECT_TOP_OFFSET)
20001f64:	687b      	ldr	r3, [r7, #4]
20001f66:	f5b3 5f80 	cmp.w	r3, #4096	; 0x1000
20001f6a:	d204      	bcs.n	20001f76 <check_protection_reserved_nvm+0x1a6>
C:\Microchip\Libero_SoC_v2024.2\Designer\bin\projects\SMF2000-M3_ProjectRad\SC2021_Workspace_PRad\eNVM\Debug/../drivers/mss_nvm/mss_nvm.c:1075
                {
                    protection_flag = protection_check(protection_user0, length);
20001f6c:	6839      	ldr	r1, [r7, #0]
20001f6e:	69b8      	ldr	r0, [r7, #24]
20001f70:	f000 f996 	bl	200022a0 <protection_check>
20001f74:	62f8      	str	r0, [r7, #44]	; 0x2c
C:\Microchip\Libero_SoC_v2024.2\Designer\bin\projects\SMF2000-M3_ProjectRad\SC2021_Workspace_PRad\eNVM\Debug/../drivers/mss_nvm/mss_nvm.c:1083
            
            /* 
             * SAR 70908.
             * Check NVM0 upper protected area is Read or Write or 'No R/W' access
             */
            if((WRITE_ENABLED != protection_user1) && (OFF == protection_flag))
20001f76:	697b      	ldr	r3, [r7, #20]
20001f78:	2b09      	cmp	r3, #9
20001f7a:	d019      	beq.n	20001fb0 <check_protection_reserved_nvm+0x1e0>
C:\Microchip\Libero_SoC_v2024.2\Designer\bin\projects\SMF2000-M3_ProjectRad\SC2021_Workspace_PRad\eNVM\Debug/../drivers/mss_nvm/mss_nvm.c:1083 (discriminator 1)
20001f7c:	6afb      	ldr	r3, [r7, #44]	; 0x2c
20001f7e:	2b00      	cmp	r3, #0
20001f80:	d116      	bne.n	20001fb0 <check_protection_reserved_nvm+0x1e0>
C:\Microchip\Libero_SoC_v2024.2\Designer\bin\projects\SMF2000-M3_ProjectRad\SC2021_Workspace_PRad\eNVM\Debug/../drivers/mss_nvm/mss_nvm.c:1088
            {
                /* Check the offset or (offset + length) is in the range of upper 
                 * protect memory area, if it is then the memory is protected.
                 */
                if(((offset >= UPPER0_PROTECT_BOTTOM_OFFSET) &&
20001f82:	687b      	ldr	r3, [r7, #4]
20001f84:	f5b3 3f7c 	cmp.w	r3, #258048	; 0x3f000
20001f88:	d303      	bcc.n	20001f92 <check_protection_reserved_nvm+0x1c2>
C:\Microchip\Libero_SoC_v2024.2\Designer\bin\projects\SMF2000-M3_ProjectRad\SC2021_Workspace_PRad\eNVM\Debug/../drivers/mss_nvm/mss_nvm.c:1088 (discriminator 1)
20001f8a:	687b      	ldr	r3, [r7, #4]
20001f8c:	f5b3 2f80 	cmp.w	r3, #262144	; 0x40000
20001f90:	d309      	bcc.n	20001fa6 <check_protection_reserved_nvm+0x1d6>
C:\Microchip\Libero_SoC_v2024.2\Designer\bin\projects\SMF2000-M3_ProjectRad\SC2021_Workspace_PRad\eNVM\Debug/../drivers/mss_nvm/mss_nvm.c:1090
                    (offset <= UPPER0_PROTECT_TOP_OFFSET)) ||
                    (((offset + length_minus_one) >= UPPER0_PROTECT_BOTTOM_OFFSET) &&
20001f92:	687a      	ldr	r2, [r7, #4]
20001f94:	6abb      	ldr	r3, [r7, #40]	; 0x28
20001f96:	4413      	add	r3, r2
C:\Microchip\Libero_SoC_v2024.2\Designer\bin\projects\SMF2000-M3_ProjectRad\SC2021_Workspace_PRad\eNVM\Debug/../drivers/mss_nvm/mss_nvm.c:1089
                    (offset <= UPPER0_PROTECT_TOP_OFFSET)) ||
20001f98:	f5b3 3f7c 	cmp.w	r3, #258048	; 0x3f000
20001f9c:	d308      	bcc.n	20001fb0 <check_protection_reserved_nvm+0x1e0>
C:\Microchip\Libero_SoC_v2024.2\Designer\bin\projects\SMF2000-M3_ProjectRad\SC2021_Workspace_PRad\eNVM\Debug/../drivers/mss_nvm/mss_nvm.c:1090
                    (((offset + length_minus_one) >= UPPER0_PROTECT_BOTTOM_OFFSET) &&
20001f9e:	687b      	ldr	r3, [r7, #4]
20001fa0:	f5b3 3f7c 	cmp.w	r3, #258048	; 0x3f000
20001fa4:	d204      	bcs.n	20001fb0 <check_protection_reserved_nvm+0x1e0>
C:\Microchip\Libero_SoC_v2024.2\Designer\bin\projects\SMF2000-M3_ProjectRad\SC2021_Workspace_PRad\eNVM\Debug/../drivers/mss_nvm/mss_nvm.c:1093
                    (offset < UPPER0_PROTECT_BOTTOM_OFFSET)))
                {
                    protection_flag = protection_check(protection_user1, length);
20001fa6:	6839      	ldr	r1, [r7, #0]
20001fa8:	6978      	ldr	r0, [r7, #20]
20001faa:	f000 f979 	bl	200022a0 <protection_check>
20001fae:	62f8      	str	r0, [r7, #44]	; 0x2c
C:\Microchip\Libero_SoC_v2024.2\Designer\bin\projects\SMF2000-M3_ProjectRad\SC2021_Workspace_PRad\eNVM\Debug/../drivers/mss_nvm/mss_nvm.c:1099
                }
            } 
        }
        
        /* Check eNVM lower or upper area of memory is protected or not */
        if(PROTECTION_ON == protection_flag)
20001fb0:	6afb      	ldr	r3, [r7, #44]	; 0x2c
20001fb2:	2b01      	cmp	r3, #1
20001fb4:	d103      	bne.n	20001fbe <check_protection_reserved_nvm+0x1ee>
C:\Microchip\Libero_SoC_v2024.2\Designer\bin\projects\SMF2000-M3_ProjectRad\SC2021_Workspace_PRad\eNVM\Debug/../drivers/mss_nvm/mss_nvm.c:1102
        {
            /* Status is protection error if lower or upper area of eNVM is protected */
            status = NVM_PROTECTION_ERROR;
20001fb6:	2301      	movs	r3, #1
20001fb8:	f887 3027 	strb.w	r3, [r7, #39]	; 0x27
C:\Microchip\Libero_SoC_v2024.2\Designer\bin\projects\SMF2000-M3_ProjectRad\SC2021_Workspace_PRad\eNVM\Debug/../drivers/mss_nvm/mss_nvm.c:1099
        if(PROTECTION_ON == protection_flag)
20001fbc:	e165      	b.n	2000228a <check_protection_reserved_nvm+0x4ba>
C:\Microchip\Libero_SoC_v2024.2\Designer\bin\projects\SMF2000-M3_ProjectRad\SC2021_Workspace_PRad\eNVM\Debug/../drivers/mss_nvm/mss_nvm.c:1107
        }
        else
        {
             /* Check (offset + length) is out of eNVM memory */
            if((offset + length_minus_one) > UPPER0_PROTECT_TOP_OFFSET)
20001fbe:	687a      	ldr	r2, [r7, #4]
20001fc0:	6abb      	ldr	r3, [r7, #40]	; 0x28
20001fc2:	4413      	add	r3, r2
20001fc4:	f5b3 2f80 	cmp.w	r3, #262144	; 0x40000
20001fc8:	d303      	bcc.n	20001fd2 <check_protection_reserved_nvm+0x202>
C:\Microchip\Libero_SoC_v2024.2\Designer\bin\projects\SMF2000-M3_ProjectRad\SC2021_Workspace_PRad\eNVM\Debug/../drivers/mss_nvm/mss_nvm.c:1109
            {
                status = NVM_INVALID_PARAMETER;
20001fca:	2307      	movs	r3, #7
20001fcc:	f887 3027 	strb.w	r3, [r7, #39]	; 0x27
C:\Microchip\Libero_SoC_v2024.2\Designer\bin\projects\SMF2000-M3_ProjectRad\SC2021_Workspace_PRad\eNVM\Debug/../drivers/mss_nvm/mss_nvm.c:1099
        if(PROTECTION_ON == protection_flag)
20001fd0:	e15b      	b.n	2000228a <check_protection_reserved_nvm+0x4ba>
C:\Microchip\Libero_SoC_v2024.2\Designer\bin\projects\SMF2000-M3_ProjectRad\SC2021_Workspace_PRad\eNVM\Debug/../drivers/mss_nvm/mss_nvm.c:1114
            }
            else
            {
                /* Check the offset is in eNVM reserved memory area - 16 pages reserved */
                if(((offset >= NVM0_RSV_OFFSET) && (offset <= UPPER0_PROTECT_TOP_OFFSET)) ||
20001fd2:	687b      	ldr	r3, [r7, #4]
20001fd4:	f5b3 3f7e 	cmp.w	r3, #260096	; 0x3f800
20001fd8:	d303      	bcc.n	20001fe2 <check_protection_reserved_nvm+0x212>
C:\Microchip\Libero_SoC_v2024.2\Designer\bin\projects\SMF2000-M3_ProjectRad\SC2021_Workspace_PRad\eNVM\Debug/../drivers/mss_nvm/mss_nvm.c:1114 (discriminator 1)
20001fda:	687b      	ldr	r3, [r7, #4]
20001fdc:	f5b3 2f80 	cmp.w	r3, #262144	; 0x40000
20001fe0:	d309      	bcc.n	20001ff6 <check_protection_reserved_nvm+0x226>
C:\Microchip\Libero_SoC_v2024.2\Designer\bin\projects\SMF2000-M3_ProjectRad\SC2021_Workspace_PRad\eNVM\Debug/../drivers/mss_nvm/mss_nvm.c:1115 (discriminator 3)
                    (((offset + length_minus_one) >= NVM0_RSV_OFFSET) && (offset < NVM0_RSV_OFFSET)))
20001fe2:	687a      	ldr	r2, [r7, #4]
20001fe4:	6abb      	ldr	r3, [r7, #40]	; 0x28
20001fe6:	4413      	add	r3, r2
C:\Microchip\Libero_SoC_v2024.2\Designer\bin\projects\SMF2000-M3_ProjectRad\SC2021_Workspace_PRad\eNVM\Debug/../drivers/mss_nvm/mss_nvm.c:1114 (discriminator 3)
                if(((offset >= NVM0_RSV_OFFSET) && (offset <= UPPER0_PROTECT_TOP_OFFSET)) ||
20001fe8:	f5b3 3f7e 	cmp.w	r3, #260096	; 0x3f800
20001fec:	d307      	bcc.n	20001ffe <check_protection_reserved_nvm+0x22e>
C:\Microchip\Libero_SoC_v2024.2\Designer\bin\projects\SMF2000-M3_ProjectRad\SC2021_Workspace_PRad\eNVM\Debug/../drivers/mss_nvm/mss_nvm.c:1115
                    (((offset + length_minus_one) >= NVM0_RSV_OFFSET) && (offset < NVM0_RSV_OFFSET)))
20001fee:	687b      	ldr	r3, [r7, #4]
20001ff0:	f5b3 3f7e 	cmp.w	r3, #260096	; 0x3f800
20001ff4:	d203      	bcs.n	20001ffe <check_protection_reserved_nvm+0x22e>
C:\Microchip\Libero_SoC_v2024.2\Designer\bin\projects\SMF2000-M3_ProjectRad\SC2021_Workspace_PRad\eNVM\Debug/../drivers/mss_nvm/mss_nvm.c:1122
                    /* 
                     * SAR 70908.
                     * Status is protection error if the offset or (offset + length) is 
                     * in reserved area of eNVM
                     */
                    status = NVM_PROTECTION_ERROR;
20001ff6:	2301      	movs	r3, #1
20001ff8:	f887 3027 	strb.w	r3, [r7, #39]	; 0x27
C:\Microchip\Libero_SoC_v2024.2\Designer\bin\projects\SMF2000-M3_ProjectRad\SC2021_Workspace_PRad\eNVM\Debug/../drivers/mss_nvm/mss_nvm.c:1099
        if(PROTECTION_ON == protection_flag)
20001ffc:	e145      	b.n	2000228a <check_protection_reserved_nvm+0x4ba>
C:\Microchip\Libero_SoC_v2024.2\Designer\bin\projects\SMF2000-M3_ProjectRad\SC2021_Workspace_PRad\eNVM\Debug/../drivers/mss_nvm/mss_nvm.c:1129
                else
                {
                    /* Status is success if offset or (offset + length) is 
                     * in RW access of eNVM memory(not protected)
                     */
                    status = NVM_SUCCESS;
20001ffe:	2300      	movs	r3, #0
20002000:	f887 3027 	strb.w	r3, [r7, #39]	; 0x27
C:\Microchip\Libero_SoC_v2024.2\Designer\bin\projects\SMF2000-M3_ProjectRad\SC2021_Workspace_PRad\eNVM\Debug/../drivers/mss_nvm/mss_nvm.c:1099
        if(PROTECTION_ON == protection_flag)
20002004:	e141      	b.n	2000228a <check_protection_reserved_nvm+0x4ba>
20002006:	bf00      	nop
20002008:	40038000 	.word	0x40038000
2000200c:	20009388 	.word	0x20009388
C:\Microchip\Libero_SoC_v2024.2\Designer\bin\projects\SMF2000-M3_ProjectRad\SC2021_Workspace_PRad\eNVM\Debug/../drivers/mss_nvm/mss_nvm.c:1136
            }
        }
    }
    
    /* 060 device */
    else if(0xF808u == device_version)
20002010:	6a3b      	ldr	r3, [r7, #32]
20002012:	f64f 0208 	movw	r2, #63496	; 0xf808
20002016:	4293      	cmp	r3, r2
20002018:	d172      	bne.n	20002100 <check_protection_reserved_nvm+0x330>
C:\Microchip\Libero_SoC_v2024.2\Designer\bin\projects\SMF2000-M3_ProjectRad\SC2021_Workspace_PRad\eNVM\Debug/../drivers/mss_nvm/mss_nvm.c:1139
    {
        /* Read eNVM user protect register for lower and upper area protection data */
        protection_data = (SYSREG->ENVM_PROTECT_USER & PROTECT_USER_MASK);
2000201a:	4b9f      	ldr	r3, [pc, #636]	; (20002298 <check_protection_reserved_nvm+0x4c8>)
2000201c:	f8d3 2144 	ldr.w	r2, [r3, #324]	; 0x144
20002020:	f649 1399 	movw	r3, #39321	; 0x9999
20002024:	4013      	ands	r3, r2
20002026:	61fb      	str	r3, [r7, #28]
C:\Microchip\Libero_SoC_v2024.2\Designer\bin\projects\SMF2000-M3_ProjectRad\SC2021_Workspace_PRad\eNVM\Debug/../drivers/mss_nvm/mss_nvm.c:1142
        
        /* Check whether the eNVM0 lower0/1 or upper0/1 area is protected or not */
        if(PROTECT_USER_MASK != protection_data)
20002028:	69fb      	ldr	r3, [r7, #28]
2000202a:	f649 1299 	movw	r2, #39321	; 0x9999
2000202e:	4293      	cmp	r3, r2
20002030:	d03b      	beq.n	200020aa <check_protection_reserved_nvm+0x2da>
C:\Microchip\Libero_SoC_v2024.2\Designer\bin\projects\SMF2000-M3_ProjectRad\SC2021_Workspace_PRad\eNVM\Debug/../drivers/mss_nvm/mss_nvm.c:1144
        {
            protection_user0 = (protection_data & 0x000Fu);
20002032:	69fb      	ldr	r3, [r7, #28]
20002034:	f003 030f 	and.w	r3, r3, #15
20002038:	61bb      	str	r3, [r7, #24]
C:\Microchip\Libero_SoC_v2024.2\Designer\bin\projects\SMF2000-M3_ProjectRad\SC2021_Workspace_PRad\eNVM\Debug/../drivers/mss_nvm/mss_nvm.c:1145
            protection_user1 = ((protection_data & 0x00F0u) >> 4u);
2000203a:	69fb      	ldr	r3, [r7, #28]
2000203c:	091b      	lsrs	r3, r3, #4
2000203e:	f003 030f 	and.w	r3, r3, #15
20002042:	617b      	str	r3, [r7, #20]
C:\Microchip\Libero_SoC_v2024.2\Designer\bin\projects\SMF2000-M3_ProjectRad\SC2021_Workspace_PRad\eNVM\Debug/../drivers/mss_nvm/mss_nvm.c:1146
            protection_user2 = ((protection_data & 0x0F00u) >> 8u);
20002044:	69fb      	ldr	r3, [r7, #28]
20002046:	0a1b      	lsrs	r3, r3, #8
20002048:	f003 030f 	and.w	r3, r3, #15
2000204c:	613b      	str	r3, [r7, #16]
C:\Microchip\Libero_SoC_v2024.2\Designer\bin\projects\SMF2000-M3_ProjectRad\SC2021_Workspace_PRad\eNVM\Debug/../drivers/mss_nvm/mss_nvm.c:1147
            protection_user3 = ((protection_data & 0xF000u) >> 12u);
2000204e:	69fb      	ldr	r3, [r7, #28]
20002050:	0b1b      	lsrs	r3, r3, #12
20002052:	f003 030f 	and.w	r3, r3, #15
20002056:	60fb      	str	r3, [r7, #12]
C:\Microchip\Libero_SoC_v2024.2\Designer\bin\projects\SMF2000-M3_ProjectRad\SC2021_Workspace_PRad\eNVM\Debug/../drivers/mss_nvm/mss_nvm.c:1153
            
            /* 
             * SAR 70908.
             * Check NVM0 lower0 protected area is Read or Write or 'No R/W' access
             */
            if(WRITE_ENABLED != protection_user0) 
20002058:	69bb      	ldr	r3, [r7, #24]
2000205a:	2b09      	cmp	r3, #9
2000205c:	d008      	beq.n	20002070 <check_protection_reserved_nvm+0x2a0>
C:\Microchip\Libero_SoC_v2024.2\Designer\bin\projects\SMF2000-M3_ProjectRad\SC2021_Workspace_PRad\eNVM\Debug/../drivers/mss_nvm/mss_nvm.c:1158
            {
                /* Check the offset is in the range of lower protected memory area,
                 * if it is then the memory is protected.
                 */  
                if(offset <= LOWER0_PROTECT_TOP_OFFSET)
2000205e:	687b      	ldr	r3, [r7, #4]
20002060:	f5b3 5f80 	cmp.w	r3, #4096	; 0x1000
20002064:	d204      	bcs.n	20002070 <check_protection_reserved_nvm+0x2a0>
C:\Microchip\Libero_SoC_v2024.2\Designer\bin\projects\SMF2000-M3_ProjectRad\SC2021_Workspace_PRad\eNVM\Debug/../drivers/mss_nvm/mss_nvm.c:1160
                {
                    protection_flag = protection_check(protection_user0, length);
20002066:	6839      	ldr	r1, [r7, #0]
20002068:	69b8      	ldr	r0, [r7, #24]
2000206a:	f000 f919 	bl	200022a0 <protection_check>
2000206e:	62f8      	str	r0, [r7, #44]	; 0x2c
C:\Microchip\Libero_SoC_v2024.2\Designer\bin\projects\SMF2000-M3_ProjectRad\SC2021_Workspace_PRad\eNVM\Debug/../drivers/mss_nvm/mss_nvm.c:1168
            
            /* 
             * SAR 70908.
             * Check NVM0 upper1 protected area is Read or Write or 'No R/W' access
             */
            if((WRITE_ENABLED != protection_user3) && (OFF == protection_flag))
20002070:	68fb      	ldr	r3, [r7, #12]
20002072:	2b09      	cmp	r3, #9
20002074:	d019      	beq.n	200020aa <check_protection_reserved_nvm+0x2da>
C:\Microchip\Libero_SoC_v2024.2\Designer\bin\projects\SMF2000-M3_ProjectRad\SC2021_Workspace_PRad\eNVM\Debug/../drivers/mss_nvm/mss_nvm.c:1168 (discriminator 1)
20002076:	6afb      	ldr	r3, [r7, #44]	; 0x2c
20002078:	2b00      	cmp	r3, #0
2000207a:	d116      	bne.n	200020aa <check_protection_reserved_nvm+0x2da>
C:\Microchip\Libero_SoC_v2024.2\Designer\bin\projects\SMF2000-M3_ProjectRad\SC2021_Workspace_PRad\eNVM\Debug/../drivers/mss_nvm/mss_nvm.c:1173
            {
                /* Check the offset or (offset + length) is in the range of upper1 
                 *  protect memory area, if it is then the memory is protected.
                 */
                if(((offset >= NVM0_UPPER1_PROTECT_BOTTOM_OFFSET) &&
2000207c:	687b      	ldr	r3, [r7, #4]
2000207e:	f5b3 3f74 	cmp.w	r3, #249856	; 0x3d000
20002082:	d303      	bcc.n	2000208c <check_protection_reserved_nvm+0x2bc>
C:\Microchip\Libero_SoC_v2024.2\Designer\bin\projects\SMF2000-M3_ProjectRad\SC2021_Workspace_PRad\eNVM\Debug/../drivers/mss_nvm/mss_nvm.c:1173 (discriminator 1)
20002084:	687b      	ldr	r3, [r7, #4]
20002086:	f5b3 3f78 	cmp.w	r3, #253952	; 0x3e000
2000208a:	d309      	bcc.n	200020a0 <check_protection_reserved_nvm+0x2d0>
C:\Microchip\Libero_SoC_v2024.2\Designer\bin\projects\SMF2000-M3_ProjectRad\SC2021_Workspace_PRad\eNVM\Debug/../drivers/mss_nvm/mss_nvm.c:1175
                    (offset <= NVM0_UPPER1_PROTECT_TOP_OFFSET)) ||
                    (((offset + length_minus_one) >= NVM0_UPPER1_PROTECT_BOTTOM_OFFSET) &&
2000208c:	687a      	ldr	r2, [r7, #4]
2000208e:	6abb      	ldr	r3, [r7, #40]	; 0x28
20002090:	4413      	add	r3, r2
C:\Microchip\Libero_SoC_v2024.2\Designer\bin\projects\SMF2000-M3_ProjectRad\SC2021_Workspace_PRad\eNVM\Debug/../drivers/mss_nvm/mss_nvm.c:1174
                    (offset <= NVM0_UPPER1_PROTECT_TOP_OFFSET)) ||
20002092:	f5b3 3f74 	cmp.w	r3, #249856	; 0x3d000
20002096:	d308      	bcc.n	200020aa <check_protection_reserved_nvm+0x2da>
C:\Microchip\Libero_SoC_v2024.2\Designer\bin\projects\SMF2000-M3_ProjectRad\SC2021_Workspace_PRad\eNVM\Debug/../drivers/mss_nvm/mss_nvm.c:1175
                    (((offset + length_minus_one) >= NVM0_UPPER1_PROTECT_BOTTOM_OFFSET) &&
20002098:	687b      	ldr	r3, [r7, #4]
2000209a:	f5b3 3f74 	cmp.w	r3, #249856	; 0x3d000
2000209e:	d204      	bcs.n	200020aa <check_protection_reserved_nvm+0x2da>
C:\Microchip\Libero_SoC_v2024.2\Designer\bin\projects\SMF2000-M3_ProjectRad\SC2021_Workspace_PRad\eNVM\Debug/../drivers/mss_nvm/mss_nvm.c:1178
                    (offset < NVM0_UPPER1_PROTECT_BOTTOM_OFFSET)))
                {
                    protection_flag = protection_check(protection_user3, length);
200020a0:	6839      	ldr	r1, [r7, #0]
200020a2:	68f8      	ldr	r0, [r7, #12]
200020a4:	f000 f8fc 	bl	200022a0 <protection_check>
200020a8:	62f8      	str	r0, [r7, #44]	; 0x2c
C:\Microchip\Libero_SoC_v2024.2\Designer\bin\projects\SMF2000-M3_ProjectRad\SC2021_Workspace_PRad\eNVM\Debug/../drivers/mss_nvm/mss_nvm.c:1187
        
        /* Check eNVM lower0 or upper1 memory is protected or not.
         * No protection check for  0x3F000 - 0x3FFFF and 0x3E000 - 0x3EFFF lower1/upper0 
         * protected area of eNVM0 memory because it's fall under eNVM reserved area    
         */
        if(PROTECTION_ON == protection_flag)
200020aa:	6afb      	ldr	r3, [r7, #44]	; 0x2c
200020ac:	2b01      	cmp	r3, #1
200020ae:	d103      	bne.n	200020b8 <check_protection_reserved_nvm+0x2e8>
C:\Microchip\Libero_SoC_v2024.2\Designer\bin\projects\SMF2000-M3_ProjectRad\SC2021_Workspace_PRad\eNVM\Debug/../drivers/mss_nvm/mss_nvm.c:1190
        {
            /* Status is protection error if lower0 or upper1 area of eNVM is protected */
            status = NVM_PROTECTION_ERROR;
200020b0:	2301      	movs	r3, #1
200020b2:	f887 3027 	strb.w	r3, [r7, #39]	; 0x27
200020b6:	e0e8      	b.n	2000228a <check_protection_reserved_nvm+0x4ba>
C:\Microchip\Libero_SoC_v2024.2\Designer\bin\projects\SMF2000-M3_ProjectRad\SC2021_Workspace_PRad\eNVM\Debug/../drivers/mss_nvm/mss_nvm.c:1195
        }
        else
        {
            /* Check (offset + length) is out of eNVM memory*/
            if((offset + length_minus_one) > UPPER0_PROTECT_TOP_OFFSET)
200020b8:	687a      	ldr	r2, [r7, #4]
200020ba:	6abb      	ldr	r3, [r7, #40]	; 0x28
200020bc:	4413      	add	r3, r2
200020be:	f5b3 2f80 	cmp.w	r3, #262144	; 0x40000
200020c2:	d303      	bcc.n	200020cc <check_protection_reserved_nvm+0x2fc>
C:\Microchip\Libero_SoC_v2024.2\Designer\bin\projects\SMF2000-M3_ProjectRad\SC2021_Workspace_PRad\eNVM\Debug/../drivers/mss_nvm/mss_nvm.c:1197
            {
                status = NVM_INVALID_PARAMETER;
200020c4:	2307      	movs	r3, #7
200020c6:	f887 3027 	strb.w	r3, [r7, #39]	; 0x27
200020ca:	e0de      	b.n	2000228a <check_protection_reserved_nvm+0x4ba>
C:\Microchip\Libero_SoC_v2024.2\Designer\bin\projects\SMF2000-M3_ProjectRad\SC2021_Workspace_PRad\eNVM\Debug/../drivers/mss_nvm/mss_nvm.c:1202
            }
            else
            {
                /* Check the offset is in eNVM reserved memory area - 64 pages reserved */
                if(((offset >= O60_NVM_RSV_OFFSET) && (offset <= UPPER0_PROTECT_TOP_OFFSET)) ||
200020cc:	687b      	ldr	r3, [r7, #4]
200020ce:	f5b3 3f78 	cmp.w	r3, #253952	; 0x3e000
200020d2:	d303      	bcc.n	200020dc <check_protection_reserved_nvm+0x30c>
C:\Microchip\Libero_SoC_v2024.2\Designer\bin\projects\SMF2000-M3_ProjectRad\SC2021_Workspace_PRad\eNVM\Debug/../drivers/mss_nvm/mss_nvm.c:1202 (discriminator 1)
200020d4:	687b      	ldr	r3, [r7, #4]
200020d6:	f5b3 2f80 	cmp.w	r3, #262144	; 0x40000
200020da:	d309      	bcc.n	200020f0 <check_protection_reserved_nvm+0x320>
C:\Microchip\Libero_SoC_v2024.2\Designer\bin\projects\SMF2000-M3_ProjectRad\SC2021_Workspace_PRad\eNVM\Debug/../drivers/mss_nvm/mss_nvm.c:1203 (discriminator 3)
                    (((offset + length_minus_one) >= O60_NVM_RSV_OFFSET) &&
200020dc:	687a      	ldr	r2, [r7, #4]
200020de:	6abb      	ldr	r3, [r7, #40]	; 0x28
200020e0:	4413      	add	r3, r2
C:\Microchip\Libero_SoC_v2024.2\Designer\bin\projects\SMF2000-M3_ProjectRad\SC2021_Workspace_PRad\eNVM\Debug/../drivers/mss_nvm/mss_nvm.c:1202 (discriminator 3)
                if(((offset >= O60_NVM_RSV_OFFSET) && (offset <= UPPER0_PROTECT_TOP_OFFSET)) ||
200020e2:	f5b3 3f78 	cmp.w	r3, #253952	; 0x3e000
200020e6:	d307      	bcc.n	200020f8 <check_protection_reserved_nvm+0x328>
C:\Microchip\Libero_SoC_v2024.2\Designer\bin\projects\SMF2000-M3_ProjectRad\SC2021_Workspace_PRad\eNVM\Debug/../drivers/mss_nvm/mss_nvm.c:1203
                    (((offset + length_minus_one) >= O60_NVM_RSV_OFFSET) &&
200020e8:	687b      	ldr	r3, [r7, #4]
200020ea:	f5b3 3f78 	cmp.w	r3, #253952	; 0x3e000
200020ee:	d203      	bcs.n	200020f8 <check_protection_reserved_nvm+0x328>
C:\Microchip\Libero_SoC_v2024.2\Designer\bin\projects\SMF2000-M3_ProjectRad\SC2021_Workspace_PRad\eNVM\Debug/../drivers/mss_nvm/mss_nvm.c:1211
                    /* 
                     * SAR 70908.
                     * Status is protection error if the offset or (offset + length) is 
                     * in reserved area of eNVM
                     */
                    status = NVM_PROTECTION_ERROR;
200020f0:	2301      	movs	r3, #1
200020f2:	f887 3027 	strb.w	r3, [r7, #39]	; 0x27
200020f6:	e0c8      	b.n	2000228a <check_protection_reserved_nvm+0x4ba>
C:\Microchip\Libero_SoC_v2024.2\Designer\bin\projects\SMF2000-M3_ProjectRad\SC2021_Workspace_PRad\eNVM\Debug/../drivers/mss_nvm/mss_nvm.c:1215
                }
                else
                {
                    status = NVM_SUCCESS;
200020f8:	2300      	movs	r3, #0
200020fa:	f887 3027 	strb.w	r3, [r7, #39]	; 0x27
200020fe:	e0c4      	b.n	2000228a <check_protection_reserved_nvm+0x4ba>
C:\Microchip\Libero_SoC_v2024.2\Designer\bin\projects\SMF2000-M3_ProjectRad\SC2021_Workspace_PRad\eNVM\Debug/../drivers/mss_nvm/mss_nvm.c:1222
            }
        }    
    }
    
    /* 090/150 device */
    else if((0xF807u == device_version) || (0xF806u == device_version))
20002100:	6a3b      	ldr	r3, [r7, #32]
20002102:	f64f 0207 	movw	r2, #63495	; 0xf807
20002106:	4293      	cmp	r3, r2
20002108:	d005      	beq.n	20002116 <check_protection_reserved_nvm+0x346>
C:\Microchip\Libero_SoC_v2024.2\Designer\bin\projects\SMF2000-M3_ProjectRad\SC2021_Workspace_PRad\eNVM\Debug/../drivers/mss_nvm/mss_nvm.c:1222 (discriminator 1)
2000210a:	6a3b      	ldr	r3, [r7, #32]
2000210c:	f64f 0206 	movw	r2, #63494	; 0xf806
20002110:	4293      	cmp	r3, r2
20002112:	f040 80ba 	bne.w	2000228a <check_protection_reserved_nvm+0x4ba>
C:\Microchip\Libero_SoC_v2024.2\Designer\bin\projects\SMF2000-M3_ProjectRad\SC2021_Workspace_PRad\eNVM\Debug/../drivers/mss_nvm/mss_nvm.c:1225
    {
        /* Read eNVM user protect register for lower and upper area protection data */
        protection_data = (SYSREG->ENVM_PROTECT_USER & PROTECT_USER_MASK);
20002116:	4b60      	ldr	r3, [pc, #384]	; (20002298 <check_protection_reserved_nvm+0x4c8>)
20002118:	f8d3 2144 	ldr.w	r2, [r3, #324]	; 0x144
2000211c:	f649 1399 	movw	r3, #39321	; 0x9999
20002120:	4013      	ands	r3, r2
20002122:	61fb      	str	r3, [r7, #28]
C:\Microchip\Libero_SoC_v2024.2\Designer\bin\projects\SMF2000-M3_ProjectRad\SC2021_Workspace_PRad\eNVM\Debug/../drivers/mss_nvm/mss_nvm.c:1228
        
        /* Check whether the eNVM0 and eNVM1 lower or upper area is protected or not */
        if(PROTECT_USER_MASK != protection_data)
20002124:	69fb      	ldr	r3, [r7, #28]
20002126:	f649 1299 	movw	r2, #39321	; 0x9999
2000212a:	4293      	cmp	r3, r2
2000212c:	f000 8083 	beq.w	20002236 <check_protection_reserved_nvm+0x466>
C:\Microchip\Libero_SoC_v2024.2\Designer\bin\projects\SMF2000-M3_ProjectRad\SC2021_Workspace_PRad\eNVM\Debug/../drivers/mss_nvm/mss_nvm.c:1230
        {
            protection_user0 = (protection_data & 0x000Fu);
20002130:	69fb      	ldr	r3, [r7, #28]
20002132:	f003 030f 	and.w	r3, r3, #15
20002136:	61bb      	str	r3, [r7, #24]
C:\Microchip\Libero_SoC_v2024.2\Designer\bin\projects\SMF2000-M3_ProjectRad\SC2021_Workspace_PRad\eNVM\Debug/../drivers/mss_nvm/mss_nvm.c:1231
            protection_user1 = ((protection_data & 0x00F0u) >> 4u);
20002138:	69fb      	ldr	r3, [r7, #28]
2000213a:	091b      	lsrs	r3, r3, #4
2000213c:	f003 030f 	and.w	r3, r3, #15
20002140:	617b      	str	r3, [r7, #20]
C:\Microchip\Libero_SoC_v2024.2\Designer\bin\projects\SMF2000-M3_ProjectRad\SC2021_Workspace_PRad\eNVM\Debug/../drivers/mss_nvm/mss_nvm.c:1232
            protection_user2 = ((protection_data & 0x0F00u) >> 8u);
20002142:	69fb      	ldr	r3, [r7, #28]
20002144:	0a1b      	lsrs	r3, r3, #8
20002146:	f003 030f 	and.w	r3, r3, #15
2000214a:	613b      	str	r3, [r7, #16]
C:\Microchip\Libero_SoC_v2024.2\Designer\bin\projects\SMF2000-M3_ProjectRad\SC2021_Workspace_PRad\eNVM\Debug/../drivers/mss_nvm/mss_nvm.c:1233
            protection_user3 = ((protection_data & 0xF000u) >> 12u);
2000214c:	69fb      	ldr	r3, [r7, #28]
2000214e:	0b1b      	lsrs	r3, r3, #12
20002150:	f003 030f 	and.w	r3, r3, #15
20002154:	60fb      	str	r3, [r7, #12]
C:\Microchip\Libero_SoC_v2024.2\Designer\bin\projects\SMF2000-M3_ProjectRad\SC2021_Workspace_PRad\eNVM\Debug/../drivers/mss_nvm/mss_nvm.c:1240
            /* 
             * SAR 79545. 
             * Check write or No read/write protection is enabled then don't lock pages
             * of that eNVM block
             */
            if((WRITE_ONLY == protection_user0) || (NO_READ_WRITE == protection_user0))
20002156:	69bb      	ldr	r3, [r7, #24]
20002158:	2b08      	cmp	r3, #8
2000215a:	d002      	beq.n	20002162 <check_protection_reserved_nvm+0x392>
C:\Microchip\Libero_SoC_v2024.2\Designer\bin\projects\SMF2000-M3_ProjectRad\SC2021_Workspace_PRad\eNVM\Debug/../drivers/mss_nvm/mss_nvm.c:1240 (discriminator 1)
2000215c:	69bb      	ldr	r3, [r7, #24]
2000215e:	2b00      	cmp	r3, #0
20002160:	d106      	bne.n	20002170 <check_protection_reserved_nvm+0x3a0>
C:\Microchip\Libero_SoC_v2024.2\Designer\bin\projects\SMF2000-M3_ProjectRad\SC2021_Workspace_PRad\eNVM\Debug/../drivers/mss_nvm/mss_nvm.c:1242
            {
              if(offset < NVM1_BOTTOM_OFFSET)
20002162:	687b      	ldr	r3, [r7, #4]
20002164:	f5b3 2f80 	cmp.w	r3, #262144	; 0x40000
20002168:	d202      	bcs.n	20002170 <check_protection_reserved_nvm+0x3a0>
C:\Microchip\Libero_SoC_v2024.2\Designer\bin\projects\SMF2000-M3_ProjectRad\SC2021_Workspace_PRad\eNVM\Debug/../drivers/mss_nvm/mss_nvm.c:1244
              {
                 g_do_not_lock_page = ON;
2000216a:	4b4c      	ldr	r3, [pc, #304]	; (2000229c <check_protection_reserved_nvm+0x4cc>)
2000216c:	2201      	movs	r2, #1
2000216e:	701a      	strb	r2, [r3, #0]
C:\Microchip\Libero_SoC_v2024.2\Designer\bin\projects\SMF2000-M3_ProjectRad\SC2021_Workspace_PRad\eNVM\Debug/../drivers/mss_nvm/mss_nvm.c:1252

            /* 
             * SAR 70908.
             * Check NVM0 lower0 protected area is Read or Write or 'No R/W' access
             */
            if(WRITE_ENABLED != protection_user0) 
20002170:	69bb      	ldr	r3, [r7, #24]
20002172:	2b09      	cmp	r3, #9
20002174:	d008      	beq.n	20002188 <check_protection_reserved_nvm+0x3b8>
C:\Microchip\Libero_SoC_v2024.2\Designer\bin\projects\SMF2000-M3_ProjectRad\SC2021_Workspace_PRad\eNVM\Debug/../drivers/mss_nvm/mss_nvm.c:1257
            {
                /* Check the offset is in the range of lower0 protect memory area,
                 * if it is then the memory is protected.
                 */
                if(offset <= LOWER0_PROTECT_TOP_OFFSET)
20002176:	687b      	ldr	r3, [r7, #4]
20002178:	f5b3 5f80 	cmp.w	r3, #4096	; 0x1000
2000217c:	d204      	bcs.n	20002188 <check_protection_reserved_nvm+0x3b8>
C:\Microchip\Libero_SoC_v2024.2\Designer\bin\projects\SMF2000-M3_ProjectRad\SC2021_Workspace_PRad\eNVM\Debug/../drivers/mss_nvm/mss_nvm.c:1259
                {
                    protection_flag = protection_check(protection_user0, length);
2000217e:	6839      	ldr	r1, [r7, #0]
20002180:	69b8      	ldr	r0, [r7, #24]
20002182:	f000 f88d 	bl	200022a0 <protection_check>
20002186:	62f8      	str	r0, [r7, #44]	; 0x2c
C:\Microchip\Libero_SoC_v2024.2\Designer\bin\projects\SMF2000-M3_ProjectRad\SC2021_Workspace_PRad\eNVM\Debug/../drivers/mss_nvm/mss_nvm.c:1266
            }
            /* 
             * SAR 70908.
             * Check NVM1 upper1 protected area is Read or Write or 'No R/W' access
             */            
            if((WRITE_ENABLED != protection_user3) && (OFF == protection_flag))
20002188:	68fb      	ldr	r3, [r7, #12]
2000218a:	2b09      	cmp	r3, #9
2000218c:	d019      	beq.n	200021c2 <check_protection_reserved_nvm+0x3f2>
C:\Microchip\Libero_SoC_v2024.2\Designer\bin\projects\SMF2000-M3_ProjectRad\SC2021_Workspace_PRad\eNVM\Debug/../drivers/mss_nvm/mss_nvm.c:1266 (discriminator 1)
2000218e:	6afb      	ldr	r3, [r7, #44]	; 0x2c
20002190:	2b00      	cmp	r3, #0
20002192:	d116      	bne.n	200021c2 <check_protection_reserved_nvm+0x3f2>
C:\Microchip\Libero_SoC_v2024.2\Designer\bin\projects\SMF2000-M3_ProjectRad\SC2021_Workspace_PRad\eNVM\Debug/../drivers/mss_nvm/mss_nvm.c:1271
            {
                /* Check the offset or (offset + length)is in the range of upper1 
                 * protect memory area, if it is then the memory is protected.
                 */
                if(((offset >= UPPER1_PROTECT_BOTTOM_OFFSET) &&
20002194:	687b      	ldr	r3, [r7, #4]
20002196:	f5b3 2ff6 	cmp.w	r3, #503808	; 0x7b000
2000219a:	d303      	bcc.n	200021a4 <check_protection_reserved_nvm+0x3d4>
C:\Microchip\Libero_SoC_v2024.2\Designer\bin\projects\SMF2000-M3_ProjectRad\SC2021_Workspace_PRad\eNVM\Debug/../drivers/mss_nvm/mss_nvm.c:1271 (discriminator 1)
2000219c:	687b      	ldr	r3, [r7, #4]
2000219e:	f5b3 2ff8 	cmp.w	r3, #507904	; 0x7c000
200021a2:	d309      	bcc.n	200021b8 <check_protection_reserved_nvm+0x3e8>
C:\Microchip\Libero_SoC_v2024.2\Designer\bin\projects\SMF2000-M3_ProjectRad\SC2021_Workspace_PRad\eNVM\Debug/../drivers/mss_nvm/mss_nvm.c:1273
                    (offset <= UPPER1_PROTECT_TOP_OFFSET)) ||
                    (((offset + length_minus_one) >= UPPER1_PROTECT_BOTTOM_OFFSET) &&
200021a4:	687a      	ldr	r2, [r7, #4]
200021a6:	6abb      	ldr	r3, [r7, #40]	; 0x28
200021a8:	4413      	add	r3, r2
C:\Microchip\Libero_SoC_v2024.2\Designer\bin\projects\SMF2000-M3_ProjectRad\SC2021_Workspace_PRad\eNVM\Debug/../drivers/mss_nvm/mss_nvm.c:1272
                    (offset <= UPPER1_PROTECT_TOP_OFFSET)) ||
200021aa:	f5b3 2ff6 	cmp.w	r3, #503808	; 0x7b000
200021ae:	d308      	bcc.n	200021c2 <check_protection_reserved_nvm+0x3f2>
C:\Microchip\Libero_SoC_v2024.2\Designer\bin\projects\SMF2000-M3_ProjectRad\SC2021_Workspace_PRad\eNVM\Debug/../drivers/mss_nvm/mss_nvm.c:1273
                    (((offset + length_minus_one) >= UPPER1_PROTECT_BOTTOM_OFFSET) &&
200021b0:	687b      	ldr	r3, [r7, #4]
200021b2:	f5b3 2ff6 	cmp.w	r3, #503808	; 0x7b000
200021b6:	d204      	bcs.n	200021c2 <check_protection_reserved_nvm+0x3f2>
C:\Microchip\Libero_SoC_v2024.2\Designer\bin\projects\SMF2000-M3_ProjectRad\SC2021_Workspace_PRad\eNVM\Debug/../drivers/mss_nvm/mss_nvm.c:1276
                    (offset < UPPER1_PROTECT_BOTTOM_OFFSET)))
                {
                    protection_flag = protection_check(protection_user3, length);
200021b8:	6839      	ldr	r1, [r7, #0]
200021ba:	68f8      	ldr	r0, [r7, #12]
200021bc:	f000 f870 	bl	200022a0 <protection_check>
200021c0:	62f8      	str	r0, [r7, #44]	; 0x2c
C:\Microchip\Libero_SoC_v2024.2\Designer\bin\projects\SMF2000-M3_ProjectRad\SC2021_Workspace_PRad\eNVM\Debug/../drivers/mss_nvm/mss_nvm.c:1283
            }
            /* 
             * SAR 70908.
             * Check NVM1 lower1 protected area is Read or Write or 'No R/W' access
             */
            if((WRITE_ENABLED != protection_user2) && (OFF == protection_flag))
200021c2:	693b      	ldr	r3, [r7, #16]
200021c4:	2b09      	cmp	r3, #9
200021c6:	d019      	beq.n	200021fc <check_protection_reserved_nvm+0x42c>
C:\Microchip\Libero_SoC_v2024.2\Designer\bin\projects\SMF2000-M3_ProjectRad\SC2021_Workspace_PRad\eNVM\Debug/../drivers/mss_nvm/mss_nvm.c:1283 (discriminator 1)
200021c8:	6afb      	ldr	r3, [r7, #44]	; 0x2c
200021ca:	2b00      	cmp	r3, #0
200021cc:	d116      	bne.n	200021fc <check_protection_reserved_nvm+0x42c>
C:\Microchip\Libero_SoC_v2024.2\Designer\bin\projects\SMF2000-M3_ProjectRad\SC2021_Workspace_PRad\eNVM\Debug/../drivers/mss_nvm/mss_nvm.c:1288
            {
                /* Check the offset or (offset + length)is in the range of lower1 
                 * protect memory area, if it is then the memory is protected.
                 */
                if(((offset >= LOWER1_PROTECT_BOTTOM_OFFSET) &&
200021ce:	687b      	ldr	r3, [r7, #4]
200021d0:	f5b3 2ff8 	cmp.w	r3, #507904	; 0x7c000
200021d4:	d303      	bcc.n	200021de <check_protection_reserved_nvm+0x40e>
C:\Microchip\Libero_SoC_v2024.2\Designer\bin\projects\SMF2000-M3_ProjectRad\SC2021_Workspace_PRad\eNVM\Debug/../drivers/mss_nvm/mss_nvm.c:1288 (discriminator 1)
200021d6:	687b      	ldr	r3, [r7, #4]
200021d8:	f5b3 2ffa 	cmp.w	r3, #512000	; 0x7d000
200021dc:	d309      	bcc.n	200021f2 <check_protection_reserved_nvm+0x422>
C:\Microchip\Libero_SoC_v2024.2\Designer\bin\projects\SMF2000-M3_ProjectRad\SC2021_Workspace_PRad\eNVM\Debug/../drivers/mss_nvm/mss_nvm.c:1290
                    (offset <= LOWER1_PROTECT_TOP_OFFSET)) ||
                    (((offset + length_minus_one) >= LOWER1_PROTECT_BOTTOM_OFFSET) &&
200021de:	687a      	ldr	r2, [r7, #4]
200021e0:	6abb      	ldr	r3, [r7, #40]	; 0x28
200021e2:	4413      	add	r3, r2
C:\Microchip\Libero_SoC_v2024.2\Designer\bin\projects\SMF2000-M3_ProjectRad\SC2021_Workspace_PRad\eNVM\Debug/../drivers/mss_nvm/mss_nvm.c:1289
                    (offset <= LOWER1_PROTECT_TOP_OFFSET)) ||
200021e4:	f5b3 2ff8 	cmp.w	r3, #507904	; 0x7c000
200021e8:	d308      	bcc.n	200021fc <check_protection_reserved_nvm+0x42c>
C:\Microchip\Libero_SoC_v2024.2\Designer\bin\projects\SMF2000-M3_ProjectRad\SC2021_Workspace_PRad\eNVM\Debug/../drivers/mss_nvm/mss_nvm.c:1290
                    (((offset + length_minus_one) >= LOWER1_PROTECT_BOTTOM_OFFSET) &&
200021ea:	687b      	ldr	r3, [r7, #4]
200021ec:	f5b3 2ff8 	cmp.w	r3, #507904	; 0x7c000
200021f0:	d204      	bcs.n	200021fc <check_protection_reserved_nvm+0x42c>
C:\Microchip\Libero_SoC_v2024.2\Designer\bin\projects\SMF2000-M3_ProjectRad\SC2021_Workspace_PRad\eNVM\Debug/../drivers/mss_nvm/mss_nvm.c:1293
                    (offset < LOWER1_PROTECT_BOTTOM_OFFSET)))
                {
                    protection_flag = protection_check(protection_user2, length);
200021f2:	6839      	ldr	r1, [r7, #0]
200021f4:	6938      	ldr	r0, [r7, #16]
200021f6:	f000 f853 	bl	200022a0 <protection_check>
200021fa:	62f8      	str	r0, [r7, #44]	; 0x2c
C:\Microchip\Libero_SoC_v2024.2\Designer\bin\projects\SMF2000-M3_ProjectRad\SC2021_Workspace_PRad\eNVM\Debug/../drivers/mss_nvm/mss_nvm.c:1300
            }
            /* 
             * SAR 70908.
             * Check eNVM0 upper0 protected area(in eNVM1) is Read or Write or 'No R/W' access
             */
            if((WRITE_ENABLED != protection_user1) && (OFF == protection_flag))
200021fc:	697b      	ldr	r3, [r7, #20]
200021fe:	2b09      	cmp	r3, #9
20002200:	d019      	beq.n	20002236 <check_protection_reserved_nvm+0x466>
C:\Microchip\Libero_SoC_v2024.2\Designer\bin\projects\SMF2000-M3_ProjectRad\SC2021_Workspace_PRad\eNVM\Debug/../drivers/mss_nvm/mss_nvm.c:1300 (discriminator 1)
20002202:	6afb      	ldr	r3, [r7, #44]	; 0x2c
20002204:	2b00      	cmp	r3, #0
20002206:	d116      	bne.n	20002236 <check_protection_reserved_nvm+0x466>
C:\Microchip\Libero_SoC_v2024.2\Designer\bin\projects\SMF2000-M3_ProjectRad\SC2021_Workspace_PRad\eNVM\Debug/../drivers/mss_nvm/mss_nvm.c:1305
            {
                /* Check the offset or (offset + length) is in the range of upper0
                 *  protect memory area, if it is then the memory is protected.
                 */
                if(((offset >= NVM0_UPPER0_PROTECT_BOTTOM_OFFSET) &&
20002208:	687b      	ldr	r3, [r7, #4]
2000220a:	f5b3 2ffa 	cmp.w	r3, #512000	; 0x7d000
2000220e:	d303      	bcc.n	20002218 <check_protection_reserved_nvm+0x448>
C:\Microchip\Libero_SoC_v2024.2\Designer\bin\projects\SMF2000-M3_ProjectRad\SC2021_Workspace_PRad\eNVM\Debug/../drivers/mss_nvm/mss_nvm.c:1305 (discriminator 1)
20002210:	687b      	ldr	r3, [r7, #4]
20002212:	f5b3 2ffc 	cmp.w	r3, #516096	; 0x7e000
20002216:	d309      	bcc.n	2000222c <check_protection_reserved_nvm+0x45c>
C:\Microchip\Libero_SoC_v2024.2\Designer\bin\projects\SMF2000-M3_ProjectRad\SC2021_Workspace_PRad\eNVM\Debug/../drivers/mss_nvm/mss_nvm.c:1307
                    (offset <= NVM0_UPPER0_PROTECT_TOP_OFFSET)) ||
                    (((offset + length_minus_one) >= NVM0_UPPER0_PROTECT_BOTTOM_OFFSET) &&
20002218:	687a      	ldr	r2, [r7, #4]
2000221a:	6abb      	ldr	r3, [r7, #40]	; 0x28
2000221c:	4413      	add	r3, r2
C:\Microchip\Libero_SoC_v2024.2\Designer\bin\projects\SMF2000-M3_ProjectRad\SC2021_Workspace_PRad\eNVM\Debug/../drivers/mss_nvm/mss_nvm.c:1306
                    (offset <= NVM0_UPPER0_PROTECT_TOP_OFFSET)) ||
2000221e:	f5b3 2ffa 	cmp.w	r3, #512000	; 0x7d000
20002222:	d308      	bcc.n	20002236 <check_protection_reserved_nvm+0x466>
C:\Microchip\Libero_SoC_v2024.2\Designer\bin\projects\SMF2000-M3_ProjectRad\SC2021_Workspace_PRad\eNVM\Debug/../drivers/mss_nvm/mss_nvm.c:1307
                    (((offset + length_minus_one) >= NVM0_UPPER0_PROTECT_BOTTOM_OFFSET) &&
20002224:	687b      	ldr	r3, [r7, #4]
20002226:	f5b3 2ffa 	cmp.w	r3, #512000	; 0x7d000
2000222a:	d204      	bcs.n	20002236 <check_protection_reserved_nvm+0x466>
C:\Microchip\Libero_SoC_v2024.2\Designer\bin\projects\SMF2000-M3_ProjectRad\SC2021_Workspace_PRad\eNVM\Debug/../drivers/mss_nvm/mss_nvm.c:1310
                    (offset < NVM0_UPPER0_PROTECT_BOTTOM_OFFSET)))
                {
                    protection_flag = protection_check(protection_user1, length);
2000222c:	6839      	ldr	r1, [r7, #0]
2000222e:	6978      	ldr	r0, [r7, #20]
20002230:	f000 f836 	bl	200022a0 <protection_check>
20002234:	62f8      	str	r0, [r7, #44]	; 0x2c
C:\Microchip\Libero_SoC_v2024.2\Designer\bin\projects\SMF2000-M3_ProjectRad\SC2021_Workspace_PRad\eNVM\Debug/../drivers/mss_nvm/mss_nvm.c:1316
                }
            }
        }

        /* Check eNVM lower0/1 and upper0/1 memory is protected or not */
        if(PROTECTION_ON == protection_flag)
20002236:	6afb      	ldr	r3, [r7, #44]	; 0x2c
20002238:	2b01      	cmp	r3, #1
2000223a:	d103      	bne.n	20002244 <check_protection_reserved_nvm+0x474>
C:\Microchip\Libero_SoC_v2024.2\Designer\bin\projects\SMF2000-M3_ProjectRad\SC2021_Workspace_PRad\eNVM\Debug/../drivers/mss_nvm/mss_nvm.c:1321
        {
           /* Status is protection error if lower or upper area of eNVM0 or 
            * eNVM1 is protected 
            */
            status = NVM_PROTECTION_ERROR;
2000223c:	2301      	movs	r3, #1
2000223e:	f887 3027 	strb.w	r3, [r7, #39]	; 0x27
20002242:	e022      	b.n	2000228a <check_protection_reserved_nvm+0x4ba>
C:\Microchip\Libero_SoC_v2024.2\Designer\bin\projects\SMF2000-M3_ProjectRad\SC2021_Workspace_PRad\eNVM\Debug/../drivers/mss_nvm/mss_nvm.c:1326
        }
        else
        {
            /* Check (offset + length) is out of eNVM memory */
            if((offset + length_minus_one) > NVM1_TOP_OFFSET)
20002244:	687a      	ldr	r2, [r7, #4]
20002246:	6abb      	ldr	r3, [r7, #40]	; 0x28
20002248:	4413      	add	r3, r2
2000224a:	f5b3 2f00 	cmp.w	r3, #524288	; 0x80000
2000224e:	d303      	bcc.n	20002258 <check_protection_reserved_nvm+0x488>
C:\Microchip\Libero_SoC_v2024.2\Designer\bin\projects\SMF2000-M3_ProjectRad\SC2021_Workspace_PRad\eNVM\Debug/../drivers/mss_nvm/mss_nvm.c:1328
            {
                status = NVM_INVALID_PARAMETER;
20002250:	2307      	movs	r3, #7
20002252:	f887 3027 	strb.w	r3, [r7, #39]	; 0x27
20002256:	e018      	b.n	2000228a <check_protection_reserved_nvm+0x4ba>
C:\Microchip\Libero_SoC_v2024.2\Designer\bin\projects\SMF2000-M3_ProjectRad\SC2021_Workspace_PRad\eNVM\Debug/../drivers/mss_nvm/mss_nvm.c:1333
            }
            else
            {
                /* Check the offset is in eNVM reserved memory area - 64 pages reserved */
                if(((offset >= NVM1_RSV_OFFSET) && (offset <= NVM1_TOP_OFFSET)) ||
20002258:	687b      	ldr	r3, [r7, #4]
2000225a:	f5b3 2ffc 	cmp.w	r3, #516096	; 0x7e000
2000225e:	d303      	bcc.n	20002268 <check_protection_reserved_nvm+0x498>
C:\Microchip\Libero_SoC_v2024.2\Designer\bin\projects\SMF2000-M3_ProjectRad\SC2021_Workspace_PRad\eNVM\Debug/../drivers/mss_nvm/mss_nvm.c:1333 (discriminator 1)
20002260:	687b      	ldr	r3, [r7, #4]
20002262:	f5b3 2f00 	cmp.w	r3, #524288	; 0x80000
20002266:	d309      	bcc.n	2000227c <check_protection_reserved_nvm+0x4ac>
C:\Microchip\Libero_SoC_v2024.2\Designer\bin\projects\SMF2000-M3_ProjectRad\SC2021_Workspace_PRad\eNVM\Debug/../drivers/mss_nvm/mss_nvm.c:1334 (discriminator 3)
                    (((offset + length_minus_one) >= NVM1_RSV_OFFSET) &&
20002268:	687a      	ldr	r2, [r7, #4]
2000226a:	6abb      	ldr	r3, [r7, #40]	; 0x28
2000226c:	4413      	add	r3, r2
C:\Microchip\Libero_SoC_v2024.2\Designer\bin\projects\SMF2000-M3_ProjectRad\SC2021_Workspace_PRad\eNVM\Debug/../drivers/mss_nvm/mss_nvm.c:1333 (discriminator 3)
                if(((offset >= NVM1_RSV_OFFSET) && (offset <= NVM1_TOP_OFFSET)) ||
2000226e:	f5b3 2ffc 	cmp.w	r3, #516096	; 0x7e000
20002272:	d307      	bcc.n	20002284 <check_protection_reserved_nvm+0x4b4>
C:\Microchip\Libero_SoC_v2024.2\Designer\bin\projects\SMF2000-M3_ProjectRad\SC2021_Workspace_PRad\eNVM\Debug/../drivers/mss_nvm/mss_nvm.c:1334
                    (((offset + length_minus_one) >= NVM1_RSV_OFFSET) &&
20002274:	687b      	ldr	r3, [r7, #4]
20002276:	f5b3 2ffc 	cmp.w	r3, #516096	; 0x7e000
2000227a:	d203      	bcs.n	20002284 <check_protection_reserved_nvm+0x4b4>
C:\Microchip\Libero_SoC_v2024.2\Designer\bin\projects\SMF2000-M3_ProjectRad\SC2021_Workspace_PRad\eNVM\Debug/../drivers/mss_nvm/mss_nvm.c:1342
                    /* 
                     * SAR 70908.
                     * Status is protection error if the offset or (offset + length) is 
                     * in reserved area of eNVM
                     */
                    status = NVM_PROTECTION_ERROR;
2000227c:	2301      	movs	r3, #1
2000227e:	f887 3027 	strb.w	r3, [r7, #39]	; 0x27
20002282:	e002      	b.n	2000228a <check_protection_reserved_nvm+0x4ba>
C:\Microchip\Libero_SoC_v2024.2\Designer\bin\projects\SMF2000-M3_ProjectRad\SC2021_Workspace_PRad\eNVM\Debug/../drivers/mss_nvm/mss_nvm.c:1349
                else
                {
                    /* Status is success if offset or (offset + length) is 
                     * in RW access of eNVM memory
                     */
                    status = NVM_SUCCESS;
20002284:	2300      	movs	r3, #0
20002286:	f887 3027 	strb.w	r3, [r7, #39]	; 0x27
C:\Microchip\Libero_SoC_v2024.2\Designer\bin\projects\SMF2000-M3_ProjectRad\SC2021_Workspace_PRad\eNVM\Debug/../drivers/mss_nvm/mss_nvm.c:1354
                }
            }
        }
    }
    return status;
2000228a:	f897 3027 	ldrb.w	r3, [r7, #39]	; 0x27
C:\Microchip\Libero_SoC_v2024.2\Designer\bin\projects\SMF2000-M3_ProjectRad\SC2021_Workspace_PRad\eNVM\Debug/../drivers/mss_nvm/mss_nvm.c:1355
}
2000228e:	4618      	mov	r0, r3
20002290:	3730      	adds	r7, #48	; 0x30
20002292:	46bd      	mov	sp, r7
20002294:	bd80      	pop	{r7, pc}
20002296:	bf00      	nop
20002298:	40038000 	.word	0x40038000
2000229c:	20009388 	.word	0x20009388

200022a0 <protection_check>:
protection_check():
C:\Microchip\Libero_SoC_v2024.2\Designer\bin\projects\SMF2000-M3_ProjectRad\SC2021_Workspace_PRad\eNVM\Debug/../drivers/mss_nvm/mss_nvm.c:1369
 *
 * if the eNVM0 or eNVM1 lower/upper protected area with W-Only or No_RW
 * access then return with protection on
 */
static uint32_t protection_check(uint32_t protect_user, uint32_t length)
{    
200022a0:	b480      	push	{r7}
200022a2:	b085      	sub	sp, #20
200022a4:	af00      	add	r7, sp, #0
200022a6:	6078      	str	r0, [r7, #4]
200022a8:	6039      	str	r1, [r7, #0]
C:\Microchip\Libero_SoC_v2024.2\Designer\bin\projects\SMF2000-M3_ProjectRad\SC2021_Workspace_PRad\eNVM\Debug/../drivers/mss_nvm/mss_nvm.c:1373
    uint32_t protect_flag;
    
    /* Check Read Only access for page write count */
    if((READ_ONLY == protect_user) && (0x0u == length))
200022aa:	687b      	ldr	r3, [r7, #4]
200022ac:	2b01      	cmp	r3, #1
200022ae:	d105      	bne.n	200022bc <protection_check+0x1c>
C:\Microchip\Libero_SoC_v2024.2\Designer\bin\projects\SMF2000-M3_ProjectRad\SC2021_Workspace_PRad\eNVM\Debug/../drivers/mss_nvm/mss_nvm.c:1373 (discriminator 1)
200022b0:	683b      	ldr	r3, [r7, #0]
200022b2:	2b00      	cmp	r3, #0
200022b4:	d102      	bne.n	200022bc <protection_check+0x1c>
C:\Microchip\Libero_SoC_v2024.2\Designer\bin\projects\SMF2000-M3_ProjectRad\SC2021_Workspace_PRad\eNVM\Debug/../drivers/mss_nvm/mss_nvm.c:1375
    {
        protect_flag = PROTECTION_OFF;
200022b6:	2300      	movs	r3, #0
200022b8:	60fb      	str	r3, [r7, #12]
200022ba:	e001      	b.n	200022c0 <protection_check+0x20>
C:\Microchip\Libero_SoC_v2024.2\Designer\bin\projects\SMF2000-M3_ProjectRad\SC2021_Workspace_PRad\eNVM\Debug/../drivers/mss_nvm/mss_nvm.c:1379
    }
    else
    {
        protect_flag = PROTECTION_ON;
200022bc:	2301      	movs	r3, #1
200022be:	60fb      	str	r3, [r7, #12]
C:\Microchip\Libero_SoC_v2024.2\Designer\bin\projects\SMF2000-M3_ProjectRad\SC2021_Workspace_PRad\eNVM\Debug/../drivers/mss_nvm/mss_nvm.c:1381
    }
    return protect_flag;
200022c0:	68fb      	ldr	r3, [r7, #12]
C:\Microchip\Libero_SoC_v2024.2\Designer\bin\projects\SMF2000-M3_ProjectRad\SC2021_Workspace_PRad\eNVM\Debug/../drivers/mss_nvm/mss_nvm.c:1382
}
200022c2:	4618      	mov	r0, r3
200022c4:	3714      	adds	r7, #20
200022c6:	46bd      	mov	sp, r7
200022c8:	bc80      	pop	{r7}
200022ca:	4770      	bx	lr

200022cc <start_transfer>:
start_transfer():
C:\Microchip\Libero_SoC_v2024.2\Designer\bin\projects\SMF2000-M3_ProjectRad\SC2021_Workspace_PRad\eNVM\Debug/../drivers/mss_hpdma/mss_hpdma.c:197
    uint32_t src_addr,
    uint32_t dest_addr,
    uint32_t transfer_size,
    uint8_t transfer_dir
)
{
200022cc:	b480      	push	{r7}
200022ce:	b085      	sub	sp, #20
200022d0:	af00      	add	r7, sp, #0
200022d2:	60f8      	str	r0, [r7, #12]
200022d4:	60b9      	str	r1, [r7, #8]
200022d6:	607a      	str	r2, [r7, #4]
200022d8:	70fb      	strb	r3, [r7, #3]
C:\Microchip\Libero_SoC_v2024.2\Designer\bin\projects\SMF2000-M3_ProjectRad\SC2021_Workspace_PRad\eNVM\Debug/../drivers/mss_hpdma/mss_hpdma.c:199
    /* Set descriptor transfer direction */
    HPDMA_BITBAND->Descriptor[g_hpdma_end_desc].HPDMACR_DCP_XFR_DIR = transfer_dir;
200022da:	484d      	ldr	r0, [pc, #308]	; (20002410 <start_transfer+0x144>)
200022dc:	4b4d      	ldr	r3, [pc, #308]	; (20002414 <start_transfer+0x148>)
200022de:	681a      	ldr	r2, [r3, #0]
200022e0:	78f9      	ldrb	r1, [r7, #3]
200022e2:	4613      	mov	r3, r2
200022e4:	009b      	lsls	r3, r3, #2
200022e6:	4413      	add	r3, r2
200022e8:	01db      	lsls	r3, r3, #7
200022ea:	4403      	add	r3, r0
200022ec:	f503 73e2 	add.w	r3, r3, #452	; 0x1c4
200022f0:	6019      	str	r1, [r3, #0]
C:\Microchip\Libero_SoC_v2024.2\Designer\bin\projects\SMF2000-M3_ProjectRad\SC2021_Workspace_PRad\eNVM\Debug/../drivers/mss_hpdma/mss_hpdma.c:202
    
    /* Store Source and destination Address */
    HPDMA->Descriptor[g_hpdma_end_desc].HPDMASAR_REG = src_addr;
200022f2:	4949      	ldr	r1, [pc, #292]	; (20002418 <start_transfer+0x14c>)
200022f4:	4b47      	ldr	r3, [pc, #284]	; (20002414 <start_transfer+0x148>)
200022f6:	681a      	ldr	r2, [r3, #0]
200022f8:	4613      	mov	r3, r2
200022fa:	009b      	lsls	r3, r3, #2
200022fc:	4413      	add	r3, r2
200022fe:	009b      	lsls	r3, r3, #2
20002300:	440b      	add	r3, r1
20002302:	3304      	adds	r3, #4
20002304:	68fa      	ldr	r2, [r7, #12]
20002306:	601a      	str	r2, [r3, #0]
C:\Microchip\Libero_SoC_v2024.2\Designer\bin\projects\SMF2000-M3_ProjectRad\SC2021_Workspace_PRad\eNVM\Debug/../drivers/mss_hpdma/mss_hpdma.c:203
    HPDMA->Descriptor[g_hpdma_end_desc].HPDMADAR_REG = dest_addr;
20002308:	4943      	ldr	r1, [pc, #268]	; (20002418 <start_transfer+0x14c>)
2000230a:	4b42      	ldr	r3, [pc, #264]	; (20002414 <start_transfer+0x148>)
2000230c:	681a      	ldr	r2, [r3, #0]
2000230e:	4613      	mov	r3, r2
20002310:	009b      	lsls	r3, r3, #2
20002312:	4413      	add	r3, r2
20002314:	009b      	lsls	r3, r3, #2
20002316:	440b      	add	r3, r1
20002318:	3308      	adds	r3, #8
2000231a:	68ba      	ldr	r2, [r7, #8]
2000231c:	601a      	str	r2, [r3, #0]
C:\Microchip\Libero_SoC_v2024.2\Designer\bin\projects\SMF2000-M3_ProjectRad\SC2021_Workspace_PRad\eNVM\Debug/../drivers/mss_hpdma/mss_hpdma.c:206
    
    /* Set the transfer size to 64K */
    HPDMA->Descriptor[g_hpdma_end_desc].HPDMACR_REG &= HPDMA_XFR_SIZE_MASK;
2000231e:	493e      	ldr	r1, [pc, #248]	; (20002418 <start_transfer+0x14c>)
20002320:	4b3c      	ldr	r3, [pc, #240]	; (20002414 <start_transfer+0x148>)
20002322:	681a      	ldr	r2, [r3, #0]
20002324:	4613      	mov	r3, r2
20002326:	009b      	lsls	r3, r3, #2
20002328:	4413      	add	r3, r2
2000232a:	009b      	lsls	r3, r3, #2
2000232c:	440b      	add	r3, r1
2000232e:	330c      	adds	r3, #12
20002330:	681b      	ldr	r3, [r3, #0]
20002332:	4839      	ldr	r0, [pc, #228]	; (20002418 <start_transfer+0x14c>)
20002334:	4a37      	ldr	r2, [pc, #220]	; (20002414 <start_transfer+0x148>)
20002336:	6811      	ldr	r1, [r2, #0]
20002338:	0c1a      	lsrs	r2, r3, #16
2000233a:	0412      	lsls	r2, r2, #16
2000233c:	460b      	mov	r3, r1
2000233e:	009b      	lsls	r3, r3, #2
20002340:	440b      	add	r3, r1
20002342:	009b      	lsls	r3, r3, #2
20002344:	4403      	add	r3, r0
20002346:	330c      	adds	r3, #12
20002348:	601a      	str	r2, [r3, #0]
C:\Microchip\Libero_SoC_v2024.2\Designer\bin\projects\SMF2000-M3_ProjectRad\SC2021_Workspace_PRad\eNVM\Debug/../drivers/mss_hpdma/mss_hpdma.c:208
    
    if(transfer_size > MAX_SIZE_PER_DMA_XFR)
2000234a:	687b      	ldr	r3, [r7, #4]
2000234c:	f5b3 3f80 	cmp.w	r3, #65536	; 0x10000
20002350:	d90f      	bls.n	20002372 <start_transfer+0xa6>
C:\Microchip\Libero_SoC_v2024.2\Designer\bin\projects\SMF2000-M3_ProjectRad\SC2021_Workspace_PRad\eNVM\Debug/../drivers/mss_hpdma/mss_hpdma.c:210
    {
        g_transfer.xfr_size = transfer_size - MAX_SIZE_PER_DMA_XFR;
20002352:	687b      	ldr	r3, [r7, #4]
20002354:	f5a3 3380 	sub.w	r3, r3, #65536	; 0x10000
20002358:	4a30      	ldr	r2, [pc, #192]	; (2000241c <start_transfer+0x150>)
2000235a:	6113      	str	r3, [r2, #16]
C:\Microchip\Libero_SoC_v2024.2\Designer\bin\projects\SMF2000-M3_ProjectRad\SC2021_Workspace_PRad\eNVM\Debug/../drivers/mss_hpdma/mss_hpdma.c:211
        g_transfer.des_addr = dest_addr + MAX_SIZE_PER_DMA_XFR;
2000235c:	68bb      	ldr	r3, [r7, #8]
2000235e:	f503 3380 	add.w	r3, r3, #65536	; 0x10000
20002362:	4a2e      	ldr	r2, [pc, #184]	; (2000241c <start_transfer+0x150>)
20002364:	60d3      	str	r3, [r2, #12]
C:\Microchip\Libero_SoC_v2024.2\Designer\bin\projects\SMF2000-M3_ProjectRad\SC2021_Workspace_PRad\eNVM\Debug/../drivers/mss_hpdma/mss_hpdma.c:212
        g_transfer.src_addr = src_addr + MAX_SIZE_PER_DMA_XFR; 
20002366:	68fb      	ldr	r3, [r7, #12]
20002368:	f503 3380 	add.w	r3, r3, #65536	; 0x10000
2000236c:	4a2b      	ldr	r2, [pc, #172]	; (2000241c <start_transfer+0x150>)
2000236e:	6093      	str	r3, [r2, #8]
20002370:	e01a      	b.n	200023a8 <start_transfer+0xdc>
C:\Microchip\Libero_SoC_v2024.2\Designer\bin\projects\SMF2000-M3_ProjectRad\SC2021_Workspace_PRad\eNVM\Debug/../drivers/mss_hpdma/mss_hpdma.c:217
    }
    else
    {
        /* Set descriptor transfer size */
        HPDMA->Descriptor[g_hpdma_end_desc].HPDMACR_REG |= (uint16_t)transfer_size;
20002372:	4929      	ldr	r1, [pc, #164]	; (20002418 <start_transfer+0x14c>)
20002374:	4b27      	ldr	r3, [pc, #156]	; (20002414 <start_transfer+0x148>)
20002376:	681a      	ldr	r2, [r3, #0]
20002378:	4613      	mov	r3, r2
2000237a:	009b      	lsls	r3, r3, #2
2000237c:	4413      	add	r3, r2
2000237e:	009b      	lsls	r3, r3, #2
20002380:	440b      	add	r3, r1
20002382:	330c      	adds	r3, #12
20002384:	681b      	ldr	r3, [r3, #0]
20002386:	687a      	ldr	r2, [r7, #4]
20002388:	b292      	uxth	r2, r2
2000238a:	4611      	mov	r1, r2
2000238c:	4822      	ldr	r0, [pc, #136]	; (20002418 <start_transfer+0x14c>)
2000238e:	4a21      	ldr	r2, [pc, #132]	; (20002414 <start_transfer+0x148>)
20002390:	6812      	ldr	r2, [r2, #0]
20002392:	4319      	orrs	r1, r3
20002394:	4613      	mov	r3, r2
20002396:	009b      	lsls	r3, r3, #2
20002398:	4413      	add	r3, r2
2000239a:	009b      	lsls	r3, r3, #2
2000239c:	4403      	add	r3, r0
2000239e:	330c      	adds	r3, #12
200023a0:	6019      	str	r1, [r3, #0]
C:\Microchip\Libero_SoC_v2024.2\Designer\bin\projects\SMF2000-M3_ProjectRad\SC2021_Workspace_PRad\eNVM\Debug/../drivers/mss_hpdma/mss_hpdma.c:218
        g_transfer.xfr_size = 0u;     
200023a2:	4b1e      	ldr	r3, [pc, #120]	; (2000241c <start_transfer+0x150>)
200023a4:	2200      	movs	r2, #0
200023a6:	611a      	str	r2, [r3, #16]
C:\Microchip\Libero_SoC_v2024.2\Designer\bin\projects\SMF2000-M3_ProjectRad\SC2021_Workspace_PRad\eNVM\Debug/../drivers/mss_hpdma/mss_hpdma.c:221
    }    
    /* Enable interrupts for the requested descriptor. */
    HPDMA->Descriptor[g_hpdma_end_desc].HPDMACR_REG |= HPDMACR_ALL_IRQ_ENABLE_MASK;       
200023a8:	491b      	ldr	r1, [pc, #108]	; (20002418 <start_transfer+0x14c>)
200023aa:	4b1a      	ldr	r3, [pc, #104]	; (20002414 <start_transfer+0x148>)
200023ac:	681a      	ldr	r2, [r3, #0]
200023ae:	4613      	mov	r3, r2
200023b0:	009b      	lsls	r3, r3, #2
200023b2:	4413      	add	r3, r2
200023b4:	009b      	lsls	r3, r3, #2
200023b6:	440b      	add	r3, r1
200023b8:	330c      	adds	r3, #12
200023ba:	681b      	ldr	r3, [r3, #0]
200023bc:	4816      	ldr	r0, [pc, #88]	; (20002418 <start_transfer+0x14c>)
200023be:	4a15      	ldr	r2, [pc, #84]	; (20002414 <start_transfer+0x148>)
200023c0:	6812      	ldr	r2, [r2, #0]
200023c2:	f443 01e0 	orr.w	r1, r3, #7340032	; 0x700000
200023c6:	4613      	mov	r3, r2
200023c8:	009b      	lsls	r3, r3, #2
200023ca:	4413      	add	r3, r2
200023cc:	009b      	lsls	r3, r3, #2
200023ce:	4403      	add	r3, r0
200023d0:	330c      	adds	r3, #12
200023d2:	6019      	str	r1, [r3, #0]
C:\Microchip\Libero_SoC_v2024.2\Designer\bin\projects\SMF2000-M3_ProjectRad\SC2021_Workspace_PRad\eNVM\Debug/../drivers/mss_hpdma/mss_hpdma.c:223
    /* Set valid descriptor to start transfer */
    HPDMA_BITBAND->Descriptor[g_hpdma_end_desc].HPDMACR_DCP_VALID = HPDMA_ENABLE;  
200023d4:	490e      	ldr	r1, [pc, #56]	; (20002410 <start_transfer+0x144>)
200023d6:	4b0f      	ldr	r3, [pc, #60]	; (20002414 <start_transfer+0x148>)
200023d8:	681a      	ldr	r2, [r3, #0]
200023da:	4613      	mov	r3, r2
200023dc:	009b      	lsls	r3, r3, #2
200023de:	4413      	add	r3, r2
200023e0:	01db      	lsls	r3, r3, #7
200023e2:	440b      	add	r3, r1
200023e4:	f503 73e0 	add.w	r3, r3, #448	; 0x1c0
200023e8:	2201      	movs	r2, #1
200023ea:	601a      	str	r2, [r3, #0]
C:\Microchip\Libero_SoC_v2024.2\Designer\bin\projects\SMF2000-M3_ProjectRad\SC2021_Workspace_PRad\eNVM\Debug/../drivers/mss_hpdma/mss_hpdma.c:225
    /* Start transfer */
    HPDMA_BITBAND->Descriptor[g_hpdma_end_desc].HPDMACR_DCP_PAUSE = HPDMA_DISABLE;        
200023ec:	4908      	ldr	r1, [pc, #32]	; (20002410 <start_transfer+0x144>)
200023ee:	4b09      	ldr	r3, [pc, #36]	; (20002414 <start_transfer+0x148>)
200023f0:	681a      	ldr	r2, [r3, #0]
200023f2:	4613      	mov	r3, r2
200023f4:	009b      	lsls	r3, r3, #2
200023f6:	4413      	add	r3, r2
200023f8:	01db      	lsls	r3, r3, #7
200023fa:	440b      	add	r3, r1
200023fc:	f503 73e6 	add.w	r3, r3, #460	; 0x1cc
20002400:	2200      	movs	r2, #0
20002402:	601a      	str	r2, [r3, #0]
C:\Microchip\Libero_SoC_v2024.2\Designer\bin\projects\SMF2000-M3_ProjectRad\SC2021_Workspace_PRad\eNVM\Debug/../drivers/mss_hpdma/mss_hpdma.c:226
}
20002404:	bf00      	nop
20002406:	3714      	adds	r7, #20
20002408:	46bd      	mov	sp, r7
2000240a:	bc80      	pop	{r7}
2000240c:	4770      	bx	lr
2000240e:	bf00      	nop
20002410:	42280000 	.word	0x42280000
20002414:	200093a4 	.word	0x200093a4
20002418:	40014000 	.word	0x40014000
2000241c:	2000938c 	.word	0x2000938c

20002420 <HPDMA_Complete_IRQHandler>:
HPDMA_Complete_IRQHandler():
C:\Microchip\Libero_SoC_v2024.2\Designer\bin\projects\SMF2000-M3_ProjectRad\SC2021_Workspace_PRad\eNVM\Debug/../drivers/mss_hpdma/mss_hpdma.c:313
#if defined(__GNUC__)
__attribute__((__interrupt__)) void HPDMA_Complete_IRQHandler(void)
#else
void HPDMA_Complete_IRQHandler(void)
#endif 
{
20002420:	4668      	mov	r0, sp
20002422:	f020 0107 	bic.w	r1, r0, #7
20002426:	468d      	mov	sp, r1
20002428:	b589      	push	{r0, r3, r7, lr}
2000242a:	af00      	add	r7, sp, #0
C:\Microchip\Libero_SoC_v2024.2\Designer\bin\projects\SMF2000-M3_ProjectRad\SC2021_Workspace_PRad\eNVM\Debug/../drivers/mss_hpdma/mss_hpdma.c:315
    /* Clear interrupt */
    HPDMA_BITBAND->HPDMAICR_CLR_XFR_INT[g_hpdma_current_desc] = HPDMA_ENABLE;
2000242c:	4a35      	ldr	r2, [pc, #212]	; (20002504 <HPDMA_Complete_IRQHandler+0xe4>)
2000242e:	4b36      	ldr	r3, [pc, #216]	; (20002508 <HPDMA_Complete_IRQHandler+0xe8>)
20002430:	681b      	ldr	r3, [r3, #0]
20002432:	f503 7328 	add.w	r3, r3, #672	; 0x2a0
20002436:	2101      	movs	r1, #1
20002438:	f842 1023 	str.w	r1, [r2, r3, lsl #2]
C:\Microchip\Libero_SoC_v2024.2\Designer\bin\projects\SMF2000-M3_ProjectRad\SC2021_Workspace_PRad\eNVM\Debug/../drivers/mss_hpdma/mss_hpdma.c:317
    /* Disable interrupts */
    HPDMA->Descriptor[g_hpdma_current_desc].HPDMACR_REG &= ~HPDMACR_ALL_IRQ_ENABLE_MASK;
2000243c:	4933      	ldr	r1, [pc, #204]	; (2000250c <HPDMA_Complete_IRQHandler+0xec>)
2000243e:	4b32      	ldr	r3, [pc, #200]	; (20002508 <HPDMA_Complete_IRQHandler+0xe8>)
20002440:	681a      	ldr	r2, [r3, #0]
20002442:	4613      	mov	r3, r2
20002444:	009b      	lsls	r3, r3, #2
20002446:	4413      	add	r3, r2
20002448:	009b      	lsls	r3, r3, #2
2000244a:	440b      	add	r3, r1
2000244c:	330c      	adds	r3, #12
2000244e:	681b      	ldr	r3, [r3, #0]
20002450:	482e      	ldr	r0, [pc, #184]	; (2000250c <HPDMA_Complete_IRQHandler+0xec>)
20002452:	4a2d      	ldr	r2, [pc, #180]	; (20002508 <HPDMA_Complete_IRQHandler+0xe8>)
20002454:	6812      	ldr	r2, [r2, #0]
20002456:	f423 01e0 	bic.w	r1, r3, #7340032	; 0x700000
2000245a:	4613      	mov	r3, r2
2000245c:	009b      	lsls	r3, r3, #2
2000245e:	4413      	add	r3, r2
20002460:	009b      	lsls	r3, r3, #2
20002462:	4403      	add	r3, r0
20002464:	330c      	adds	r3, #12
20002466:	6019      	str	r1, [r3, #0]
C:\Microchip\Libero_SoC_v2024.2\Designer\bin\projects\SMF2000-M3_ProjectRad\SC2021_Workspace_PRad\eNVM\Debug/../drivers/mss_hpdma/mss_hpdma.c:319
    
    ++g_hpdma_current_desc;
20002468:	4b27      	ldr	r3, [pc, #156]	; (20002508 <HPDMA_Complete_IRQHandler+0xe8>)
2000246a:	681b      	ldr	r3, [r3, #0]
2000246c:	3301      	adds	r3, #1
2000246e:	4a26      	ldr	r2, [pc, #152]	; (20002508 <HPDMA_Complete_IRQHandler+0xe8>)
20002470:	6013      	str	r3, [r2, #0]
C:\Microchip\Libero_SoC_v2024.2\Designer\bin\projects\SMF2000-M3_ProjectRad\SC2021_Workspace_PRad\eNVM\Debug/../drivers/mss_hpdma/mss_hpdma.c:321
    
    if(NO_OF_HPDMA_DESCRIPTORS == g_hpdma_current_desc)
20002472:	4b25      	ldr	r3, [pc, #148]	; (20002508 <HPDMA_Complete_IRQHandler+0xe8>)
20002474:	681b      	ldr	r3, [r3, #0]
20002476:	2b04      	cmp	r3, #4
20002478:	d102      	bne.n	20002480 <HPDMA_Complete_IRQHandler+0x60>
C:\Microchip\Libero_SoC_v2024.2\Designer\bin\projects\SMF2000-M3_ProjectRad\SC2021_Workspace_PRad\eNVM\Debug/../drivers/mss_hpdma/mss_hpdma.c:323
    {
        g_hpdma_current_desc = 0u;
2000247a:	4b23      	ldr	r3, [pc, #140]	; (20002508 <HPDMA_Complete_IRQHandler+0xe8>)
2000247c:	2200      	movs	r2, #0
2000247e:	601a      	str	r2, [r3, #0]
C:\Microchip\Libero_SoC_v2024.2\Designer\bin\projects\SMF2000-M3_ProjectRad\SC2021_Workspace_PRad\eNVM\Debug/../drivers/mss_hpdma/mss_hpdma.c:326
    } 
    
    if(g_transfer.xfr_size > 0u)
20002480:	4b23      	ldr	r3, [pc, #140]	; (20002510 <HPDMA_Complete_IRQHandler+0xf0>)
20002482:	691b      	ldr	r3, [r3, #16]
20002484:	2b00      	cmp	r3, #0
20002486:	d017      	beq.n	200024b8 <HPDMA_Complete_IRQHandler+0x98>
C:\Microchip\Libero_SoC_v2024.2\Designer\bin\projects\SMF2000-M3_ProjectRad\SC2021_Workspace_PRad\eNVM\Debug/../drivers/mss_hpdma/mss_hpdma.c:328
    {
        if(NO_OF_HPDMA_DESCRIPTORS == g_hpdma_end_desc)
20002488:	4b22      	ldr	r3, [pc, #136]	; (20002514 <HPDMA_Complete_IRQHandler+0xf4>)
2000248a:	681b      	ldr	r3, [r3, #0]
2000248c:	2b04      	cmp	r3, #4
2000248e:	d103      	bne.n	20002498 <HPDMA_Complete_IRQHandler+0x78>
C:\Microchip\Libero_SoC_v2024.2\Designer\bin\projects\SMF2000-M3_ProjectRad\SC2021_Workspace_PRad\eNVM\Debug/../drivers/mss_hpdma/mss_hpdma.c:330
        {
            g_hpdma_end_desc = 0u;
20002490:	4b20      	ldr	r3, [pc, #128]	; (20002514 <HPDMA_Complete_IRQHandler+0xf4>)
20002492:	2200      	movs	r2, #0
20002494:	601a      	str	r2, [r3, #0]
20002496:	e004      	b.n	200024a2 <HPDMA_Complete_IRQHandler+0x82>
C:\Microchip\Libero_SoC_v2024.2\Designer\bin\projects\SMF2000-M3_ProjectRad\SC2021_Workspace_PRad\eNVM\Debug/../drivers/mss_hpdma/mss_hpdma.c:334
        }
        else
        {
            ++g_hpdma_end_desc;
20002498:	4b1e      	ldr	r3, [pc, #120]	; (20002514 <HPDMA_Complete_IRQHandler+0xf4>)
2000249a:	681b      	ldr	r3, [r3, #0]
2000249c:	3301      	adds	r3, #1
2000249e:	4a1d      	ldr	r2, [pc, #116]	; (20002514 <HPDMA_Complete_IRQHandler+0xf4>)
200024a0:	6013      	str	r3, [r2, #0]
C:\Microchip\Libero_SoC_v2024.2\Designer\bin\projects\SMF2000-M3_ProjectRad\SC2021_Workspace_PRad\eNVM\Debug/../drivers/mss_hpdma/mss_hpdma.c:336
        }
        start_transfer(g_transfer.src_addr,
200024a2:	4b1b      	ldr	r3, [pc, #108]	; (20002510 <HPDMA_Complete_IRQHandler+0xf0>)
200024a4:	6898      	ldr	r0, [r3, #8]
200024a6:	4b1a      	ldr	r3, [pc, #104]	; (20002510 <HPDMA_Complete_IRQHandler+0xf0>)
200024a8:	68d9      	ldr	r1, [r3, #12]
200024aa:	4b19      	ldr	r3, [pc, #100]	; (20002510 <HPDMA_Complete_IRQHandler+0xf0>)
200024ac:	691a      	ldr	r2, [r3, #16]
200024ae:	4b18      	ldr	r3, [pc, #96]	; (20002510 <HPDMA_Complete_IRQHandler+0xf0>)
200024b0:	7d1b      	ldrb	r3, [r3, #20]
200024b2:	f7ff ff0b 	bl	200022cc <start_transfer>
C:\Microchip\Libero_SoC_v2024.2\Designer\bin\projects\SMF2000-M3_ProjectRad\SC2021_Workspace_PRad\eNVM\Debug/../drivers/mss_hpdma/mss_hpdma.c:355
            {
                (*(g_transfer.completion_handler))(HPDMA_COMPLETED);
            }  
        }
    }
}
200024b6:	e01e      	b.n	200024f6 <HPDMA_Complete_IRQHandler+0xd6>
C:\Microchip\Libero_SoC_v2024.2\Designer\bin\projects\SMF2000-M3_ProjectRad\SC2021_Workspace_PRad\eNVM\Debug/../drivers/mss_hpdma/mss_hpdma.c:343
        if(((HPDMA->Descriptor[g_hpdma_current_desc].HPDMACR_REG) & HPDMACR_ALL_IRQ_ENABLE_MASK) == 0u)  
200024b8:	4914      	ldr	r1, [pc, #80]	; (2000250c <HPDMA_Complete_IRQHandler+0xec>)
200024ba:	4b13      	ldr	r3, [pc, #76]	; (20002508 <HPDMA_Complete_IRQHandler+0xe8>)
200024bc:	681a      	ldr	r2, [r3, #0]
200024be:	4613      	mov	r3, r2
200024c0:	009b      	lsls	r3, r3, #2
200024c2:	4413      	add	r3, r2
200024c4:	009b      	lsls	r3, r3, #2
200024c6:	440b      	add	r3, r1
200024c8:	330c      	adds	r3, #12
200024ca:	681b      	ldr	r3, [r3, #0]
200024cc:	f403 03e0 	and.w	r3, r3, #7340032	; 0x700000
200024d0:	2b00      	cmp	r3, #0
200024d2:	d110      	bne.n	200024f6 <HPDMA_Complete_IRQHandler+0xd6>
C:\Microchip\Libero_SoC_v2024.2\Designer\bin\projects\SMF2000-M3_ProjectRad\SC2021_Workspace_PRad\eNVM\Debug/../drivers/mss_hpdma/mss_hpdma.c:345
            g_hpdma_current_desc = 0u;
200024d4:	4b0c      	ldr	r3, [pc, #48]	; (20002508 <HPDMA_Complete_IRQHandler+0xe8>)
200024d6:	2200      	movs	r2, #0
200024d8:	601a      	str	r2, [r3, #0]
C:\Microchip\Libero_SoC_v2024.2\Designer\bin\projects\SMF2000-M3_ProjectRad\SC2021_Workspace_PRad\eNVM\Debug/../drivers/mss_hpdma/mss_hpdma.c:346
            g_hpdma_end_desc = 0u;
200024da:	4b0e      	ldr	r3, [pc, #56]	; (20002514 <HPDMA_Complete_IRQHandler+0xf4>)
200024dc:	2200      	movs	r2, #0
200024de:	601a      	str	r2, [r3, #0]
C:\Microchip\Libero_SoC_v2024.2\Designer\bin\projects\SMF2000-M3_ProjectRad\SC2021_Workspace_PRad\eNVM\Debug/../drivers/mss_hpdma/mss_hpdma.c:348
            g_transfer.state = HPDMA_COMPLETED;
200024e0:	4b0b      	ldr	r3, [pc, #44]	; (20002510 <HPDMA_Complete_IRQHandler+0xf0>)
200024e2:	2201      	movs	r2, #1
200024e4:	701a      	strb	r2, [r3, #0]
C:\Microchip\Libero_SoC_v2024.2\Designer\bin\projects\SMF2000-M3_ProjectRad\SC2021_Workspace_PRad\eNVM\Debug/../drivers/mss_hpdma/mss_hpdma.c:349
            if(g_transfer.completion_handler != NULL_HANDLER)
200024e6:	4b0a      	ldr	r3, [pc, #40]	; (20002510 <HPDMA_Complete_IRQHandler+0xf0>)
200024e8:	685b      	ldr	r3, [r3, #4]
200024ea:	2b00      	cmp	r3, #0
200024ec:	d003      	beq.n	200024f6 <HPDMA_Complete_IRQHandler+0xd6>
C:\Microchip\Libero_SoC_v2024.2\Designer\bin\projects\SMF2000-M3_ProjectRad\SC2021_Workspace_PRad\eNVM\Debug/../drivers/mss_hpdma/mss_hpdma.c:351
                (*(g_transfer.completion_handler))(HPDMA_COMPLETED);
200024ee:	4b08      	ldr	r3, [pc, #32]	; (20002510 <HPDMA_Complete_IRQHandler+0xf0>)
200024f0:	685b      	ldr	r3, [r3, #4]
200024f2:	2001      	movs	r0, #1
200024f4:	4798      	blx	r3
C:\Microchip\Libero_SoC_v2024.2\Designer\bin\projects\SMF2000-M3_ProjectRad\SC2021_Workspace_PRad\eNVM\Debug/../drivers/mss_hpdma/mss_hpdma.c:355
}
200024f6:	bf00      	nop
200024f8:	46bd      	mov	sp, r7
200024fa:	e8bd 4089 	ldmia.w	sp!, {r0, r3, r7, lr}
200024fe:	4685      	mov	sp, r0
20002500:	4770      	bx	lr
20002502:	bf00      	nop
20002504:	42280000 	.word	0x42280000
20002508:	200093a8 	.word	0x200093a8
2000250c:	40014000 	.word	0x40014000
20002510:	2000938c 	.word	0x2000938c
20002514:	200093a4 	.word	0x200093a4

20002518 <HPDMA_Error_IRQHandler>:
HPDMA_Error_IRQHandler():
C:\Microchip\Libero_SoC_v2024.2\Designer\bin\projects\SMF2000-M3_ProjectRad\SC2021_Workspace_PRad\eNVM\Debug/../drivers/mss_hpdma/mss_hpdma.c:367
#if defined(__GNUC__)
__attribute__((__interrupt__)) void HPDMA_Error_IRQHandler(void)
#else
void HPDMA_Error_IRQHandler(void)
#endif 
{
20002518:	4668      	mov	r0, sp
2000251a:	f020 0107 	bic.w	r1, r0, #7
2000251e:	468d      	mov	sp, r1
20002520:	b581      	push	{r0, r7, lr}
20002522:	b083      	sub	sp, #12
20002524:	af00      	add	r7, sp, #0
C:\Microchip\Libero_SoC_v2024.2\Designer\bin\projects\SMF2000-M3_ProjectRad\SC2021_Workspace_PRad\eNVM\Debug/../drivers/mss_hpdma/mss_hpdma.c:374
    uint32_t inc;

    /*
     * Handle source/destination errors.
     */
    error_bits = HPDMA->HPDMAEDR_REG;
20002526:	4b39      	ldr	r3, [pc, #228]	; (2000260c <HPDMA_Error_IRQHandler+0xf4>)
20002528:	681b      	ldr	r3, [r3, #0]
2000252a:	603b      	str	r3, [r7, #0]
C:\Microchip\Libero_SoC_v2024.2\Designer\bin\projects\SMF2000-M3_ProjectRad\SC2021_Workspace_PRad\eNVM\Debug/../drivers/mss_hpdma/mss_hpdma.c:375
    error_bits = error_bits & HPDMAEDR_DCP_ERR_MASK;
2000252c:	683b      	ldr	r3, [r7, #0]
2000252e:	f403 6370 	and.w	r3, r3, #3840	; 0xf00
20002532:	603b      	str	r3, [r7, #0]
C:\Microchip\Libero_SoC_v2024.2\Designer\bin\projects\SMF2000-M3_ProjectRad\SC2021_Workspace_PRad\eNVM\Debug/../drivers/mss_hpdma/mss_hpdma.c:377
    
    if(error_bits != 0u)
20002534:	683b      	ldr	r3, [r7, #0]
20002536:	2b00      	cmp	r3, #0
20002538:	d02f      	beq.n	2000259a <HPDMA_Error_IRQHandler+0x82>
C:\Microchip\Libero_SoC_v2024.2\Designer\bin\projects\SMF2000-M3_ProjectRad\SC2021_Workspace_PRad\eNVM\Debug/../drivers/mss_hpdma/mss_hpdma.c:379
    {
        if(HPDMA_BITBAND->Descriptor[g_hpdma_current_desc].HPDMASR_DCP_SERR != 0u)
2000253a:	4935      	ldr	r1, [pc, #212]	; (20002610 <HPDMA_Error_IRQHandler+0xf8>)
2000253c:	4b35      	ldr	r3, [pc, #212]	; (20002614 <HPDMA_Error_IRQHandler+0xfc>)
2000253e:	681a      	ldr	r2, [r3, #0]
20002540:	4613      	mov	r3, r2
20002542:	009b      	lsls	r3, r3, #2
20002544:	4413      	add	r3, r2
20002546:	01db      	lsls	r3, r3, #7
20002548:	440b      	add	r3, r1
2000254a:	f503 7302 	add.w	r3, r3, #520	; 0x208
2000254e:	681b      	ldr	r3, [r3, #0]
20002550:	2b00      	cmp	r3, #0
20002552:	d00a      	beq.n	2000256a <HPDMA_Error_IRQHandler+0x52>
C:\Microchip\Libero_SoC_v2024.2\Designer\bin\projects\SMF2000-M3_ProjectRad\SC2021_Workspace_PRad\eNVM\Debug/../drivers/mss_hpdma/mss_hpdma.c:381
        {
            g_transfer.state = HPDMA_SOURCE_ERROR;
20002554:	4b30      	ldr	r3, [pc, #192]	; (20002618 <HPDMA_Error_IRQHandler+0x100>)
20002556:	2202      	movs	r2, #2
20002558:	701a      	strb	r2, [r3, #0]
C:\Microchip\Libero_SoC_v2024.2\Designer\bin\projects\SMF2000-M3_ProjectRad\SC2021_Workspace_PRad\eNVM\Debug/../drivers/mss_hpdma/mss_hpdma.c:382
            if(g_transfer.completion_handler != NULL_HANDLER)
2000255a:	4b2f      	ldr	r3, [pc, #188]	; (20002618 <HPDMA_Error_IRQHandler+0x100>)
2000255c:	685b      	ldr	r3, [r3, #4]
2000255e:	2b00      	cmp	r3, #0
20002560:	d003      	beq.n	2000256a <HPDMA_Error_IRQHandler+0x52>
C:\Microchip\Libero_SoC_v2024.2\Designer\bin\projects\SMF2000-M3_ProjectRad\SC2021_Workspace_PRad\eNVM\Debug/../drivers/mss_hpdma/mss_hpdma.c:384
            {                        
                (*(g_transfer.completion_handler))(HPDMA_SOURCE_ERROR);
20002562:	4b2d      	ldr	r3, [pc, #180]	; (20002618 <HPDMA_Error_IRQHandler+0x100>)
20002564:	685b      	ldr	r3, [r3, #4]
20002566:	2002      	movs	r0, #2
20002568:	4798      	blx	r3
C:\Microchip\Libero_SoC_v2024.2\Designer\bin\projects\SMF2000-M3_ProjectRad\SC2021_Workspace_PRad\eNVM\Debug/../drivers/mss_hpdma/mss_hpdma.c:388
            }
        }
        
        if(HPDMA_BITBAND->Descriptor[g_hpdma_current_desc].HPDMASR_DCP_DERR != 0u)
2000256a:	4929      	ldr	r1, [pc, #164]	; (20002610 <HPDMA_Error_IRQHandler+0xf8>)
2000256c:	4b29      	ldr	r3, [pc, #164]	; (20002614 <HPDMA_Error_IRQHandler+0xfc>)
2000256e:	681a      	ldr	r2, [r3, #0]
20002570:	4613      	mov	r3, r2
20002572:	009b      	lsls	r3, r3, #2
20002574:	4413      	add	r3, r2
20002576:	01db      	lsls	r3, r3, #7
20002578:	440b      	add	r3, r1
2000257a:	f503 7303 	add.w	r3, r3, #524	; 0x20c
2000257e:	681b      	ldr	r3, [r3, #0]
20002580:	2b00      	cmp	r3, #0
20002582:	d00a      	beq.n	2000259a <HPDMA_Error_IRQHandler+0x82>
C:\Microchip\Libero_SoC_v2024.2\Designer\bin\projects\SMF2000-M3_ProjectRad\SC2021_Workspace_PRad\eNVM\Debug/../drivers/mss_hpdma/mss_hpdma.c:390
        {
            g_transfer.state = HPDMA_DESTINATION_ERROR;
20002584:	4b24      	ldr	r3, [pc, #144]	; (20002618 <HPDMA_Error_IRQHandler+0x100>)
20002586:	2203      	movs	r2, #3
20002588:	701a      	strb	r2, [r3, #0]
C:\Microchip\Libero_SoC_v2024.2\Designer\bin\projects\SMF2000-M3_ProjectRad\SC2021_Workspace_PRad\eNVM\Debug/../drivers/mss_hpdma/mss_hpdma.c:391
            if(g_transfer.completion_handler != NULL_HANDLER)
2000258a:	4b23      	ldr	r3, [pc, #140]	; (20002618 <HPDMA_Error_IRQHandler+0x100>)
2000258c:	685b      	ldr	r3, [r3, #4]
2000258e:	2b00      	cmp	r3, #0
20002590:	d003      	beq.n	2000259a <HPDMA_Error_IRQHandler+0x82>
C:\Microchip\Libero_SoC_v2024.2\Designer\bin\projects\SMF2000-M3_ProjectRad\SC2021_Workspace_PRad\eNVM\Debug/../drivers/mss_hpdma/mss_hpdma.c:393
            {                        
                (*(g_transfer.completion_handler))(HPDMA_DESTINATION_ERROR);
20002592:	4b21      	ldr	r3, [pc, #132]	; (20002618 <HPDMA_Error_IRQHandler+0x100>)
20002594:	685b      	ldr	r3, [r3, #4]
20002596:	2003      	movs	r0, #3
20002598:	4798      	blx	r3
C:\Microchip\Libero_SoC_v2024.2\Designer\bin\projects\SMF2000-M3_ProjectRad\SC2021_Workspace_PRad\eNVM\Debug/../drivers/mss_hpdma/mss_hpdma.c:401
    }
    
    /*
     * Handle non word aligned errors.
     */
    error_bits = HPDMA->HPDMAEDR_REG;
2000259a:	4b1c      	ldr	r3, [pc, #112]	; (2000260c <HPDMA_Error_IRQHandler+0xf4>)
2000259c:	681b      	ldr	r3, [r3, #0]
2000259e:	603b      	str	r3, [r7, #0]
C:\Microchip\Libero_SoC_v2024.2\Designer\bin\projects\SMF2000-M3_ProjectRad\SC2021_Workspace_PRad\eNVM\Debug/../drivers/mss_hpdma/mss_hpdma.c:402
    error_bits = error_bits & HPDMAEDR_NON_WORD_ERR_MASK;
200025a0:	683b      	ldr	r3, [r7, #0]
200025a2:	f403 4370 	and.w	r3, r3, #61440	; 0xf000
200025a6:	603b      	str	r3, [r7, #0]
C:\Microchip\Libero_SoC_v2024.2\Designer\bin\projects\SMF2000-M3_ProjectRad\SC2021_Workspace_PRad\eNVM\Debug/../drivers/mss_hpdma/mss_hpdma.c:404
    
    if(error_bits != 0u)
200025a8:	683b      	ldr	r3, [r7, #0]
200025aa:	2b00      	cmp	r3, #0
200025ac:	d00a      	beq.n	200025c4 <HPDMA_Error_IRQHandler+0xac>
C:\Microchip\Libero_SoC_v2024.2\Designer\bin\projects\SMF2000-M3_ProjectRad\SC2021_Workspace_PRad\eNVM\Debug/../drivers/mss_hpdma/mss_hpdma.c:406
    {
        g_transfer.state = HPDMA_WORD_ALIGN_ERROR;
200025ae:	4b1a      	ldr	r3, [pc, #104]	; (20002618 <HPDMA_Error_IRQHandler+0x100>)
200025b0:	2204      	movs	r2, #4
200025b2:	701a      	strb	r2, [r3, #0]
C:\Microchip\Libero_SoC_v2024.2\Designer\bin\projects\SMF2000-M3_ProjectRad\SC2021_Workspace_PRad\eNVM\Debug/../drivers/mss_hpdma/mss_hpdma.c:408
        /* Call handler. */
        if(g_transfer.completion_handler != NULL_HANDLER)
200025b4:	4b18      	ldr	r3, [pc, #96]	; (20002618 <HPDMA_Error_IRQHandler+0x100>)
200025b6:	685b      	ldr	r3, [r3, #4]
200025b8:	2b00      	cmp	r3, #0
200025ba:	d003      	beq.n	200025c4 <HPDMA_Error_IRQHandler+0xac>
C:\Microchip\Libero_SoC_v2024.2\Designer\bin\projects\SMF2000-M3_ProjectRad\SC2021_Workspace_PRad\eNVM\Debug/../drivers/mss_hpdma/mss_hpdma.c:410
        {
            (*(g_transfer.completion_handler))(HPDMA_WORD_ALIGN_ERROR);
200025bc:	4b16      	ldr	r3, [pc, #88]	; (20002618 <HPDMA_Error_IRQHandler+0x100>)
200025be:	685b      	ldr	r3, [r3, #4]
200025c0:	2004      	movs	r0, #4
200025c2:	4798      	blx	r3
C:\Microchip\Libero_SoC_v2024.2\Designer\bin\projects\SMF2000-M3_ProjectRad\SC2021_Workspace_PRad\eNVM\Debug/../drivers/mss_hpdma/mss_hpdma.c:414
        }
    }
    
    for(inc = 0u; inc < NO_OF_HPDMA_DESCRIPTORS; inc++)
200025c4:	2300      	movs	r3, #0
200025c6:	607b      	str	r3, [r7, #4]
200025c8:	e014      	b.n	200025f4 <HPDMA_Error_IRQHandler+0xdc>
C:\Microchip\Libero_SoC_v2024.2\Designer\bin\projects\SMF2000-M3_ProjectRad\SC2021_Workspace_PRad\eNVM\Debug/../drivers/mss_hpdma/mss_hpdma.c:417 (discriminator 3)
    {
        /* Abort transfer. */
        HPDMA_BITBAND->Descriptor[inc].HPDMACR_DCP_CLR = HPDMA_ENABLE;
200025ca:	4911      	ldr	r1, [pc, #68]	; (20002610 <HPDMA_Error_IRQHandler+0xf8>)
200025cc:	687a      	ldr	r2, [r7, #4]
200025ce:	4613      	mov	r3, r2
200025d0:	009b      	lsls	r3, r3, #2
200025d2:	4413      	add	r3, r2
200025d4:	01db      	lsls	r3, r3, #7
200025d6:	440b      	add	r3, r1
200025d8:	f503 73e4 	add.w	r3, r3, #456	; 0x1c8
200025dc:	2201      	movs	r2, #1
200025de:	601a      	str	r2, [r3, #0]
C:\Microchip\Libero_SoC_v2024.2\Designer\bin\projects\SMF2000-M3_ProjectRad\SC2021_Workspace_PRad\eNVM\Debug/../drivers/mss_hpdma/mss_hpdma.c:419 (discriminator 3)
        /* Clear interrupt. */
        HPDMA_BITBAND->HPDMAICR_CLR_XFR_INT[inc] = HPDMA_ENABLE;
200025e0:	4a0b      	ldr	r2, [pc, #44]	; (20002610 <HPDMA_Error_IRQHandler+0xf8>)
200025e2:	687b      	ldr	r3, [r7, #4]
200025e4:	f503 7328 	add.w	r3, r3, #672	; 0x2a0
200025e8:	2101      	movs	r1, #1
200025ea:	f842 1023 	str.w	r1, [r2, r3, lsl #2]
C:\Microchip\Libero_SoC_v2024.2\Designer\bin\projects\SMF2000-M3_ProjectRad\SC2021_Workspace_PRad\eNVM\Debug/../drivers/mss_hpdma/mss_hpdma.c:414 (discriminator 3)
    for(inc = 0u; inc < NO_OF_HPDMA_DESCRIPTORS; inc++)
200025ee:	687b      	ldr	r3, [r7, #4]
200025f0:	3301      	adds	r3, #1
200025f2:	607b      	str	r3, [r7, #4]
C:\Microchip\Libero_SoC_v2024.2\Designer\bin\projects\SMF2000-M3_ProjectRad\SC2021_Workspace_PRad\eNVM\Debug/../drivers/mss_hpdma/mss_hpdma.c:414 (discriminator 1)
200025f4:	687b      	ldr	r3, [r7, #4]
200025f6:	2b03      	cmp	r3, #3
200025f8:	d9e7      	bls.n	200025ca <HPDMA_Error_IRQHandler+0xb2>
C:\Microchip\Libero_SoC_v2024.2\Designer\bin\projects\SMF2000-M3_ProjectRad\SC2021_Workspace_PRad\eNVM\Debug/../drivers/mss_hpdma/mss_hpdma.c:421
    }
}
200025fa:	bf00      	nop
200025fc:	bf00      	nop
200025fe:	370c      	adds	r7, #12
20002600:	46bd      	mov	sp, r7
20002602:	e8bd 4081 	ldmia.w	sp!, {r0, r7, lr}
20002606:	4685      	mov	sp, r0
20002608:	4770      	bx	lr
2000260a:	bf00      	nop
2000260c:	40014000 	.word	0x40014000
20002610:	42280000 	.word	0x42280000
20002614:	200093a8 	.word	0x200093a8
20002618:	2000938c 	.word	0x2000938c

2000261c <_exit>:
_exit():
C:\Microchip\Libero_SoC_v2024.2\Designer\bin\projects\SMF2000-M3_ProjectRad\SC2021_Workspace_PRad\eNVM\Debug/../CMSIS/startup_gcc/newlib_stubs.c:90

/*==============================================================================
 * Exit a program without cleaning up files.
 */
void _exit( int code )
{
2000261c:	b480      	push	{r7}
2000261e:	b083      	sub	sp, #12
20002620:	af00      	add	r7, sp, #0
20002622:	6078      	str	r0, [r7, #4]
C:\Microchip\Libero_SoC_v2024.2\Designer\bin\projects\SMF2000-M3_ProjectRad\SC2021_Workspace_PRad\eNVM\Debug/../CMSIS/startup_gcc/newlib_stubs.c:92 (discriminator 1)
    /* Should we force a system reset? */
    while( 1 )
20002624:	e7fe      	b.n	20002624 <_exit+0x8>

20002626 <_write_r>:
_write_r():
C:\Microchip\Libero_SoC_v2024.2\Designer\bin\projects\SMF2000-M3_ProjectRad\SC2021_Workspace_PRad\eNVM\Debug/../CMSIS/startup_gcc/newlib_stubs.c:181
 * all files, including stdoutso if you need to generate any output, for
 * example to a serial port for debugging, you should make your minimal write
 * capable of doing this.
 */
int _write_r( void * reent, int file, char * ptr, int len )
{
20002626:	b480      	push	{r7}
20002628:	b085      	sub	sp, #20
2000262a:	af00      	add	r7, sp, #0
2000262c:	60f8      	str	r0, [r7, #12]
2000262e:	60b9      	str	r1, [r7, #8]
20002630:	607a      	str	r2, [r7, #4]
20002632:	603b      	str	r3, [r7, #0]
C:\Microchip\Libero_SoC_v2024.2\Designer\bin\projects\SMF2000-M3_ProjectRad\SC2021_Workspace_PRad\eNVM\Debug/../CMSIS/startup_gcc/newlib_stubs.c:203
     */
    MSS_UART_polled_tx(gp_my_uart, (uint8_t *)ptr, len);
    
    return len;
#else   /* MICROSEMI_STDIO_THRU_UART */
    return 0;
20002634:	2300      	movs	r3, #0
C:\Microchip\Libero_SoC_v2024.2\Designer\bin\projects\SMF2000-M3_ProjectRad\SC2021_Workspace_PRad\eNVM\Debug/../CMSIS/startup_gcc/newlib_stubs.c:205
#endif  /* MICROSEMI_STDIO_THRU_UART */
}
20002636:	4618      	mov	r0, r3
20002638:	3714      	adds	r7, #20
2000263a:	46bd      	mov	sp, r7
2000263c:	bc80      	pop	{r7}
2000263e:	4770      	bx	lr

20002640 <_sbrk>:
_sbrk():
C:\Microchip\Libero_SoC_v2024.2\Designer\bin\projects\SMF2000-M3_ProjectRad\SC2021_Workspace_PRad\eNVM\Debug/../CMSIS/startup_gcc/newlib_stubs.c:214
 * it is useful to have a working implementation. The following suffices for a
 * standalone system; it exploits the symbol _end automatically defined by the
 * GNU linker. 
 */
caddr_t _sbrk(int incr)
{
20002640:	b580      	push	{r7, lr}
20002642:	b086      	sub	sp, #24
20002644:	af00      	add	r7, sp, #0
20002646:	6078      	str	r0, [r7, #4]
C:\Microchip\Libero_SoC_v2024.2\Designer\bin\projects\SMF2000-M3_ProjectRad\SC2021_Workspace_PRad\eNVM\Debug/../CMSIS/startup_gcc/newlib_stubs.c:220
    extern char _end;       /* Defined by the linker */
    static char *heap_end;
    char *prev_heap_end;
    char * stack_ptr;
    
    if (heap_end == 0)
20002648:	4b1f      	ldr	r3, [pc, #124]	; (200026c8 <_sbrk+0x88>)
2000264a:	681b      	ldr	r3, [r3, #0]
2000264c:	2b00      	cmp	r3, #0
2000264e:	d102      	bne.n	20002656 <_sbrk+0x16>
C:\Microchip\Libero_SoC_v2024.2\Designer\bin\projects\SMF2000-M3_ProjectRad\SC2021_Workspace_PRad\eNVM\Debug/../CMSIS/startup_gcc/newlib_stubs.c:222
    {
      heap_end = &_end;
20002650:	4b1d      	ldr	r3, [pc, #116]	; (200026c8 <_sbrk+0x88>)
20002652:	4a1e      	ldr	r2, [pc, #120]	; (200026cc <_sbrk+0x8c>)
20002654:	601a      	str	r2, [r3, #0]
C:\Microchip\Libero_SoC_v2024.2\Designer\bin\projects\SMF2000-M3_ProjectRad\SC2021_Workspace_PRad\eNVM\Debug/../CMSIS/startup_gcc/newlib_stubs.c:225
    }
    
    prev_heap_end = heap_end;
20002656:	4b1c      	ldr	r3, [pc, #112]	; (200026c8 <_sbrk+0x88>)
20002658:	681b      	ldr	r3, [r3, #0]
2000265a:	617b      	str	r3, [r7, #20]
C:\Microchip\Libero_SoC_v2024.2\Designer\bin\projects\SMF2000-M3_ProjectRad\SC2021_Workspace_PRad\eNVM\Debug/../CMSIS/startup_gcc/newlib_stubs.c:227
    
    asm volatile ("MRS %0, msp" : "=r" (stack_ptr) );
2000265c:	f3ef 8308 	mrs	r3, MSP
20002660:	613b      	str	r3, [r7, #16]
C:\Microchip\Libero_SoC_v2024.2\Designer\bin\projects\SMF2000-M3_ProjectRad\SC2021_Workspace_PRad\eNVM\Debug/../CMSIS/startup_gcc/newlib_stubs.c:228
    if(heap_end < stack_ptr)
20002662:	4b19      	ldr	r3, [pc, #100]	; (200026c8 <_sbrk+0x88>)
20002664:	681b      	ldr	r3, [r3, #0]
20002666:	693a      	ldr	r2, [r7, #16]
20002668:	429a      	cmp	r2, r3
2000266a:	d90f      	bls.n	2000268c <_sbrk+0x4c>
C:\Microchip\Libero_SoC_v2024.2\Designer\bin\projects\SMF2000-M3_ProjectRad\SC2021_Workspace_PRad\eNVM\Debug/../CMSIS/startup_gcc/newlib_stubs.c:235
        /*
         * Heap is at an address below the stack, growing up toward the stack.
         * The stack is above the heap, growing down towards the heap.
         * Make sure the stack and heap do not run into each other.
         */
        if (heap_end + incr > stack_ptr)
2000266c:	4b16      	ldr	r3, [pc, #88]	; (200026c8 <_sbrk+0x88>)
2000266e:	681a      	ldr	r2, [r3, #0]
20002670:	687b      	ldr	r3, [r7, #4]
20002672:	4413      	add	r3, r2
20002674:	693a      	ldr	r2, [r7, #16]
20002676:	429a      	cmp	r2, r3
20002678:	d21a      	bcs.n	200026b0 <_sbrk+0x70>
C:\Microchip\Libero_SoC_v2024.2\Designer\bin\projects\SMF2000-M3_ProjectRad\SC2021_Workspace_PRad\eNVM\Debug/../CMSIS/startup_gcc/newlib_stubs.c:237
        {
          _write_r ((void *)0, 1, "Heap and stack collision\n", 25);
2000267a:	2319      	movs	r3, #25
2000267c:	4a14      	ldr	r2, [pc, #80]	; (200026d0 <_sbrk+0x90>)
2000267e:	2101      	movs	r1, #1
20002680:	2000      	movs	r0, #0
20002682:	f7ff ffd0 	bl	20002626 <_write_r>
C:\Microchip\Libero_SoC_v2024.2\Designer\bin\projects\SMF2000-M3_ProjectRad\SC2021_Workspace_PRad\eNVM\Debug/../CMSIS/startup_gcc/newlib_stubs.c:238
          _exit (1);
20002686:	2001      	movs	r0, #1
20002688:	f7ff ffc8 	bl	2000261c <_exit>
C:\Microchip\Libero_SoC_v2024.2\Designer\bin\projects\SMF2000-M3_ProjectRad\SC2021_Workspace_PRad\eNVM\Debug/../CMSIS/startup_gcc/newlib_stubs.c:257
         * SmartFusion2 cache design.
         */
        extern char _eheap;     /* Defined by the linker */
        char *top_of_heap;
        
        top_of_heap = &_eheap;
2000268c:	4b11      	ldr	r3, [pc, #68]	; (200026d4 <_sbrk+0x94>)
2000268e:	60fb      	str	r3, [r7, #12]
C:\Microchip\Libero_SoC_v2024.2\Designer\bin\projects\SMF2000-M3_ProjectRad\SC2021_Workspace_PRad\eNVM\Debug/../CMSIS/startup_gcc/newlib_stubs.c:258
        if(heap_end + incr  > top_of_heap)
20002690:	4b0d      	ldr	r3, [pc, #52]	; (200026c8 <_sbrk+0x88>)
20002692:	681a      	ldr	r2, [r3, #0]
20002694:	687b      	ldr	r3, [r7, #4]
20002696:	4413      	add	r3, r2
20002698:	68fa      	ldr	r2, [r7, #12]
2000269a:	429a      	cmp	r2, r3
2000269c:	d208      	bcs.n	200026b0 <_sbrk+0x70>
C:\Microchip\Libero_SoC_v2024.2\Designer\bin\projects\SMF2000-M3_ProjectRad\SC2021_Workspace_PRad\eNVM\Debug/../CMSIS/startup_gcc/newlib_stubs.c:260
        {
          _write_r ((void *)0, 1, "Out of heap memory\n", 25);
2000269e:	2319      	movs	r3, #25
200026a0:	4a0d      	ldr	r2, [pc, #52]	; (200026d8 <_sbrk+0x98>)
200026a2:	2101      	movs	r1, #1
200026a4:	2000      	movs	r0, #0
200026a6:	f7ff ffbe 	bl	20002626 <_write_r>
C:\Microchip\Libero_SoC_v2024.2\Designer\bin\projects\SMF2000-M3_ProjectRad\SC2021_Workspace_PRad\eNVM\Debug/../CMSIS/startup_gcc/newlib_stubs.c:261
          _exit (1);
200026aa:	2001      	movs	r0, #1
200026ac:	f7ff ffb6 	bl	2000261c <_exit>
C:\Microchip\Libero_SoC_v2024.2\Designer\bin\projects\SMF2000-M3_ProjectRad\SC2021_Workspace_PRad\eNVM\Debug/../CMSIS/startup_gcc/newlib_stubs.c:265
        }
    }
  
    heap_end += incr;
200026b0:	4b05      	ldr	r3, [pc, #20]	; (200026c8 <_sbrk+0x88>)
200026b2:	681a      	ldr	r2, [r3, #0]
200026b4:	687b      	ldr	r3, [r7, #4]
200026b6:	4413      	add	r3, r2
200026b8:	4a03      	ldr	r2, [pc, #12]	; (200026c8 <_sbrk+0x88>)
200026ba:	6013      	str	r3, [r2, #0]
C:\Microchip\Libero_SoC_v2024.2\Designer\bin\projects\SMF2000-M3_ProjectRad\SC2021_Workspace_PRad\eNVM\Debug/../CMSIS/startup_gcc/newlib_stubs.c:266
    return (caddr_t) prev_heap_end;
200026bc:	697b      	ldr	r3, [r7, #20]
C:\Microchip\Libero_SoC_v2024.2\Designer\bin\projects\SMF2000-M3_ProjectRad\SC2021_Workspace_PRad\eNVM\Debug/../CMSIS/startup_gcc/newlib_stubs.c:267
}
200026be:	4618      	mov	r0, r3
200026c0:	3718      	adds	r7, #24
200026c2:	46bd      	mov	sp, r7
200026c4:	bd80      	pop	{r7, pc}
200026c6:	bf00      	nop
200026c8:	200093ac 	.word	0x200093ac
200026cc:	200094a0 	.word	0x200094a0
200026d0:	20008318 	.word	0x20008318
200026d4:	2000f000 	.word	0x2000f000
200026d8:	20008334 	.word	0x20008334

200026dc <SystemInit>:
SystemInit():
C:\Microchip\Libero_SoC_v2024.2\Designer\bin\projects\SMF2000-M3_ProjectRad\SC2021_Workspace_PRad\eNVM\Debug/../CMSIS/system_m2sxxx.c:433

/***************************************************************************//**
 * See system_m2sxxx.h for details.
 */
void SystemInit(void)
{
200026dc:	b580      	push	{r7, lr}
200026de:	af00      	add	r7, sp, #0
C:\Microchip\Libero_SoC_v2024.2\Designer\bin\projects\SMF2000-M3_ProjectRad\SC2021_Workspace_PRad\eNVM\Debug/../CMSIS/system_m2sxxx.c:456
     */
#if (MSS_SYS_FACC_INIT_BY_CORTEX == 1)
    complete_clock_config();
#endif

    silicon_workarounds();
200026e0:	f000 f8fa 	bl	200028d8 <silicon_workarounds>
C:\Microchip\Libero_SoC_v2024.2\Designer\bin\projects\SMF2000-M3_ProjectRad\SC2021_Workspace_PRad\eNVM\Debug/../CMSIS/system_m2sxxx.c:463
    /*--------------------------------------------------------------------------
     * Set STKALIGN to ensure exception stacking starts on 8 bytes address
     * boundary. This ensures compliance with the "Procedure Call Standards for
     * the ARM Architecture" (AAPCS).
     */
    SCB->CCR |= SCB_CCR_STKALIGN_Msk;
200026e4:	4b04      	ldr	r3, [pc, #16]	; (200026f8 <SystemInit+0x1c>)
200026e6:	695b      	ldr	r3, [r3, #20]
200026e8:	4a03      	ldr	r2, [pc, #12]	; (200026f8 <SystemInit+0x1c>)
200026ea:	f443 7300 	orr.w	r3, r3, #512	; 0x200
200026ee:	6153      	str	r3, [r2, #20]
C:\Microchip\Libero_SoC_v2024.2\Designer\bin\projects\SMF2000-M3_ProjectRad\SC2021_Workspace_PRad\eNVM\Debug/../CMSIS/system_m2sxxx.c:492
#endif

    /*--------------------------------------------------------------------------
     * Call user defined configuration function.
     */
    mscc_post_hw_cfg_init();
200026f0:	f7fd fea0 	bl	20000434 <mscc_post_hw_cfg_init>
C:\Microchip\Libero_SoC_v2024.2\Designer\bin\projects\SMF2000-M3_ProjectRad\SC2021_Workspace_PRad\eNVM\Debug/../CMSIS/system_m2sxxx.c:539
    do
    {
        init_done = CORE_SF2_CFG->INIT_DONE & INIT_DONE_MASK;
    } while (0u == init_done);
#endif
}
200026f4:	bf00      	nop
200026f6:	bd80      	pop	{r7, pc}
200026f8:	e000ed00 	.word	0xe000ed00

200026fc <SystemCoreClockUpdate>:
SystemCoreClockUpdate():
C:\Microchip\Libero_SoC_v2024.2\Designer\bin\projects\SMF2000-M3_ProjectRad\SC2021_Workspace_PRad\eNVM\Debug/../CMSIS/system_m2sxxx.c:558
#define FREQ_1MHZ    1000000u
#define FREQ_25MHZ   25000000u
#define FREQ_50MHZ   50000000u

void SystemCoreClockUpdate(void)
{
200026fc:	b580      	push	{r7, lr}
200026fe:	b088      	sub	sp, #32
20002700:	af00      	add	r7, sp, #0
C:\Microchip\Libero_SoC_v2024.2\Designer\bin\projects\SMF2000-M3_ProjectRad\SC2021_Workspace_PRad\eNVM\Debug/../CMSIS/system_m2sxxx.c:562
    uint32_t controller_pll_init;
    uint32_t clk_src;

    controller_pll_init = SYSREG->MSSDDR_FACC1_CR & CONTROLLER_PLL_INIT_MASK;
20002702:	4b31      	ldr	r3, [pc, #196]	; (200027c8 <SystemCoreClockUpdate+0xcc>)
20002704:	f8d3 3098 	ldr.w	r3, [r3, #152]	; 0x98
20002708:	f003 6380 	and.w	r3, r3, #67108864	; 0x4000000
2000270c:	61fb      	str	r3, [r7, #28]
C:\Microchip\Libero_SoC_v2024.2\Designer\bin\projects\SMF2000-M3_ProjectRad\SC2021_Workspace_PRad\eNVM\Debug/../CMSIS/system_m2sxxx.c:564

    if(0u == controller_pll_init)
2000270e:	69fb      	ldr	r3, [r7, #28]
20002710:	2b00      	cmp	r3, #0
20002712:	d14e      	bne.n	200027b2 <SystemCoreClockUpdate+0xb6>
C:\Microchip\Libero_SoC_v2024.2\Designer\bin\projects\SMF2000-M3_ProjectRad\SC2021_Workspace_PRad\eNVM\Debug/../CMSIS/system_m2sxxx.c:569
    {
        /* Normal operations. */
        uint32_t global_mux_sel;

        global_mux_sel = SYSREG->MSSDDR_FACC1_CR & FACC_GLMUX_SEL_MASK;
20002714:	4b2c      	ldr	r3, [pc, #176]	; (200027c8 <SystemCoreClockUpdate+0xcc>)
20002716:	f8d3 3098 	ldr.w	r3, [r3, #152]	; 0x98
2000271a:	f403 5380 	and.w	r3, r3, #4096	; 0x1000
2000271e:	617b      	str	r3, [r7, #20]
C:\Microchip\Libero_SoC_v2024.2\Designer\bin\projects\SMF2000-M3_ProjectRad\SC2021_Workspace_PRad\eNVM\Debug/../CMSIS/system_m2sxxx.c:570
        if(0u == global_mux_sel)
20002720:	697b      	ldr	r3, [r7, #20]
20002722:	2b00      	cmp	r3, #0
20002724:	d115      	bne.n	20002752 <SystemCoreClockUpdate+0x56>
C:\Microchip\Libero_SoC_v2024.2\Designer\bin\projects\SMF2000-M3_ProjectRad\SC2021_Workspace_PRad\eNVM\Debug/../CMSIS/system_m2sxxx.c:573
        {
            /* MSS clocked from MSS PLL. Use Libero flow defines. */
            SystemCoreClock = MSS_SYS_M3_CLK_FREQ;
20002726:	4b29      	ldr	r3, [pc, #164]	; (200027cc <SystemCoreClockUpdate+0xd0>)
20002728:	4a29      	ldr	r2, [pc, #164]	; (200027d0 <SystemCoreClockUpdate+0xd4>)
2000272a:	601a      	str	r2, [r3, #0]
C:\Microchip\Libero_SoC_v2024.2\Designer\bin\projects\SMF2000-M3_ProjectRad\SC2021_Workspace_PRad\eNVM\Debug/../CMSIS/system_m2sxxx.c:574
            g_FrequencyPCLK0 = MSS_SYS_APB_0_CLK_FREQ;
2000272c:	4b29      	ldr	r3, [pc, #164]	; (200027d4 <SystemCoreClockUpdate+0xd8>)
2000272e:	4a28      	ldr	r2, [pc, #160]	; (200027d0 <SystemCoreClockUpdate+0xd4>)
20002730:	601a      	str	r2, [r3, #0]
C:\Microchip\Libero_SoC_v2024.2\Designer\bin\projects\SMF2000-M3_ProjectRad\SC2021_Workspace_PRad\eNVM\Debug/../CMSIS/system_m2sxxx.c:575
            g_FrequencyPCLK1 = MSS_SYS_APB_1_CLK_FREQ;
20002732:	4b29      	ldr	r3, [pc, #164]	; (200027d8 <SystemCoreClockUpdate+0xdc>)
20002734:	4a26      	ldr	r2, [pc, #152]	; (200027d0 <SystemCoreClockUpdate+0xd4>)
20002736:	601a      	str	r2, [r3, #0]
C:\Microchip\Libero_SoC_v2024.2\Designer\bin\projects\SMF2000-M3_ProjectRad\SC2021_Workspace_PRad\eNVM\Debug/../CMSIS/system_m2sxxx.c:576
            g_FrequencyPCLK2 = MSS_SYS_APB_2_CLK_FREQ;
20002738:	4b28      	ldr	r3, [pc, #160]	; (200027dc <SystemCoreClockUpdate+0xe0>)
2000273a:	4a29      	ldr	r2, [pc, #164]	; (200027e0 <SystemCoreClockUpdate+0xe4>)
2000273c:	601a      	str	r2, [r3, #0]
C:\Microchip\Libero_SoC_v2024.2\Designer\bin\projects\SMF2000-M3_ProjectRad\SC2021_Workspace_PRad\eNVM\Debug/../CMSIS/system_m2sxxx.c:577
            g_FrequencyFIC0 = MSS_SYS_FIC_0_CLK_FREQ;
2000273e:	4b29      	ldr	r3, [pc, #164]	; (200027e4 <SystemCoreClockUpdate+0xe8>)
20002740:	4a23      	ldr	r2, [pc, #140]	; (200027d0 <SystemCoreClockUpdate+0xd4>)
20002742:	601a      	str	r2, [r3, #0]
C:\Microchip\Libero_SoC_v2024.2\Designer\bin\projects\SMF2000-M3_ProjectRad\SC2021_Workspace_PRad\eNVM\Debug/../CMSIS/system_m2sxxx.c:578
            g_FrequencyFIC1 = MSS_SYS_FIC_1_CLK_FREQ;
20002744:	4b28      	ldr	r3, [pc, #160]	; (200027e8 <SystemCoreClockUpdate+0xec>)
20002746:	4a22      	ldr	r2, [pc, #136]	; (200027d0 <SystemCoreClockUpdate+0xd4>)
20002748:	601a      	str	r2, [r3, #0]
C:\Microchip\Libero_SoC_v2024.2\Designer\bin\projects\SMF2000-M3_ProjectRad\SC2021_Workspace_PRad\eNVM\Debug/../CMSIS/system_m2sxxx.c:579
            g_FrequencyFIC64 = MSS_SYS_FIC64_CLK_FREQ;
2000274a:	4b28      	ldr	r3, [pc, #160]	; (200027ec <SystemCoreClockUpdate+0xf0>)
2000274c:	4a20      	ldr	r2, [pc, #128]	; (200027d0 <SystemCoreClockUpdate+0xd4>)
2000274e:	601a      	str	r2, [r3, #0]
C:\Microchip\Libero_SoC_v2024.2\Designer\bin\projects\SMF2000-M3_ProjectRad\SC2021_Workspace_PRad\eNVM\Debug/../CMSIS/system_m2sxxx.c:627
    {
        /* PLL initialization mode. Running from 25/50MHZ RC oscillator. */
        clk_src = get_rcosc_25_50mhz_frequency();
        set_clock_frequency_globals(clk_src);
    }
}
20002750:	e036      	b.n	200027c0 <SystemCoreClockUpdate+0xc4>
C:\Microchip\Libero_SoC_v2024.2\Designer\bin\projects\SMF2000-M3_ProjectRad\SC2021_Workspace_PRad\eNVM\Debug/../CMSIS/system_m2sxxx.c:584
            const uint8_t standby_clock_lut[8] = { RCOSC_25_50MHZ_CLK_SRC,
20002752:	4a27      	ldr	r2, [pc, #156]	; (200027f0 <SystemCoreClockUpdate+0xf4>)
20002754:	1d3b      	adds	r3, r7, #4
20002756:	e892 0003 	ldmia.w	r2, {r0, r1}
2000275a:	e883 0003 	stmia.w	r3, {r0, r1}
C:\Microchip\Libero_SoC_v2024.2\Designer\bin\projects\SMF2000-M3_ProjectRad\SC2021_Workspace_PRad\eNVM\Debug/../CMSIS/system_m2sxxx.c:596
            standby_sel = (SYSREG->MSSDDR_FACC2_CR >> FACC_STANDBY_SHIFT) & FACC_STANDBY_SEL_MASK;
2000275e:	4b1a      	ldr	r3, [pc, #104]	; (200027c8 <SystemCoreClockUpdate+0xcc>)
20002760:	f8d3 309c 	ldr.w	r3, [r3, #156]	; 0x9c
20002764:	099b      	lsrs	r3, r3, #6
20002766:	f003 0307 	and.w	r3, r3, #7
2000276a:	613b      	str	r3, [r7, #16]
C:\Microchip\Libero_SoC_v2024.2\Designer\bin\projects\SMF2000-M3_ProjectRad\SC2021_Workspace_PRad\eNVM\Debug/../CMSIS/system_m2sxxx.c:597
            clock_source = standby_clock_lut[standby_sel];
2000276c:	1d3a      	adds	r2, r7, #4
2000276e:	693b      	ldr	r3, [r7, #16]
20002770:	4413      	add	r3, r2
20002772:	781b      	ldrb	r3, [r3, #0]
20002774:	73fb      	strb	r3, [r7, #15]
C:\Microchip\Libero_SoC_v2024.2\Designer\bin\projects\SMF2000-M3_ProjectRad\SC2021_Workspace_PRad\eNVM\Debug/../CMSIS/system_m2sxxx.c:598
            switch(clock_source)
20002776:	7bfb      	ldrb	r3, [r7, #15]
20002778:	2b02      	cmp	r3, #2
2000277a:	d012      	beq.n	200027a2 <SystemCoreClockUpdate+0xa6>
2000277c:	2b02      	cmp	r3, #2
2000277e:	dc14      	bgt.n	200027aa <SystemCoreClockUpdate+0xae>
20002780:	2b00      	cmp	r3, #0
20002782:	d002      	beq.n	2000278a <SystemCoreClockUpdate+0x8e>
20002784:	2b01      	cmp	r3, #1
20002786:	d007      	beq.n	20002798 <SystemCoreClockUpdate+0x9c>
20002788:	e00f      	b.n	200027aa <SystemCoreClockUpdate+0xae>
C:\Microchip\Libero_SoC_v2024.2\Designer\bin\projects\SMF2000-M3_ProjectRad\SC2021_Workspace_PRad\eNVM\Debug/../CMSIS/system_m2sxxx.c:601
                    clk_src = get_rcosc_25_50mhz_frequency();
2000278a:	f000 f835 	bl	200027f8 <get_rcosc_25_50mhz_frequency>
2000278e:	61b8      	str	r0, [r7, #24]
C:\Microchip\Libero_SoC_v2024.2\Designer\bin\projects\SMF2000-M3_ProjectRad\SC2021_Workspace_PRad\eNVM\Debug/../CMSIS/system_m2sxxx.c:602
                    set_clock_frequency_globals(clk_src);
20002790:	69b8      	ldr	r0, [r7, #24]
20002792:	f000 f84f 	bl	20002834 <set_clock_frequency_globals>
C:\Microchip\Libero_SoC_v2024.2\Designer\bin\projects\SMF2000-M3_ProjectRad\SC2021_Workspace_PRad\eNVM\Debug/../CMSIS/system_m2sxxx.c:603
                break;
20002796:	e013      	b.n	200027c0 <SystemCoreClockUpdate+0xc4>
C:\Microchip\Libero_SoC_v2024.2\Designer\bin\projects\SMF2000-M3_ProjectRad\SC2021_Workspace_PRad\eNVM\Debug/../CMSIS/system_m2sxxx.c:606
                    set_clock_frequency_globals(FREQ_32KHZ);
20002798:	f44f 4000 	mov.w	r0, #32768	; 0x8000
2000279c:	f000 f84a 	bl	20002834 <set_clock_frequency_globals>
C:\Microchip\Libero_SoC_v2024.2\Designer\bin\projects\SMF2000-M3_ProjectRad\SC2021_Workspace_PRad\eNVM\Debug/../CMSIS/system_m2sxxx.c:607
                break;
200027a0:	e00e      	b.n	200027c0 <SystemCoreClockUpdate+0xc4>
C:\Microchip\Libero_SoC_v2024.2\Designer\bin\projects\SMF2000-M3_ProjectRad\SC2021_Workspace_PRad\eNVM\Debug/../CMSIS/system_m2sxxx.c:610
                    set_clock_frequency_globals(FREQ_1MHZ);
200027a2:	4814      	ldr	r0, [pc, #80]	; (200027f4 <SystemCoreClockUpdate+0xf8>)
200027a4:	f000 f846 	bl	20002834 <set_clock_frequency_globals>
C:\Microchip\Libero_SoC_v2024.2\Designer\bin\projects\SMF2000-M3_ProjectRad\SC2021_Workspace_PRad\eNVM\Debug/../CMSIS/system_m2sxxx.c:611
                break;
200027a8:	e00a      	b.n	200027c0 <SystemCoreClockUpdate+0xc4>
C:\Microchip\Libero_SoC_v2024.2\Designer\bin\projects\SMF2000-M3_ProjectRad\SC2021_Workspace_PRad\eNVM\Debug/../CMSIS/system_m2sxxx.c:616
                    set_clock_frequency_globals(FREQ_1MHZ);
200027aa:	4812      	ldr	r0, [pc, #72]	; (200027f4 <SystemCoreClockUpdate+0xf8>)
200027ac:	f000 f842 	bl	20002834 <set_clock_frequency_globals>
C:\Microchip\Libero_SoC_v2024.2\Designer\bin\projects\SMF2000-M3_ProjectRad\SC2021_Workspace_PRad\eNVM\Debug/../CMSIS/system_m2sxxx.c:617
                break;
200027b0:	e006      	b.n	200027c0 <SystemCoreClockUpdate+0xc4>
C:\Microchip\Libero_SoC_v2024.2\Designer\bin\projects\SMF2000-M3_ProjectRad\SC2021_Workspace_PRad\eNVM\Debug/../CMSIS/system_m2sxxx.c:624
        clk_src = get_rcosc_25_50mhz_frequency();
200027b2:	f000 f821 	bl	200027f8 <get_rcosc_25_50mhz_frequency>
200027b6:	61b8      	str	r0, [r7, #24]
C:\Microchip\Libero_SoC_v2024.2\Designer\bin\projects\SMF2000-M3_ProjectRad\SC2021_Workspace_PRad\eNVM\Debug/../CMSIS/system_m2sxxx.c:625
        set_clock_frequency_globals(clk_src);
200027b8:	69b8      	ldr	r0, [r7, #24]
200027ba:	f000 f83b 	bl	20002834 <set_clock_frequency_globals>
C:\Microchip\Libero_SoC_v2024.2\Designer\bin\projects\SMF2000-M3_ProjectRad\SC2021_Workspace_PRad\eNVM\Debug/../CMSIS/system_m2sxxx.c:627
}
200027be:	e7ff      	b.n	200027c0 <SystemCoreClockUpdate+0xc4>
200027c0:	bf00      	nop
200027c2:	3720      	adds	r7, #32
200027c4:	46bd      	mov	sp, r7
200027c6:	bd80      	pop	{r7, pc}
200027c8:	40038000 	.word	0x40038000
200027cc:	20008970 	.word	0x20008970
200027d0:	05f5e100 	.word	0x05f5e100
200027d4:	20008974 	.word	0x20008974
200027d8:	20008978 	.word	0x20008978
200027dc:	2000897c 	.word	0x2000897c
200027e0:	017d7840 	.word	0x017d7840
200027e4:	20008980 	.word	0x20008980
200027e8:	20008984 	.word	0x20008984
200027ec:	20008988 	.word	0x20008988
200027f0:	20008348 	.word	0x20008348
200027f4:	000f4240 	.word	0x000f4240

200027f8 <get_rcosc_25_50mhz_frequency>:
get_rcosc_25_50mhz_frequency():
C:\Microchip\Libero_SoC_v2024.2\Designer\bin\projects\SMF2000-M3_ProjectRad\SC2021_Workspace_PRad\eNVM\Debug/../CMSIS/system_m2sxxx.c:633

/***************************************************************************//**
 * Find out frequency generated by the 25_50mhz RC osciallator.
 */
static uint32_t get_rcosc_25_50mhz_frequency(void)
{
200027f8:	b480      	push	{r7}
200027fa:	b083      	sub	sp, #12
200027fc:	af00      	add	r7, sp, #0
C:\Microchip\Libero_SoC_v2024.2\Designer\bin\projects\SMF2000-M3_ProjectRad\SC2021_Workspace_PRad\eNVM\Debug/../CMSIS/system_m2sxxx.c:637
    uint32_t rcosc_div2;
    uint32_t rcosc_frequency;

    rcosc_div2 = SYSREG->MSSDDR_PLL_STATUS & RCOSC_DIV2_MASK;
200027fe:	4b0a      	ldr	r3, [pc, #40]	; (20002828 <get_rcosc_25_50mhz_frequency+0x30>)
20002800:	f8d3 3150 	ldr.w	r3, [r3, #336]	; 0x150
20002804:	f003 0304 	and.w	r3, r3, #4
20002808:	603b      	str	r3, [r7, #0]
C:\Microchip\Libero_SoC_v2024.2\Designer\bin\projects\SMF2000-M3_ProjectRad\SC2021_Workspace_PRad\eNVM\Debug/../CMSIS/system_m2sxxx.c:638
    if(0u == rcosc_div2)
2000280a:	683b      	ldr	r3, [r7, #0]
2000280c:	2b00      	cmp	r3, #0
2000280e:	d102      	bne.n	20002816 <get_rcosc_25_50mhz_frequency+0x1e>
C:\Microchip\Libero_SoC_v2024.2\Designer\bin\projects\SMF2000-M3_ProjectRad\SC2021_Workspace_PRad\eNVM\Debug/../CMSIS/system_m2sxxx.c:641
    {
        /* 25_50mhz oscillator is configured for 25 MHz operations. */
        rcosc_frequency = FREQ_25MHZ;
20002810:	4b06      	ldr	r3, [pc, #24]	; (2000282c <get_rcosc_25_50mhz_frequency+0x34>)
20002812:	607b      	str	r3, [r7, #4]
20002814:	e001      	b.n	2000281a <get_rcosc_25_50mhz_frequency+0x22>
C:\Microchip\Libero_SoC_v2024.2\Designer\bin\projects\SMF2000-M3_ProjectRad\SC2021_Workspace_PRad\eNVM\Debug/../CMSIS/system_m2sxxx.c:646
    }
    else
    {
        /* 25_50mhz oscillator is configured for 50 MHz operations. */
        rcosc_frequency = FREQ_50MHZ;
20002816:	4b06      	ldr	r3, [pc, #24]	; (20002830 <get_rcosc_25_50mhz_frequency+0x38>)
20002818:	607b      	str	r3, [r7, #4]
C:\Microchip\Libero_SoC_v2024.2\Designer\bin\projects\SMF2000-M3_ProjectRad\SC2021_Workspace_PRad\eNVM\Debug/../CMSIS/system_m2sxxx.c:649
    }

    return rcosc_frequency;
2000281a:	687b      	ldr	r3, [r7, #4]
C:\Microchip\Libero_SoC_v2024.2\Designer\bin\projects\SMF2000-M3_ProjectRad\SC2021_Workspace_PRad\eNVM\Debug/../CMSIS/system_m2sxxx.c:650
}
2000281c:	4618      	mov	r0, r3
2000281e:	370c      	adds	r7, #12
20002820:	46bd      	mov	sp, r7
20002822:	bc80      	pop	{r7}
20002824:	4770      	bx	lr
20002826:	bf00      	nop
20002828:	40038000 	.word	0x40038000
2000282c:	017d7840 	.word	0x017d7840
20002830:	02faf080 	.word	0x02faf080

20002834 <set_clock_frequency_globals>:
set_clock_frequency_globals():
C:\Microchip\Libero_SoC_v2024.2\Designer\bin\projects\SMF2000-M3_ProjectRad\SC2021_Workspace_PRad\eNVM\Debug/../CMSIS/system_m2sxxx.c:665
        - g_FrequencyFIC0
        - g_FrequencyFIC1
        - g_FrequencyFIC64
 */
static void set_clock_frequency_globals(uint32_t standby_clk)
{
20002834:	b480      	push	{r7}
20002836:	b083      	sub	sp, #12
20002838:	af00      	add	r7, sp, #0
2000283a:	6078      	str	r0, [r7, #4]
C:\Microchip\Libero_SoC_v2024.2\Designer\bin\projects\SMF2000-M3_ProjectRad\SC2021_Workspace_PRad\eNVM\Debug/../CMSIS/system_m2sxxx.c:666
    SystemCoreClock = standby_clk;
2000283c:	4a0c      	ldr	r2, [pc, #48]	; (20002870 <set_clock_frequency_globals+0x3c>)
2000283e:	687b      	ldr	r3, [r7, #4]
20002840:	6013      	str	r3, [r2, #0]
C:\Microchip\Libero_SoC_v2024.2\Designer\bin\projects\SMF2000-M3_ProjectRad\SC2021_Workspace_PRad\eNVM\Debug/../CMSIS/system_m2sxxx.c:667
    g_FrequencyPCLK0 = standby_clk;
20002842:	4a0c      	ldr	r2, [pc, #48]	; (20002874 <set_clock_frequency_globals+0x40>)
20002844:	687b      	ldr	r3, [r7, #4]
20002846:	6013      	str	r3, [r2, #0]
C:\Microchip\Libero_SoC_v2024.2\Designer\bin\projects\SMF2000-M3_ProjectRad\SC2021_Workspace_PRad\eNVM\Debug/../CMSIS/system_m2sxxx.c:668
    g_FrequencyPCLK1 = standby_clk;
20002848:	4a0b      	ldr	r2, [pc, #44]	; (20002878 <set_clock_frequency_globals+0x44>)
2000284a:	687b      	ldr	r3, [r7, #4]
2000284c:	6013      	str	r3, [r2, #0]
C:\Microchip\Libero_SoC_v2024.2\Designer\bin\projects\SMF2000-M3_ProjectRad\SC2021_Workspace_PRad\eNVM\Debug/../CMSIS/system_m2sxxx.c:669
    g_FrequencyPCLK2 = MSS_SYS_APB_2_CLK_FREQ;
2000284e:	4b0b      	ldr	r3, [pc, #44]	; (2000287c <set_clock_frequency_globals+0x48>)
20002850:	4a0b      	ldr	r2, [pc, #44]	; (20002880 <set_clock_frequency_globals+0x4c>)
20002852:	601a      	str	r2, [r3, #0]
C:\Microchip\Libero_SoC_v2024.2\Designer\bin\projects\SMF2000-M3_ProjectRad\SC2021_Workspace_PRad\eNVM\Debug/../CMSIS/system_m2sxxx.c:670
    g_FrequencyFIC0 = standby_clk;
20002854:	4a0b      	ldr	r2, [pc, #44]	; (20002884 <set_clock_frequency_globals+0x50>)
20002856:	687b      	ldr	r3, [r7, #4]
20002858:	6013      	str	r3, [r2, #0]
C:\Microchip\Libero_SoC_v2024.2\Designer\bin\projects\SMF2000-M3_ProjectRad\SC2021_Workspace_PRad\eNVM\Debug/../CMSIS/system_m2sxxx.c:671
    g_FrequencyFIC1 = standby_clk;
2000285a:	4a0b      	ldr	r2, [pc, #44]	; (20002888 <set_clock_frequency_globals+0x54>)
2000285c:	687b      	ldr	r3, [r7, #4]
2000285e:	6013      	str	r3, [r2, #0]
C:\Microchip\Libero_SoC_v2024.2\Designer\bin\projects\SMF2000-M3_ProjectRad\SC2021_Workspace_PRad\eNVM\Debug/../CMSIS/system_m2sxxx.c:672
    g_FrequencyFIC64 = standby_clk;
20002860:	4a0a      	ldr	r2, [pc, #40]	; (2000288c <set_clock_frequency_globals+0x58>)
20002862:	687b      	ldr	r3, [r7, #4]
20002864:	6013      	str	r3, [r2, #0]
C:\Microchip\Libero_SoC_v2024.2\Designer\bin\projects\SMF2000-M3_ProjectRad\SC2021_Workspace_PRad\eNVM\Debug/../CMSIS/system_m2sxxx.c:673
}
20002866:	bf00      	nop
20002868:	370c      	adds	r7, #12
2000286a:	46bd      	mov	sp, r7
2000286c:	bc80      	pop	{r7}
2000286e:	4770      	bx	lr
20002870:	20008970 	.word	0x20008970
20002874:	20008974 	.word	0x20008974
20002878:	20008978 	.word	0x20008978
2000287c:	2000897c 	.word	0x2000897c
20002880:	017d7840 	.word	0x017d7840
20002884:	20008980 	.word	0x20008980
20002888:	20008984 	.word	0x20008984
2000288c:	20008988 	.word	0x20008988

20002890 <get_silicon_revision>:
get_silicon_revision():
C:\Microchip\Libero_SoC_v2024.2\Designer\bin\projects\SMF2000-M3_ProjectRad\SC2021_Workspace_PRad\eNVM\Debug/../CMSIS/system_m2sxxx.c:916

/*------------------------------------------------------------------------------
  Retrieve silicon revision from system registers.
 */
static uint32_t get_silicon_revision(void)
{
20002890:	b480      	push	{r7}
20002892:	b083      	sub	sp, #12
20002894:	af00      	add	r7, sp, #0
C:\Microchip\Libero_SoC_v2024.2\Designer\bin\projects\SMF2000-M3_ProjectRad\SC2021_Workspace_PRad\eNVM\Debug/../CMSIS/system_m2sxxx.c:920
    uint32_t silicon_revision;
    uint32_t device_version;

    device_version = SYSREG->DEVICE_VERSION;
20002896:	4b0e      	ldr	r3, [pc, #56]	; (200028d0 <get_silicon_revision+0x40>)
20002898:	f8d3 314c 	ldr.w	r3, [r3, #332]	; 0x14c
2000289c:	603b      	str	r3, [r7, #0]
C:\Microchip\Libero_SoC_v2024.2\Designer\bin\projects\SMF2000-M3_ProjectRad\SC2021_Workspace_PRad\eNVM\Debug/../CMSIS/system_m2sxxx.c:921
    switch(device_version)
2000289e:	683b      	ldr	r3, [r7, #0]
200028a0:	f64f 0202 	movw	r2, #63490	; 0xf802
200028a4:	4293      	cmp	r3, r2
200028a6:	d004      	beq.n	200028b2 <get_silicon_revision+0x22>
200028a8:	683b      	ldr	r3, [r7, #0]
200028aa:	4a0a      	ldr	r2, [pc, #40]	; (200028d4 <get_silicon_revision+0x44>)
200028ac:	4293      	cmp	r3, r2
200028ae:	d003      	beq.n	200028b8 <get_silicon_revision+0x28>
200028b0:	e005      	b.n	200028be <get_silicon_revision+0x2e>
C:\Microchip\Libero_SoC_v2024.2\Designer\bin\projects\SMF2000-M3_ProjectRad\SC2021_Workspace_PRad\eNVM\Debug/../CMSIS/system_m2sxxx.c:924
    {
        case 0x0000F802:
            silicon_revision = M2S050_REV_A_SILICON;
200028b2:	2301      	movs	r3, #1
200028b4:	607b      	str	r3, [r7, #4]
C:\Microchip\Libero_SoC_v2024.2\Designer\bin\projects\SMF2000-M3_ProjectRad\SC2021_Workspace_PRad\eNVM\Debug/../CMSIS/system_m2sxxx.c:925
            break;
200028b6:	e005      	b.n	200028c4 <get_silicon_revision+0x34>
C:\Microchip\Libero_SoC_v2024.2\Designer\bin\projects\SMF2000-M3_ProjectRad\SC2021_Workspace_PRad\eNVM\Debug/../CMSIS/system_m2sxxx.c:928

        case 0x0001F802:
            silicon_revision = M2S050_REV_B_SILICON;
200028b8:	2302      	movs	r3, #2
200028ba:	607b      	str	r3, [r7, #4]
C:\Microchip\Libero_SoC_v2024.2\Designer\bin\projects\SMF2000-M3_ProjectRad\SC2021_Workspace_PRad\eNVM\Debug/../CMSIS/system_m2sxxx.c:929
            break;
200028bc:	e002      	b.n	200028c4 <get_silicon_revision+0x34>
C:\Microchip\Libero_SoC_v2024.2\Designer\bin\projects\SMF2000-M3_ProjectRad\SC2021_Workspace_PRad\eNVM\Debug/../CMSIS/system_m2sxxx.c:932

        default:
            silicon_revision = UNKNOWN_SILICON_REV;
200028be:	2300      	movs	r3, #0
200028c0:	607b      	str	r3, [r7, #4]
C:\Microchip\Libero_SoC_v2024.2\Designer\bin\projects\SMF2000-M3_ProjectRad\SC2021_Workspace_PRad\eNVM\Debug/../CMSIS/system_m2sxxx.c:933
            break;
200028c2:	bf00      	nop
C:\Microchip\Libero_SoC_v2024.2\Designer\bin\projects\SMF2000-M3_ProjectRad\SC2021_Workspace_PRad\eNVM\Debug/../CMSIS/system_m2sxxx.c:936
    }

    return silicon_revision;
200028c4:	687b      	ldr	r3, [r7, #4]
C:\Microchip\Libero_SoC_v2024.2\Designer\bin\projects\SMF2000-M3_ProjectRad\SC2021_Workspace_PRad\eNVM\Debug/../CMSIS/system_m2sxxx.c:937
}
200028c6:	4618      	mov	r0, r3
200028c8:	370c      	adds	r7, #12
200028ca:	46bd      	mov	sp, r7
200028cc:	bc80      	pop	{r7}
200028ce:	4770      	bx	lr
200028d0:	40038000 	.word	0x40038000
200028d4:	0001f802 	.word	0x0001f802

200028d8 <silicon_workarounds>:
silicon_workarounds():
C:\Microchip\Libero_SoC_v2024.2\Designer\bin\projects\SMF2000-M3_ProjectRad\SC2021_Workspace_PRad\eNVM\Debug/../CMSIS/system_m2sxxx.c:943

/*------------------------------------------------------------------------------
  Workarounds for various silicon versions.
 */
static void silicon_workarounds(void)
{
200028d8:	b580      	push	{r7, lr}
200028da:	b082      	sub	sp, #8
200028dc:	af00      	add	r7, sp, #0
C:\Microchip\Libero_SoC_v2024.2\Designer\bin\projects\SMF2000-M3_ProjectRad\SC2021_Workspace_PRad\eNVM\Debug/../CMSIS/system_m2sxxx.c:946
    uint32_t silicon_revision;

    silicon_revision = get_silicon_revision();
200028de:	f7ff ffd7 	bl	20002890 <get_silicon_revision>
200028e2:	6078      	str	r0, [r7, #4]
C:\Microchip\Libero_SoC_v2024.2\Designer\bin\projects\SMF2000-M3_ProjectRad\SC2021_Workspace_PRad\eNVM\Debug/../CMSIS/system_m2sxxx.c:948

    switch(silicon_revision)
200028e4:	687b      	ldr	r3, [r7, #4]
200028e6:	2b01      	cmp	r3, #1
200028e8:	d102      	bne.n	200028f0 <silicon_workarounds+0x18>
C:\Microchip\Libero_SoC_v2024.2\Designer\bin\projects\SMF2000-M3_ProjectRad\SC2021_Workspace_PRad\eNVM\Debug/../CMSIS/system_m2sxxx.c:951
    {
        case M2S050_REV_A_SILICON:
            m2s050_rev_a_workarounds();
200028ea:	f000 f807 	bl	200028fc <m2s050_rev_a_workarounds>
C:\Microchip\Libero_SoC_v2024.2\Designer\bin\projects\SMF2000-M3_ProjectRad\SC2021_Workspace_PRad\eNVM\Debug/../CMSIS/system_m2sxxx.c:952
            break;
200028ee:	e000      	b.n	200028f2 <silicon_workarounds+0x1a>
C:\Microchip\Libero_SoC_v2024.2\Designer\bin\projects\SMF2000-M3_ProjectRad\SC2021_Workspace_PRad\eNVM\Debug/../CMSIS/system_m2sxxx.c:959
        case M2S050_REV_B_SILICON:
            /* Fall through. */
        case UNKNOWN_SILICON_REV:
            /* Fall through. */
        default:
            break;
200028f0:	bf00      	nop
C:\Microchip\Libero_SoC_v2024.2\Designer\bin\projects\SMF2000-M3_ProjectRad\SC2021_Workspace_PRad\eNVM\Debug/../CMSIS/system_m2sxxx.c:961
    }
}
200028f2:	bf00      	nop
200028f4:	3708      	adds	r7, #8
200028f6:	46bd      	mov	sp, r7
200028f8:	bd80      	pop	{r7, pc}
	...

200028fc <m2s050_rev_a_workarounds>:
m2s050_rev_a_workarounds():
C:\Microchip\Libero_SoC_v2024.2\Designer\bin\projects\SMF2000-M3_ProjectRad\SC2021_Workspace_PRad\eNVM\Debug/../CMSIS/system_m2sxxx.c:967

/*------------------------------------------------------------------------------
  Silicon workarounds for M2S050 rev A.
 */
static void m2s050_rev_a_workarounds(void)
{
200028fc:	b480      	push	{r7}
200028fe:	af00      	add	r7, sp, #0
C:\Microchip\Libero_SoC_v2024.2\Designer\bin\projects\SMF2000-M3_ProjectRad\SC2021_Workspace_PRad\eNVM\Debug/../CMSIS/system_m2sxxx.c:972
    /*--------------------------------------------------------------------------
     * Work around a couple of silicon issues:
     */
    /* DDR_CLK_EN <- 1 */
    SYSREG->MSSDDR_FACC1_CR |= (uint32_t)1 << DDR_CLK_EN_SHIFT;
20002900:	4b09      	ldr	r3, [pc, #36]	; (20002928 <m2s050_rev_a_workarounds+0x2c>)
20002902:	f8d3 3098 	ldr.w	r3, [r3, #152]	; 0x98
20002906:	4a08      	ldr	r2, [pc, #32]	; (20002928 <m2s050_rev_a_workarounds+0x2c>)
20002908:	f443 7380 	orr.w	r3, r3, #256	; 0x100
2000290c:	f8c2 3098 	str.w	r3, [r2, #152]	; 0x98
C:\Microchip\Libero_SoC_v2024.2\Designer\bin\projects\SMF2000-M3_ProjectRad\SC2021_Workspace_PRad\eNVM\Debug/../CMSIS/system_m2sxxx.c:975

    /* CONTROLLER_PLL_INIT <- 0 */
    SYSREG->MSSDDR_FACC1_CR = SYSREG->MSSDDR_FACC1_CR & ~CONTROLLER_PLL_INIT_MASK;
20002910:	4b05      	ldr	r3, [pc, #20]	; (20002928 <m2s050_rev_a_workarounds+0x2c>)
20002912:	f8d3 3098 	ldr.w	r3, [r3, #152]	; 0x98
20002916:	4a04      	ldr	r2, [pc, #16]	; (20002928 <m2s050_rev_a_workarounds+0x2c>)
20002918:	f023 6380 	bic.w	r3, r3, #67108864	; 0x4000000
2000291c:	f8c2 3098 	str.w	r3, [r2, #152]	; 0x98
C:\Microchip\Libero_SoC_v2024.2\Designer\bin\projects\SMF2000-M3_ProjectRad\SC2021_Workspace_PRad\eNVM\Debug/../CMSIS/system_m2sxxx.c:976
}
20002920:	bf00      	nop
20002922:	46bd      	mov	sp, r7
20002924:	bc80      	pop	{r7}
20002926:	4770      	bx	lr
20002928:	40038000 	.word	0x40038000

2000292c <init_RealTimeCounter>:
init_RealTimeCounter():
C:\Microchip\Libero_SoC_v2024.2\Designer\bin\projects\SMF2000-M3_ProjectRad\SC2021_Workspace_PRad\eNVM\Debug/../main.c:74
    uint8_t cycleCounter;

} rtcOverflow = { 0, 0, 0, 0, 0, 0 };

// Initialize the RTC for an ISR period of 0.5 second.
void init_RealTimeCounter (void) {
2000292c:	b580      	push	{r7, lr}
2000292e:	af00      	add	r7, sp, #0
C:\Microchip\Libero_SoC_v2024.2\Designer\bin\projects\SMF2000-M3_ProjectRad\SC2021_Workspace_PRad\eNVM\Debug/../main.c:75
    MSS_RTC_init (MSS_RTC_BINARY_MODE, HALF_A_SECOND - 1u);
20002930:	f643 71ff 	movw	r1, #16383	; 0x3fff
20002934:	2000      	movs	r0, #0
20002936:	f7fe fd43 	bl	200013c0 <MSS_RTC_init>
C:\Microchip\Libero_SoC_v2024.2\Designer\bin\projects\SMF2000-M3_ProjectRad\SC2021_Workspace_PRad\eNVM\Debug/../main.c:76
    MSS_RTC_start();
2000293a:	f7fe fdf1 	bl	20001520 <MSS_RTC_start>
C:\Microchip\Libero_SoC_v2024.2\Designer\bin\projects\SMF2000-M3_ProjectRad\SC2021_Workspace_PRad\eNVM\Debug/../main.c:77
    MSS_RTC_set_binary_count_alarm (1, MSS_RTC_PERIODIC_ALARM);
2000293e:	2201      	movs	r2, #1
20002940:	f04f 0001 	mov.w	r0, #1
20002944:	f04f 0100 	mov.w	r1, #0
20002948:	f7fe fda4 	bl	20001494 <MSS_RTC_set_binary_count_alarm>
C:\Microchip\Libero_SoC_v2024.2\Designer\bin\projects\SMF2000-M3_ProjectRad\SC2021_Workspace_PRad\eNVM\Debug/../main.c:78
    MSS_RTC_enable_irq();
2000294c:	f7fe fe20 	bl	20001590 <MSS_RTC_enable_irq>
C:\Microchip\Libero_SoC_v2024.2\Designer\bin\projects\SMF2000-M3_ProjectRad\SC2021_Workspace_PRad\eNVM\Debug/../main.c:79
}
20002950:	bf00      	nop
20002952:	bd80      	pop	{r7, pc}

20002954 <RTC_Wakeup_IRQHandler>:
RTC_Wakeup_IRQHandler():
C:\Microchip\Libero_SoC_v2024.2\Designer\bin\projects\SMF2000-M3_ProjectRad\SC2021_Workspace_PRad\eNVM\Debug/../main.c:82

// Called every 0.5 seconds, advances the RTC clock.
void RTC_Wakeup_IRQHandler (void) {
20002954:	b580      	push	{r7, lr}
20002956:	b082      	sub	sp, #8
20002958:	af00      	add	r7, sp, #0
C:\Microchip\Libero_SoC_v2024.2\Designer\bin\projects\SMF2000-M3_ProjectRad\SC2021_Workspace_PRad\eNVM\Debug/../main.c:84

    MSS_RTC_clear_irq();
2000295a:	f7fe fe27 	bl	200015ac <MSS_RTC_clear_irq>
C:\Microchip\Libero_SoC_v2024.2\Designer\bin\projects\SMF2000-M3_ProjectRad\SC2021_Workspace_PRad\eNVM\Debug/../main.c:85
    rtcOverflow.cycleCounter++;
2000295e:	4b21      	ldr	r3, [pc, #132]	; (200029e4 <RTC_Wakeup_IRQHandler+0x90>)
20002960:	795b      	ldrb	r3, [r3, #5]
20002962:	3301      	adds	r3, #1
20002964:	b2da      	uxtb	r2, r3
20002966:	4b1f      	ldr	r3, [pc, #124]	; (200029e4 <RTC_Wakeup_IRQHandler+0x90>)
20002968:	715a      	strb	r2, [r3, #5]
C:\Microchip\Libero_SoC_v2024.2\Designer\bin\projects\SMF2000-M3_ProjectRad\SC2021_Workspace_PRad\eNVM\Debug/../main.c:89

    // Update RTC time ------------------------------------
    uint8_t tmp;
    tmp = ++rtcOverflow.subSecond;
2000296a:	4b1e      	ldr	r3, [pc, #120]	; (200029e4 <RTC_Wakeup_IRQHandler+0x90>)
2000296c:	781b      	ldrb	r3, [r3, #0]
2000296e:	3301      	adds	r3, #1
20002970:	b2da      	uxtb	r2, r3
20002972:	4b1c      	ldr	r3, [pc, #112]	; (200029e4 <RTC_Wakeup_IRQHandler+0x90>)
20002974:	701a      	strb	r2, [r3, #0]
20002976:	4b1b      	ldr	r3, [pc, #108]	; (200029e4 <RTC_Wakeup_IRQHandler+0x90>)
20002978:	781b      	ldrb	r3, [r3, #0]
2000297a:	71fb      	strb	r3, [r7, #7]
C:\Microchip\Libero_SoC_v2024.2\Designer\bin\projects\SMF2000-M3_ProjectRad\SC2021_Workspace_PRad\eNVM\Debug/../main.c:90
    if (tmp > TICKS_MINUTE - 1) {
2000297c:	79fb      	ldrb	r3, [r7, #7]
2000297e:	2b77      	cmp	r3, #119	; 0x77
20002980:	d926      	bls.n	200029d0 <RTC_Wakeup_IRQHandler+0x7c>
C:\Microchip\Libero_SoC_v2024.2\Designer\bin\projects\SMF2000-M3_ProjectRad\SC2021_Workspace_PRad\eNVM\Debug/../main.c:91
        rtcOverflow.subSecond = 0;
20002982:	4b18      	ldr	r3, [pc, #96]	; (200029e4 <RTC_Wakeup_IRQHandler+0x90>)
20002984:	2200      	movs	r2, #0
20002986:	701a      	strb	r2, [r3, #0]
C:\Microchip\Libero_SoC_v2024.2\Designer\bin\projects\SMF2000-M3_ProjectRad\SC2021_Workspace_PRad\eNVM\Debug/../main.c:92
        rtcOverflow.second = 0;
20002988:	4b16      	ldr	r3, [pc, #88]	; (200029e4 <RTC_Wakeup_IRQHandler+0x90>)
2000298a:	2200      	movs	r2, #0
2000298c:	705a      	strb	r2, [r3, #1]
C:\Microchip\Libero_SoC_v2024.2\Designer\bin\projects\SMF2000-M3_ProjectRad\SC2021_Workspace_PRad\eNVM\Debug/../main.c:93
        rtcOverflow.minute++;
2000298e:	4b15      	ldr	r3, [pc, #84]	; (200029e4 <RTC_Wakeup_IRQHandler+0x90>)
20002990:	789b      	ldrb	r3, [r3, #2]
20002992:	3301      	adds	r3, #1
20002994:	b2da      	uxtb	r2, r3
20002996:	4b13      	ldr	r3, [pc, #76]	; (200029e4 <RTC_Wakeup_IRQHandler+0x90>)
20002998:	709a      	strb	r2, [r3, #2]
C:\Microchip\Libero_SoC_v2024.2\Designer\bin\projects\SMF2000-M3_ProjectRad\SC2021_Workspace_PRad\eNVM\Debug/../main.c:95

        if (rtcOverflow.minute > 59) {
2000299a:	4b12      	ldr	r3, [pc, #72]	; (200029e4 <RTC_Wakeup_IRQHandler+0x90>)
2000299c:	789b      	ldrb	r3, [r3, #2]
2000299e:	2b3b      	cmp	r3, #59	; 0x3b
200029a0:	d91b      	bls.n	200029da <RTC_Wakeup_IRQHandler+0x86>
C:\Microchip\Libero_SoC_v2024.2\Designer\bin\projects\SMF2000-M3_ProjectRad\SC2021_Workspace_PRad\eNVM\Debug/../main.c:96
            rtcOverflow.minute = 0;
200029a2:	4b10      	ldr	r3, [pc, #64]	; (200029e4 <RTC_Wakeup_IRQHandler+0x90>)
200029a4:	2200      	movs	r2, #0
200029a6:	709a      	strb	r2, [r3, #2]
C:\Microchip\Libero_SoC_v2024.2\Designer\bin\projects\SMF2000-M3_ProjectRad\SC2021_Workspace_PRad\eNVM\Debug/../main.c:97
            rtcOverflow.hour++;
200029a8:	4b0e      	ldr	r3, [pc, #56]	; (200029e4 <RTC_Wakeup_IRQHandler+0x90>)
200029aa:	78db      	ldrb	r3, [r3, #3]
200029ac:	3301      	adds	r3, #1
200029ae:	b2da      	uxtb	r2, r3
200029b0:	4b0c      	ldr	r3, [pc, #48]	; (200029e4 <RTC_Wakeup_IRQHandler+0x90>)
200029b2:	70da      	strb	r2, [r3, #3]
C:\Microchip\Libero_SoC_v2024.2\Designer\bin\projects\SMF2000-M3_ProjectRad\SC2021_Workspace_PRad\eNVM\Debug/../main.c:99

            if (rtcOverflow.hour > 23) {
200029b4:	4b0b      	ldr	r3, [pc, #44]	; (200029e4 <RTC_Wakeup_IRQHandler+0x90>)
200029b6:	78db      	ldrb	r3, [r3, #3]
200029b8:	2b17      	cmp	r3, #23
200029ba:	d90e      	bls.n	200029da <RTC_Wakeup_IRQHandler+0x86>
C:\Microchip\Libero_SoC_v2024.2\Designer\bin\projects\SMF2000-M3_ProjectRad\SC2021_Workspace_PRad\eNVM\Debug/../main.c:100
                rtcOverflow.hour = 0;
200029bc:	4b09      	ldr	r3, [pc, #36]	; (200029e4 <RTC_Wakeup_IRQHandler+0x90>)
200029be:	2200      	movs	r2, #0
200029c0:	70da      	strb	r2, [r3, #3]
C:\Microchip\Libero_SoC_v2024.2\Designer\bin\projects\SMF2000-M3_ProjectRad\SC2021_Workspace_PRad\eNVM\Debug/../main.c:101
                rtcOverflow.day++;
200029c2:	4b08      	ldr	r3, [pc, #32]	; (200029e4 <RTC_Wakeup_IRQHandler+0x90>)
200029c4:	791b      	ldrb	r3, [r3, #4]
200029c6:	3301      	adds	r3, #1
200029c8:	b2da      	uxtb	r2, r3
200029ca:	4b06      	ldr	r3, [pc, #24]	; (200029e4 <RTC_Wakeup_IRQHandler+0x90>)
200029cc:	711a      	strb	r2, [r3, #4]
C:\Microchip\Libero_SoC_v2024.2\Designer\bin\projects\SMF2000-M3_ProjectRad\SC2021_Workspace_PRad\eNVM\Debug/../main.c:107
            }
        }
    } else {
        rtcOverflow.second = tmp / 2;
    }
}
200029ce:	e004      	b.n	200029da <RTC_Wakeup_IRQHandler+0x86>
C:\Microchip\Libero_SoC_v2024.2\Designer\bin\projects\SMF2000-M3_ProjectRad\SC2021_Workspace_PRad\eNVM\Debug/../main.c:105
        rtcOverflow.second = tmp / 2;
200029d0:	79fb      	ldrb	r3, [r7, #7]
200029d2:	085b      	lsrs	r3, r3, #1
200029d4:	b2da      	uxtb	r2, r3
200029d6:	4b03      	ldr	r3, [pc, #12]	; (200029e4 <RTC_Wakeup_IRQHandler+0x90>)
200029d8:	705a      	strb	r2, [r3, #1]
C:\Microchip\Libero_SoC_v2024.2\Designer\bin\projects\SMF2000-M3_ProjectRad\SC2021_Workspace_PRad\eNVM\Debug/../main.c:107
}
200029da:	bf00      	nop
200029dc:	3708      	adds	r7, #8
200029de:	46bd      	mov	sp, r7
200029e0:	bd80      	pop	{r7, pc}
200029e2:	bf00      	nop
200029e4:	200093b0 	.word	0x200093b0

200029e8 <erase_nvm>:
erase_nvm():
C:\Microchip\Libero_SoC_v2024.2\Designer\bin\projects\SMF2000-M3_ProjectRad\SC2021_Workspace_PRad\eNVM\Debug/../main.c:109

void erase_nvm(mss_uart_instance_t * this_uart){
200029e8:	b580      	push	{r7, lr}
200029ea:	b0a4      	sub	sp, #144	; 0x90
200029ec:	af00      	add	r7, sp, #0
200029ee:	6078      	str	r0, [r7, #4]
C:\Microchip\Libero_SoC_v2024.2\Designer\bin\projects\SMF2000-M3_ProjectRad\SC2021_Workspace_PRad\eNVM\Debug/../main.c:110
    uint8_t pattern[NVM_PAGE_SIZE] = {[0 ... (NVM_PAGE_SIZE-1)] = 0x00};
200029f0:	4a17      	ldr	r2, [pc, #92]	; (20002a50 <erase_nvm+0x68>)
200029f2:	f107 030c 	add.w	r3, r7, #12
200029f6:	4611      	mov	r1, r2
200029f8:	2280      	movs	r2, #128	; 0x80
200029fa:	4618      	mov	r0, r3
200029fc:	f000 fef0 	bl	200037e0 <memcpy>
C:\Microchip\Libero_SoC_v2024.2\Designer\bin\projects\SMF2000-M3_ProjectRad\SC2021_Workspace_PRad\eNVM\Debug/../main.c:111
    RTC_TIMESTAMP(&g_mss_uart0);
20002a00:	4814      	ldr	r0, [pc, #80]	; (20002a54 <erase_nvm+0x6c>)
20002a02:	f000 fbd9 	bl	200031b8 <RTC_TIMESTAMP>
C:\Microchip\Libero_SoC_v2024.2\Designer\bin\projects\SMF2000-M3_ProjectRad\SC2021_Workspace_PRad\eNVM\Debug/../main.c:112
    for (uint32_t i = 0;i<LIMIT;i=i+1)
20002a06:	2300      	movs	r3, #0
20002a08:	f8c7 308c 	str.w	r3, [r7, #140]	; 0x8c
20002a0c:	e010      	b.n	20002a30 <erase_nvm+0x48>
C:\Microchip\Libero_SoC_v2024.2\Designer\bin\projects\SMF2000-M3_ProjectRad\SC2021_Workspace_PRad\eNVM\Debug/../main.c:114 (discriminator 3)
    {
        NVM_write(NVM_ADDR + (i*NVM_PAGE_SIZE), pattern, sizeof(pattern), NVM_DO_NOT_LOCK_PAGE);
20002a0e:	f8d7 308c 	ldr.w	r3, [r7, #140]	; 0x8c
20002a12:	f503 0340 	add.w	r3, r3, #12582912	; 0xc00000
20002a16:	3340      	adds	r3, #64	; 0x40
20002a18:	01d8      	lsls	r0, r3, #7
20002a1a:	f107 010c 	add.w	r1, r7, #12
20002a1e:	2300      	movs	r3, #0
20002a20:	2280      	movs	r2, #128	; 0x80
20002a22:	f7fe fdd7 	bl	200015d4 <NVM_write>
C:\Microchip\Libero_SoC_v2024.2\Designer\bin\projects\SMF2000-M3_ProjectRad\SC2021_Workspace_PRad\eNVM\Debug/../main.c:112 (discriminator 3)
    for (uint32_t i = 0;i<LIMIT;i=i+1)
20002a26:	f8d7 308c 	ldr.w	r3, [r7, #140]	; 0x8c
20002a2a:	3301      	adds	r3, #1
20002a2c:	f8c7 308c 	str.w	r3, [r7, #140]	; 0x8c
C:\Microchip\Libero_SoC_v2024.2\Designer\bin\projects\SMF2000-M3_ProjectRad\SC2021_Workspace_PRad\eNVM\Debug/../main.c:112 (discriminator 1)
20002a30:	f8d7 308c 	ldr.w	r3, [r7, #140]	; 0x8c
20002a34:	f5b3 7ffa 	cmp.w	r3, #500	; 0x1f4
20002a38:	d3e9      	bcc.n	20002a0e <erase_nvm+0x26>
C:\Microchip\Libero_SoC_v2024.2\Designer\bin\projects\SMF2000-M3_ProjectRad\SC2021_Workspace_PRad\eNVM\Debug/../main.c:116
    }
    RTC_TIMESTAMP(&g_mss_uart0);
20002a3a:	4806      	ldr	r0, [pc, #24]	; (20002a54 <erase_nvm+0x6c>)
20002a3c:	f000 fbbc 	bl	200031b8 <RTC_TIMESTAMP>
C:\Microchip\Libero_SoC_v2024.2\Designer\bin\projects\SMF2000-M3_ProjectRad\SC2021_Workspace_PRad\eNVM\Debug/../main.c:117
    MSS_UART_polled_tx_string(&g_mss_uart0,(const uint8_t*)"\n\r**********************************************************************\n\r");
20002a40:	4905      	ldr	r1, [pc, #20]	; (20002a58 <erase_nvm+0x70>)
20002a42:	4804      	ldr	r0, [pc, #16]	; (20002a54 <erase_nvm+0x6c>)
20002a44:	f7fd fdfc 	bl	20000640 <MSS_UART_polled_tx_string>
C:\Microchip\Libero_SoC_v2024.2\Designer\bin\projects\SMF2000-M3_ProjectRad\SC2021_Workspace_PRad\eNVM\Debug/../main.c:118
}
20002a48:	bf00      	nop
20002a4a:	3790      	adds	r7, #144	; 0x90
20002a4c:	46bd      	mov	sp, r7
20002a4e:	bd80      	pop	{r7, pc}
20002a50:	2000839c 	.word	0x2000839c
20002a54:	2000942c 	.word	0x2000942c
20002a58:	20008350 	.word	0x20008350

20002a5c <write_nvm>:
write_nvm():
C:\Microchip\Libero_SoC_v2024.2\Designer\bin\projects\SMF2000-M3_ProjectRad\SC2021_Workspace_PRad\eNVM\Debug/../main.c:120

void write_nvm(mss_uart_instance_t * this_uart, uint8_t num_x){
20002a5c:	b580      	push	{r7, lr}
20002a5e:	b0a4      	sub	sp, #144	; 0x90
20002a60:	af00      	add	r7, sp, #0
20002a62:	6078      	str	r0, [r7, #4]
20002a64:	460b      	mov	r3, r1
20002a66:	70fb      	strb	r3, [r7, #3]
C:\Microchip\Libero_SoC_v2024.2\Designer\bin\projects\SMF2000-M3_ProjectRad\SC2021_Workspace_PRad\eNVM\Debug/../main.c:121
    uint8_t pattern[NVM_PAGE_SIZE] = {[0 ... (NVM_PAGE_SIZE-1)] = num_x};
20002a68:	78fb      	ldrb	r3, [r7, #3]
20002a6a:	461a      	mov	r2, r3
20002a6c:	733a      	strb	r2, [r7, #12]
20002a6e:	461a      	mov	r2, r3
20002a70:	737a      	strb	r2, [r7, #13]
20002a72:	461a      	mov	r2, r3
20002a74:	73ba      	strb	r2, [r7, #14]
20002a76:	461a      	mov	r2, r3
20002a78:	73fa      	strb	r2, [r7, #15]
20002a7a:	461a      	mov	r2, r3
20002a7c:	743a      	strb	r2, [r7, #16]
20002a7e:	461a      	mov	r2, r3
20002a80:	747a      	strb	r2, [r7, #17]
20002a82:	461a      	mov	r2, r3
20002a84:	74ba      	strb	r2, [r7, #18]
20002a86:	461a      	mov	r2, r3
20002a88:	74fa      	strb	r2, [r7, #19]
20002a8a:	461a      	mov	r2, r3
20002a8c:	753a      	strb	r2, [r7, #20]
20002a8e:	461a      	mov	r2, r3
20002a90:	757a      	strb	r2, [r7, #21]
20002a92:	461a      	mov	r2, r3
20002a94:	75ba      	strb	r2, [r7, #22]
20002a96:	461a      	mov	r2, r3
20002a98:	75fa      	strb	r2, [r7, #23]
20002a9a:	461a      	mov	r2, r3
20002a9c:	763a      	strb	r2, [r7, #24]
20002a9e:	461a      	mov	r2, r3
20002aa0:	767a      	strb	r2, [r7, #25]
20002aa2:	461a      	mov	r2, r3
20002aa4:	76ba      	strb	r2, [r7, #26]
20002aa6:	461a      	mov	r2, r3
20002aa8:	76fa      	strb	r2, [r7, #27]
20002aaa:	461a      	mov	r2, r3
20002aac:	773a      	strb	r2, [r7, #28]
20002aae:	461a      	mov	r2, r3
20002ab0:	777a      	strb	r2, [r7, #29]
20002ab2:	461a      	mov	r2, r3
20002ab4:	77ba      	strb	r2, [r7, #30]
20002ab6:	461a      	mov	r2, r3
20002ab8:	77fa      	strb	r2, [r7, #31]
20002aba:	461a      	mov	r2, r3
20002abc:	f887 2020 	strb.w	r2, [r7, #32]
20002ac0:	461a      	mov	r2, r3
20002ac2:	f887 2021 	strb.w	r2, [r7, #33]	; 0x21
20002ac6:	461a      	mov	r2, r3
20002ac8:	f887 2022 	strb.w	r2, [r7, #34]	; 0x22
20002acc:	461a      	mov	r2, r3
20002ace:	f887 2023 	strb.w	r2, [r7, #35]	; 0x23
20002ad2:	461a      	mov	r2, r3
20002ad4:	f887 2024 	strb.w	r2, [r7, #36]	; 0x24
20002ad8:	461a      	mov	r2, r3
20002ada:	f887 2025 	strb.w	r2, [r7, #37]	; 0x25
20002ade:	461a      	mov	r2, r3
20002ae0:	f887 2026 	strb.w	r2, [r7, #38]	; 0x26
20002ae4:	461a      	mov	r2, r3
20002ae6:	f887 2027 	strb.w	r2, [r7, #39]	; 0x27
20002aea:	461a      	mov	r2, r3
20002aec:	f887 2028 	strb.w	r2, [r7, #40]	; 0x28
20002af0:	461a      	mov	r2, r3
20002af2:	f887 2029 	strb.w	r2, [r7, #41]	; 0x29
20002af6:	461a      	mov	r2, r3
20002af8:	f887 202a 	strb.w	r2, [r7, #42]	; 0x2a
20002afc:	461a      	mov	r2, r3
20002afe:	f887 202b 	strb.w	r2, [r7, #43]	; 0x2b
20002b02:	461a      	mov	r2, r3
20002b04:	f887 202c 	strb.w	r2, [r7, #44]	; 0x2c
20002b08:	461a      	mov	r2, r3
20002b0a:	f887 202d 	strb.w	r2, [r7, #45]	; 0x2d
20002b0e:	461a      	mov	r2, r3
20002b10:	f887 202e 	strb.w	r2, [r7, #46]	; 0x2e
20002b14:	461a      	mov	r2, r3
20002b16:	f887 202f 	strb.w	r2, [r7, #47]	; 0x2f
20002b1a:	461a      	mov	r2, r3
20002b1c:	f887 2030 	strb.w	r2, [r7, #48]	; 0x30
20002b20:	461a      	mov	r2, r3
20002b22:	f887 2031 	strb.w	r2, [r7, #49]	; 0x31
20002b26:	461a      	mov	r2, r3
20002b28:	f887 2032 	strb.w	r2, [r7, #50]	; 0x32
20002b2c:	461a      	mov	r2, r3
20002b2e:	f887 2033 	strb.w	r2, [r7, #51]	; 0x33
20002b32:	461a      	mov	r2, r3
20002b34:	f887 2034 	strb.w	r2, [r7, #52]	; 0x34
20002b38:	461a      	mov	r2, r3
20002b3a:	f887 2035 	strb.w	r2, [r7, #53]	; 0x35
20002b3e:	461a      	mov	r2, r3
20002b40:	f887 2036 	strb.w	r2, [r7, #54]	; 0x36
20002b44:	461a      	mov	r2, r3
20002b46:	f887 2037 	strb.w	r2, [r7, #55]	; 0x37
20002b4a:	461a      	mov	r2, r3
20002b4c:	f887 2038 	strb.w	r2, [r7, #56]	; 0x38
20002b50:	461a      	mov	r2, r3
20002b52:	f887 2039 	strb.w	r2, [r7, #57]	; 0x39
20002b56:	461a      	mov	r2, r3
20002b58:	f887 203a 	strb.w	r2, [r7, #58]	; 0x3a
20002b5c:	461a      	mov	r2, r3
20002b5e:	f887 203b 	strb.w	r2, [r7, #59]	; 0x3b
20002b62:	461a      	mov	r2, r3
20002b64:	f887 203c 	strb.w	r2, [r7, #60]	; 0x3c
20002b68:	461a      	mov	r2, r3
20002b6a:	f887 203d 	strb.w	r2, [r7, #61]	; 0x3d
20002b6e:	461a      	mov	r2, r3
20002b70:	f887 203e 	strb.w	r2, [r7, #62]	; 0x3e
20002b74:	461a      	mov	r2, r3
20002b76:	f887 203f 	strb.w	r2, [r7, #63]	; 0x3f
20002b7a:	461a      	mov	r2, r3
20002b7c:	f887 2040 	strb.w	r2, [r7, #64]	; 0x40
20002b80:	461a      	mov	r2, r3
20002b82:	f887 2041 	strb.w	r2, [r7, #65]	; 0x41
20002b86:	461a      	mov	r2, r3
20002b88:	f887 2042 	strb.w	r2, [r7, #66]	; 0x42
20002b8c:	461a      	mov	r2, r3
20002b8e:	f887 2043 	strb.w	r2, [r7, #67]	; 0x43
20002b92:	461a      	mov	r2, r3
20002b94:	f887 2044 	strb.w	r2, [r7, #68]	; 0x44
20002b98:	461a      	mov	r2, r3
20002b9a:	f887 2045 	strb.w	r2, [r7, #69]	; 0x45
20002b9e:	461a      	mov	r2, r3
20002ba0:	f887 2046 	strb.w	r2, [r7, #70]	; 0x46
20002ba4:	461a      	mov	r2, r3
20002ba6:	f887 2047 	strb.w	r2, [r7, #71]	; 0x47
20002baa:	461a      	mov	r2, r3
20002bac:	f887 2048 	strb.w	r2, [r7, #72]	; 0x48
20002bb0:	461a      	mov	r2, r3
20002bb2:	f887 2049 	strb.w	r2, [r7, #73]	; 0x49
20002bb6:	461a      	mov	r2, r3
20002bb8:	f887 204a 	strb.w	r2, [r7, #74]	; 0x4a
20002bbc:	461a      	mov	r2, r3
20002bbe:	f887 204b 	strb.w	r2, [r7, #75]	; 0x4b
20002bc2:	461a      	mov	r2, r3
20002bc4:	f887 204c 	strb.w	r2, [r7, #76]	; 0x4c
20002bc8:	461a      	mov	r2, r3
20002bca:	f887 204d 	strb.w	r2, [r7, #77]	; 0x4d
20002bce:	461a      	mov	r2, r3
20002bd0:	f887 204e 	strb.w	r2, [r7, #78]	; 0x4e
20002bd4:	461a      	mov	r2, r3
20002bd6:	f887 204f 	strb.w	r2, [r7, #79]	; 0x4f
20002bda:	461a      	mov	r2, r3
20002bdc:	f887 2050 	strb.w	r2, [r7, #80]	; 0x50
20002be0:	461a      	mov	r2, r3
20002be2:	f887 2051 	strb.w	r2, [r7, #81]	; 0x51
20002be6:	461a      	mov	r2, r3
20002be8:	f887 2052 	strb.w	r2, [r7, #82]	; 0x52
20002bec:	461a      	mov	r2, r3
20002bee:	f887 2053 	strb.w	r2, [r7, #83]	; 0x53
20002bf2:	461a      	mov	r2, r3
20002bf4:	f887 2054 	strb.w	r2, [r7, #84]	; 0x54
20002bf8:	461a      	mov	r2, r3
20002bfa:	f887 2055 	strb.w	r2, [r7, #85]	; 0x55
20002bfe:	461a      	mov	r2, r3
20002c00:	f887 2056 	strb.w	r2, [r7, #86]	; 0x56
20002c04:	461a      	mov	r2, r3
20002c06:	f887 2057 	strb.w	r2, [r7, #87]	; 0x57
20002c0a:	461a      	mov	r2, r3
20002c0c:	f887 2058 	strb.w	r2, [r7, #88]	; 0x58
20002c10:	461a      	mov	r2, r3
20002c12:	f887 2059 	strb.w	r2, [r7, #89]	; 0x59
20002c16:	461a      	mov	r2, r3
20002c18:	f887 205a 	strb.w	r2, [r7, #90]	; 0x5a
20002c1c:	461a      	mov	r2, r3
20002c1e:	f887 205b 	strb.w	r2, [r7, #91]	; 0x5b
20002c22:	461a      	mov	r2, r3
20002c24:	f887 205c 	strb.w	r2, [r7, #92]	; 0x5c
20002c28:	461a      	mov	r2, r3
20002c2a:	f887 205d 	strb.w	r2, [r7, #93]	; 0x5d
20002c2e:	461a      	mov	r2, r3
20002c30:	f887 205e 	strb.w	r2, [r7, #94]	; 0x5e
20002c34:	461a      	mov	r2, r3
20002c36:	f887 205f 	strb.w	r2, [r7, #95]	; 0x5f
20002c3a:	461a      	mov	r2, r3
20002c3c:	f887 2060 	strb.w	r2, [r7, #96]	; 0x60
20002c40:	461a      	mov	r2, r3
20002c42:	f887 2061 	strb.w	r2, [r7, #97]	; 0x61
20002c46:	461a      	mov	r2, r3
20002c48:	f887 2062 	strb.w	r2, [r7, #98]	; 0x62
20002c4c:	461a      	mov	r2, r3
20002c4e:	f887 2063 	strb.w	r2, [r7, #99]	; 0x63
20002c52:	461a      	mov	r2, r3
20002c54:	f887 2064 	strb.w	r2, [r7, #100]	; 0x64
20002c58:	461a      	mov	r2, r3
20002c5a:	f887 2065 	strb.w	r2, [r7, #101]	; 0x65
20002c5e:	461a      	mov	r2, r3
20002c60:	f887 2066 	strb.w	r2, [r7, #102]	; 0x66
20002c64:	461a      	mov	r2, r3
20002c66:	f887 2067 	strb.w	r2, [r7, #103]	; 0x67
20002c6a:	461a      	mov	r2, r3
20002c6c:	f887 2068 	strb.w	r2, [r7, #104]	; 0x68
20002c70:	461a      	mov	r2, r3
20002c72:	f887 2069 	strb.w	r2, [r7, #105]	; 0x69
20002c76:	461a      	mov	r2, r3
20002c78:	f887 206a 	strb.w	r2, [r7, #106]	; 0x6a
20002c7c:	461a      	mov	r2, r3
20002c7e:	f887 206b 	strb.w	r2, [r7, #107]	; 0x6b
20002c82:	461a      	mov	r2, r3
20002c84:	f887 206c 	strb.w	r2, [r7, #108]	; 0x6c
20002c88:	461a      	mov	r2, r3
20002c8a:	f887 206d 	strb.w	r2, [r7, #109]	; 0x6d
20002c8e:	461a      	mov	r2, r3
20002c90:	f887 206e 	strb.w	r2, [r7, #110]	; 0x6e
20002c94:	461a      	mov	r2, r3
20002c96:	f887 206f 	strb.w	r2, [r7, #111]	; 0x6f
20002c9a:	461a      	mov	r2, r3
20002c9c:	f887 2070 	strb.w	r2, [r7, #112]	; 0x70
20002ca0:	461a      	mov	r2, r3
20002ca2:	f887 2071 	strb.w	r2, [r7, #113]	; 0x71
20002ca6:	461a      	mov	r2, r3
20002ca8:	f887 2072 	strb.w	r2, [r7, #114]	; 0x72
20002cac:	461a      	mov	r2, r3
20002cae:	f887 2073 	strb.w	r2, [r7, #115]	; 0x73
20002cb2:	461a      	mov	r2, r3
20002cb4:	f887 2074 	strb.w	r2, [r7, #116]	; 0x74
20002cb8:	461a      	mov	r2, r3
20002cba:	f887 2075 	strb.w	r2, [r7, #117]	; 0x75
20002cbe:	461a      	mov	r2, r3
20002cc0:	f887 2076 	strb.w	r2, [r7, #118]	; 0x76
20002cc4:	461a      	mov	r2, r3
20002cc6:	f887 2077 	strb.w	r2, [r7, #119]	; 0x77
20002cca:	461a      	mov	r2, r3
20002ccc:	f887 2078 	strb.w	r2, [r7, #120]	; 0x78
20002cd0:	461a      	mov	r2, r3
20002cd2:	f887 2079 	strb.w	r2, [r7, #121]	; 0x79
20002cd6:	461a      	mov	r2, r3
20002cd8:	f887 207a 	strb.w	r2, [r7, #122]	; 0x7a
20002cdc:	461a      	mov	r2, r3
20002cde:	f887 207b 	strb.w	r2, [r7, #123]	; 0x7b
20002ce2:	461a      	mov	r2, r3
20002ce4:	f887 207c 	strb.w	r2, [r7, #124]	; 0x7c
20002ce8:	461a      	mov	r2, r3
20002cea:	f887 207d 	strb.w	r2, [r7, #125]	; 0x7d
20002cee:	461a      	mov	r2, r3
20002cf0:	f887 207e 	strb.w	r2, [r7, #126]	; 0x7e
20002cf4:	461a      	mov	r2, r3
20002cf6:	f887 207f 	strb.w	r2, [r7, #127]	; 0x7f
20002cfa:	461a      	mov	r2, r3
20002cfc:	f887 2080 	strb.w	r2, [r7, #128]	; 0x80
20002d00:	461a      	mov	r2, r3
20002d02:	f887 2081 	strb.w	r2, [r7, #129]	; 0x81
20002d06:	461a      	mov	r2, r3
20002d08:	f887 2082 	strb.w	r2, [r7, #130]	; 0x82
20002d0c:	461a      	mov	r2, r3
20002d0e:	f887 2083 	strb.w	r2, [r7, #131]	; 0x83
20002d12:	461a      	mov	r2, r3
20002d14:	f887 2084 	strb.w	r2, [r7, #132]	; 0x84
20002d18:	461a      	mov	r2, r3
20002d1a:	f887 2085 	strb.w	r2, [r7, #133]	; 0x85
20002d1e:	461a      	mov	r2, r3
20002d20:	f887 2086 	strb.w	r2, [r7, #134]	; 0x86
20002d24:	461a      	mov	r2, r3
20002d26:	f887 2087 	strb.w	r2, [r7, #135]	; 0x87
20002d2a:	461a      	mov	r2, r3
20002d2c:	f887 2088 	strb.w	r2, [r7, #136]	; 0x88
20002d30:	461a      	mov	r2, r3
20002d32:	f887 2089 	strb.w	r2, [r7, #137]	; 0x89
20002d36:	461a      	mov	r2, r3
20002d38:	f887 208a 	strb.w	r2, [r7, #138]	; 0x8a
20002d3c:	f887 308b 	strb.w	r3, [r7, #139]	; 0x8b
C:\Microchip\Libero_SoC_v2024.2\Designer\bin\projects\SMF2000-M3_ProjectRad\SC2021_Workspace_PRad\eNVM\Debug/../main.c:122
    RTC_TIMESTAMP(&g_mss_uart0);
20002d40:	4813      	ldr	r0, [pc, #76]	; (20002d90 <write_nvm+0x334>)
20002d42:	f000 fa39 	bl	200031b8 <RTC_TIMESTAMP>
C:\Microchip\Libero_SoC_v2024.2\Designer\bin\projects\SMF2000-M3_ProjectRad\SC2021_Workspace_PRad\eNVM\Debug/../main.c:123
    for (uint32_t i = 0;i<LIMIT;i=i+1)
20002d46:	2300      	movs	r3, #0
20002d48:	f8c7 308c 	str.w	r3, [r7, #140]	; 0x8c
20002d4c:	e010      	b.n	20002d70 <write_nvm+0x314>
C:\Microchip\Libero_SoC_v2024.2\Designer\bin\projects\SMF2000-M3_ProjectRad\SC2021_Workspace_PRad\eNVM\Debug/../main.c:125 (discriminator 3)
    {
        NVM_write(NVM_ADDR + (i*NVM_PAGE_SIZE), pattern, sizeof(pattern), NVM_DO_NOT_LOCK_PAGE);
20002d4e:	f8d7 308c 	ldr.w	r3, [r7, #140]	; 0x8c
20002d52:	f503 0340 	add.w	r3, r3, #12582912	; 0xc00000
20002d56:	3340      	adds	r3, #64	; 0x40
20002d58:	01d8      	lsls	r0, r3, #7
20002d5a:	f107 010c 	add.w	r1, r7, #12
20002d5e:	2300      	movs	r3, #0
20002d60:	2280      	movs	r2, #128	; 0x80
20002d62:	f7fe fc37 	bl	200015d4 <NVM_write>
C:\Microchip\Libero_SoC_v2024.2\Designer\bin\projects\SMF2000-M3_ProjectRad\SC2021_Workspace_PRad\eNVM\Debug/../main.c:123 (discriminator 3)
    for (uint32_t i = 0;i<LIMIT;i=i+1)
20002d66:	f8d7 308c 	ldr.w	r3, [r7, #140]	; 0x8c
20002d6a:	3301      	adds	r3, #1
20002d6c:	f8c7 308c 	str.w	r3, [r7, #140]	; 0x8c
C:\Microchip\Libero_SoC_v2024.2\Designer\bin\projects\SMF2000-M3_ProjectRad\SC2021_Workspace_PRad\eNVM\Debug/../main.c:123 (discriminator 1)
20002d70:	f8d7 308c 	ldr.w	r3, [r7, #140]	; 0x8c
20002d74:	f5b3 7ffa 	cmp.w	r3, #500	; 0x1f4
20002d78:	d3e9      	bcc.n	20002d4e <write_nvm+0x2f2>
C:\Microchip\Libero_SoC_v2024.2\Designer\bin\projects\SMF2000-M3_ProjectRad\SC2021_Workspace_PRad\eNVM\Debug/../main.c:127
    }
    RTC_TIMESTAMP(&g_mss_uart0);
20002d7a:	4805      	ldr	r0, [pc, #20]	; (20002d90 <write_nvm+0x334>)
20002d7c:	f000 fa1c 	bl	200031b8 <RTC_TIMESTAMP>
C:\Microchip\Libero_SoC_v2024.2\Designer\bin\projects\SMF2000-M3_ProjectRad\SC2021_Workspace_PRad\eNVM\Debug/../main.c:128
    MSS_UART_polled_tx_string(&g_mss_uart0,(const uint8_t*)"\n\r**********************************************************************\n\r");
20002d80:	4904      	ldr	r1, [pc, #16]	; (20002d94 <write_nvm+0x338>)
20002d82:	4803      	ldr	r0, [pc, #12]	; (20002d90 <write_nvm+0x334>)
20002d84:	f7fd fc5c 	bl	20000640 <MSS_UART_polled_tx_string>
C:\Microchip\Libero_SoC_v2024.2\Designer\bin\projects\SMF2000-M3_ProjectRad\SC2021_Workspace_PRad\eNVM\Debug/../main.c:129
}
20002d88:	bf00      	nop
20002d8a:	3790      	adds	r7, #144	; 0x90
20002d8c:	46bd      	mov	sp, r7
20002d8e:	bd80      	pop	{r7, pc}
20002d90:	2000942c 	.word	0x2000942c
20002d94:	20008350 	.word	0x20008350

20002d98 <read_nvm>:
read_nvm():
C:\Microchip\Libero_SoC_v2024.2\Designer\bin\projects\SMF2000-M3_ProjectRad\SC2021_Workspace_PRad\eNVM\Debug/../main.c:131

uint32_t read_nvm(mss_uart_instance_t * this_uart, uint8_t num_x, uint32_t faults){
20002d98:	b580      	push	{r7, lr}
20002d9a:	b0c6      	sub	sp, #280	; 0x118
20002d9c:	af02      	add	r7, sp, #8
20002d9e:	f107 030c 	add.w	r3, r7, #12
20002da2:	6018      	str	r0, [r3, #0]
20002da4:	1d3b      	adds	r3, r7, #4
20002da6:	601a      	str	r2, [r3, #0]
20002da8:	f107 030b 	add.w	r3, r7, #11
20002dac:	460a      	mov	r2, r1
20002dae:	701a      	strb	r2, [r3, #0]
C:\Microchip\Libero_SoC_v2024.2\Designer\bin\projects\SMF2000-M3_ProjectRad\SC2021_Workspace_PRad\eNVM\Debug/../main.c:134
    uint8_t msg[120];
    uint8_t memo[128];
    RTC_TIMESTAMP(&g_mss_uart0);
20002db0:	483c      	ldr	r0, [pc, #240]	; (20002ea4 <read_nvm+0x10c>)
20002db2:	f000 fa01 	bl	200031b8 <RTC_TIMESTAMP>
C:\Microchip\Libero_SoC_v2024.2\Designer\bin\projects\SMF2000-M3_ProjectRad\SC2021_Workspace_PRad\eNVM\Debug/../main.c:135
    for (uint32_t i = 0;i<LIMIT;i=i+1)
20002db6:	2300      	movs	r3, #0
20002db8:	f8c7 310c 	str.w	r3, [r7, #268]	; 0x10c
20002dbc:	e062      	b.n	20002e84 <read_nvm+0xec>
C:\Microchip\Libero_SoC_v2024.2\Designer\bin\projects\SMF2000-M3_ProjectRad\SC2021_Workspace_PRad\eNVM\Debug/../main.c:137
    {
        memcpy(memo, NVM_ADDR + (i*NVM_PAGE_SIZE), NVM_PAGE_SIZE);
20002dbe:	f8d7 310c 	ldr.w	r3, [r7, #268]	; 0x10c
20002dc2:	f503 0340 	add.w	r3, r3, #12582912	; 0xc00000
20002dc6:	3340      	adds	r3, #64	; 0x40
20002dc8:	01db      	lsls	r3, r3, #7
20002dca:	461a      	mov	r2, r3
20002dcc:	f107 0310 	add.w	r3, r7, #16
20002dd0:	4618      	mov	r0, r3
20002dd2:	4611      	mov	r1, r2
20002dd4:	2380      	movs	r3, #128	; 0x80
20002dd6:	461a      	mov	r2, r3
20002dd8:	f000 fd02 	bl	200037e0 <memcpy>
C:\Microchip\Libero_SoC_v2024.2\Designer\bin\projects\SMF2000-M3_ProjectRad\SC2021_Workspace_PRad\eNVM\Debug/../main.c:138
        for (uint8_t j = 0; j < NVM_PAGE_SIZE; j++ )
20002ddc:	2300      	movs	r3, #0
20002dde:	f887 310b 	strb.w	r3, [r7, #267]	; 0x10b
20002de2:	e033      	b.n	20002e4c <read_nvm+0xb4>
C:\Microchip\Libero_SoC_v2024.2\Designer\bin\projects\SMF2000-M3_ProjectRad\SC2021_Workspace_PRad\eNVM\Debug/../main.c:140
            {
                if (memo[j] != num_x) {
20002de4:	f897 310b 	ldrb.w	r3, [r7, #267]	; 0x10b
20002de8:	f107 0210 	add.w	r2, r7, #16
20002dec:	5cd3      	ldrb	r3, [r2, r3]
20002dee:	f107 020b 	add.w	r2, r7, #11
20002df2:	7812      	ldrb	r2, [r2, #0]
20002df4:	429a      	cmp	r2, r3
20002df6:	d024      	beq.n	20002e42 <read_nvm+0xaa>
C:\Microchip\Libero_SoC_v2024.2\Designer\bin\projects\SMF2000-M3_ProjectRad\SC2021_Workspace_PRad\eNVM\Debug/../main.c:141
                    faults ++;
20002df8:	1d3b      	adds	r3, r7, #4
20002dfa:	1d3a      	adds	r2, r7, #4
20002dfc:	6812      	ldr	r2, [r2, #0]
20002dfe:	3201      	adds	r2, #1
20002e00:	601a      	str	r2, [r3, #0]
C:\Microchip\Libero_SoC_v2024.2\Designer\bin\projects\SMF2000-M3_ProjectRad\SC2021_Workspace_PRad\eNVM\Debug/../main.c:142
                    sprintf(msg, "\n\r --ERROR-- at address %#X ==> %zu is not %u", NVM_ADDR + (i*NVM_PAGE_SIZE)+j, memo[j], num_x);
20002e02:	f8d7 310c 	ldr.w	r3, [r7, #268]	; 0x10c
20002e06:	f503 0340 	add.w	r3, r3, #12582912	; 0xc00000
20002e0a:	3340      	adds	r3, #64	; 0x40
20002e0c:	01da      	lsls	r2, r3, #7
20002e0e:	f897 310b 	ldrb.w	r3, [r7, #267]	; 0x10b
20002e12:	18d1      	adds	r1, r2, r3
20002e14:	f897 310b 	ldrb.w	r3, [r7, #267]	; 0x10b
20002e18:	f107 0210 	add.w	r2, r7, #16
20002e1c:	5cd3      	ldrb	r3, [r2, r3]
20002e1e:	461a      	mov	r2, r3
20002e20:	f107 030b 	add.w	r3, r7, #11
20002e24:	781b      	ldrb	r3, [r3, #0]
20002e26:	f107 0090 	add.w	r0, r7, #144	; 0x90
20002e2a:	9300      	str	r3, [sp, #0]
20002e2c:	4613      	mov	r3, r2
20002e2e:	460a      	mov	r2, r1
20002e30:	491d      	ldr	r1, [pc, #116]	; (20002ea8 <read_nvm+0x110>)
20002e32:	f000 fdb9 	bl	200039a8 <sprintf>
C:\Microchip\Libero_SoC_v2024.2\Designer\bin\projects\SMF2000-M3_ProjectRad\SC2021_Workspace_PRad\eNVM\Debug/../main.c:143
                    MSS_UART_polled_tx_string(&g_mss_uart0, msg);}
20002e36:	f107 0390 	add.w	r3, r7, #144	; 0x90
20002e3a:	4619      	mov	r1, r3
20002e3c:	4819      	ldr	r0, [pc, #100]	; (20002ea4 <read_nvm+0x10c>)
20002e3e:	f7fd fbff 	bl	20000640 <MSS_UART_polled_tx_string>
C:\Microchip\Libero_SoC_v2024.2\Designer\bin\projects\SMF2000-M3_ProjectRad\SC2021_Workspace_PRad\eNVM\Debug/../main.c:138 (discriminator 2)
        for (uint8_t j = 0; j < NVM_PAGE_SIZE; j++ )
20002e42:	f897 310b 	ldrb.w	r3, [r7, #267]	; 0x10b
20002e46:	3301      	adds	r3, #1
20002e48:	f887 310b 	strb.w	r3, [r7, #267]	; 0x10b
C:\Microchip\Libero_SoC_v2024.2\Designer\bin\projects\SMF2000-M3_ProjectRad\SC2021_Workspace_PRad\eNVM\Debug/../main.c:138 (discriminator 1)
20002e4c:	f997 310b 	ldrsb.w	r3, [r7, #267]	; 0x10b
20002e50:	2b00      	cmp	r3, #0
20002e52:	dac7      	bge.n	20002de4 <read_nvm+0x4c>
C:\Microchip\Libero_SoC_v2024.2\Designer\bin\projects\SMF2000-M3_ProjectRad\SC2021_Workspace_PRad\eNVM\Debug/../main.c:145 (discriminator 2)
            }
        sprintf(msg, "\n\r %#X ==> %zu ", NVM_ADDR + (i*NVM_PAGE_SIZE), i);
20002e54:	f8d7 310c 	ldr.w	r3, [r7, #268]	; 0x10c
20002e58:	f503 0340 	add.w	r3, r3, #12582912	; 0xc00000
20002e5c:	3340      	adds	r3, #64	; 0x40
20002e5e:	01da      	lsls	r2, r3, #7
20002e60:	f107 0090 	add.w	r0, r7, #144	; 0x90
20002e64:	f8d7 310c 	ldr.w	r3, [r7, #268]	; 0x10c
20002e68:	4910      	ldr	r1, [pc, #64]	; (20002eac <read_nvm+0x114>)
20002e6a:	f000 fd9d 	bl	200039a8 <sprintf>
C:\Microchip\Libero_SoC_v2024.2\Designer\bin\projects\SMF2000-M3_ProjectRad\SC2021_Workspace_PRad\eNVM\Debug/../main.c:146 (discriminator 2)
                    MSS_UART_polled_tx_string(&g_mss_uart0, msg);
20002e6e:	f107 0390 	add.w	r3, r7, #144	; 0x90
20002e72:	4619      	mov	r1, r3
20002e74:	480b      	ldr	r0, [pc, #44]	; (20002ea4 <read_nvm+0x10c>)
20002e76:	f7fd fbe3 	bl	20000640 <MSS_UART_polled_tx_string>
C:\Microchip\Libero_SoC_v2024.2\Designer\bin\projects\SMF2000-M3_ProjectRad\SC2021_Workspace_PRad\eNVM\Debug/../main.c:135 (discriminator 2)
    for (uint32_t i = 0;i<LIMIT;i=i+1)
20002e7a:	f8d7 310c 	ldr.w	r3, [r7, #268]	; 0x10c
20002e7e:	3301      	adds	r3, #1
20002e80:	f8c7 310c 	str.w	r3, [r7, #268]	; 0x10c
C:\Microchip\Libero_SoC_v2024.2\Designer\bin\projects\SMF2000-M3_ProjectRad\SC2021_Workspace_PRad\eNVM\Debug/../main.c:135 (discriminator 1)
20002e84:	f8d7 310c 	ldr.w	r3, [r7, #268]	; 0x10c
20002e88:	f5b3 7ffa 	cmp.w	r3, #500	; 0x1f4
20002e8c:	d397      	bcc.n	20002dbe <read_nvm+0x26>
C:\Microchip\Libero_SoC_v2024.2\Designer\bin\projects\SMF2000-M3_ProjectRad\SC2021_Workspace_PRad\eNVM\Debug/../main.c:148
    }
    RTC_TIMESTAMP(&g_mss_uart0);
20002e8e:	4805      	ldr	r0, [pc, #20]	; (20002ea4 <read_nvm+0x10c>)
20002e90:	f000 f992 	bl	200031b8 <RTC_TIMESTAMP>
C:\Microchip\Libero_SoC_v2024.2\Designer\bin\projects\SMF2000-M3_ProjectRad\SC2021_Workspace_PRad\eNVM\Debug/../main.c:149
    return faults;
20002e94:	1d3b      	adds	r3, r7, #4
20002e96:	681b      	ldr	r3, [r3, #0]
C:\Microchip\Libero_SoC_v2024.2\Designer\bin\projects\SMF2000-M3_ProjectRad\SC2021_Workspace_PRad\eNVM\Debug/../main.c:150
}
20002e98:	4618      	mov	r0, r3
20002e9a:	f507 7788 	add.w	r7, r7, #272	; 0x110
20002e9e:	46bd      	mov	sp, r7
20002ea0:	bd80      	pop	{r7, pc}
20002ea2:	bf00      	nop
20002ea4:	2000942c 	.word	0x2000942c
20002ea8:	2000841c 	.word	0x2000841c
20002eac:	2000844c 	.word	0x2000844c

20002eb0 <main>:
main():
C:\Microchip\Libero_SoC_v2024.2\Designer\bin\projects\SMF2000-M3_ProjectRad\SC2021_Workspace_PRad\eNVM\Debug/../main.c:158
void erase_nvm(mss_uart_instance_t * this_uart);
void write_nvm(mss_uart_instance_t * this_uart, uint8_t num_x);
uint32_t read_nvm(mss_uart_instance_t * this_uart, uint8_t num_x,uint32_t faults);

int main(void)
{
20002eb0:	b580      	push	{r7, lr}
20002eb2:	b0e8      	sub	sp, #416	; 0x1a0
20002eb4:	af00      	add	r7, sp, #0
C:\Microchip\Libero_SoC_v2024.2\Designer\bin\projects\SMF2000-M3_ProjectRad\SC2021_Workspace_PRad\eNVM\Debug/../main.c:159
    SystemInit();
20002eb6:	f7ff fc11 	bl	200026dc <SystemInit>
C:\Microchip\Libero_SoC_v2024.2\Designer\bin\projects\SMF2000-M3_ProjectRad\SC2021_Workspace_PRad\eNVM\Debug/../main.c:160
    SystemCoreClockUpdate();
20002eba:	f7ff fc1f 	bl	200026fc <SystemCoreClockUpdate>
C:\Microchip\Libero_SoC_v2024.2\Designer\bin\projects\SMF2000-M3_ProjectRad\SC2021_Workspace_PRad\eNVM\Debug/../main.c:161
    init_RealTimeCounter();
20002ebe:	f7ff fd35 	bl	2000292c <init_RealTimeCounter>
C:\Microchip\Libero_SoC_v2024.2\Designer\bin\projects\SMF2000-M3_ProjectRad\SC2021_Workspace_PRad\eNVM\Debug/../main.c:166



    //MSS_UART_init( mss_uart_instance_t* this_uart, uint32_t baud_rate, uint8_t line_config );
    MSS_UART_init ( &g_mss_uart0, MSS_UART_115200_BAUD,
20002ec2:	2203      	movs	r2, #3
20002ec4:	f44f 31e1 	mov.w	r1, #115200	; 0x1c200
20002ec8:	48a4      	ldr	r0, [pc, #656]	; (2000315c <main+0x2ac>)
20002eca:	f7fd fb81 	bl	200005d0 <MSS_UART_init>
C:\Microchip\Libero_SoC_v2024.2\Designer\bin\projects\SMF2000-M3_ProjectRad\SC2021_Workspace_PRad\eNVM\Debug/../main.c:169
                        MSS_UART_DATA_8_BITS | MSS_UART_NO_PARITY | MSS_UART_ONE_STOP_BIT);

    const uint8_t pattern_ones[NVM_PAGE_SIZE] = {[0 ... (NVM_PAGE_SIZE-1)] = VALUE};//0xAA so to be different than 0
20002ece:	4aa4      	ldr	r2, [pc, #656]	; (20003160 <main+0x2b0>)
20002ed0:	f507 7382 	add.w	r3, r7, #260	; 0x104
20002ed4:	4611      	mov	r1, r2
20002ed6:	2280      	movs	r2, #128	; 0x80
20002ed8:	4618      	mov	r0, r3
20002eda:	f000 fc81 	bl	200037e0 <memcpy>
C:\Microchip\Libero_SoC_v2024.2\Designer\bin\projects\SMF2000-M3_ProjectRad\SC2021_Workspace_PRad\eNVM\Debug/../main.c:170
    const uint8_t pattern_zeros[NVM_PAGE_SIZE] = {[0 ... (NVM_PAGE_SIZE-1)] = 0};
20002ede:	f107 0384 	add.w	r3, r7, #132	; 0x84
20002ee2:	4aa0      	ldr	r2, [pc, #640]	; (20003164 <main+0x2b4>)
20002ee4:	4618      	mov	r0, r3
20002ee6:	4611      	mov	r1, r2
20002ee8:	2380      	movs	r3, #128	; 0x80
20002eea:	461a      	mov	r2, r3
20002eec:	f000 fc78 	bl	200037e0 <memcpy>
C:\Microchip\Libero_SoC_v2024.2\Designer\bin\projects\SMF2000-M3_ProjectRad\SC2021_Workspace_PRad\eNVM\Debug/../main.c:174
    //const uint8_t pattern_zeros_all[NVM_TEST_SIZE] = {[0 ... (NVM_PAGE_SIZE-1)] = 0};
    //const uint8_t pattern_ones_all[NVM_TEST_SIZE] = {[0 ... (NVM_PAGE_SIZE-1)] = 255};
    //const uint8_t pattern_a[] = { 0x41u, 0xABu, 0xCDu, 0xEFu, 0xAAu, 0xBBu };
    volatile nvm_status_t envm_status_returned = 0;
20002ef0:	f107 0383 	add.w	r3, r7, #131	; 0x83
20002ef4:	2200      	movs	r2, #0
20002ef6:	701a      	strb	r2, [r3, #0]
C:\Microchip\Libero_SoC_v2024.2\Designer\bin\projects\SMF2000-M3_ProjectRad\SC2021_Workspace_PRad\eNVM\Debug/../main.c:178



    uint32_t faults = 0;
20002ef8:	2300      	movs	r3, #0
20002efa:	f8c7 319c 	str.w	r3, [r7, #412]	; 0x19c
C:\Microchip\Libero_SoC_v2024.2\Designer\bin\projects\SMF2000-M3_ProjectRad\SC2021_Workspace_PRad\eNVM\Debug/../main.c:184
    uint8_t msg[120];

    //UART and flow
    size_t rx_size;
    uint8_t rx_buff[1];
    uint8_t exit_prg = 1;
20002efe:	2301      	movs	r3, #1
20002f00:	f887 319b 	strb.w	r3, [r7, #411]	; 0x19b
C:\Microchip\Libero_SoC_v2024.2\Designer\bin\projects\SMF2000-M3_ProjectRad\SC2021_Workspace_PRad\eNVM\Debug/../main.c:185
    uint8_t xxx = 1;
20002f04:	2301      	movs	r3, #1
20002f06:	f887 319a 	strb.w	r3, [r7, #410]	; 0x19a
C:\Microchip\Libero_SoC_v2024.2\Designer\bin\projects\SMF2000-M3_ProjectRad\SC2021_Workspace_PRad\eNVM\Debug/../main.c:186
    SYSREG->WDOG_CR = 0;
20002f0a:	4b97      	ldr	r3, [pc, #604]	; (20003168 <main+0x2b8>)
20002f0c:	2200      	movs	r2, #0
20002f0e:	66da      	str	r2, [r3, #108]	; 0x6c
C:\Microchip\Libero_SoC_v2024.2\Designer\bin\projects\SMF2000-M3_ProjectRad\SC2021_Workspace_PRad\eNVM\Debug/../main.c:189
    //uint8_t * p_nvm = (uint8_t *)NVM_ADDR;

    char *filename = "test.txt";
20002f10:	4b96      	ldr	r3, [pc, #600]	; (2000316c <main+0x2bc>)
20002f12:	f8c7 3190 	str.w	r3, [r7, #400]	; 0x190
C:\Microchip\Libero_SoC_v2024.2\Designer\bin\projects\SMF2000-M3_ProjectRad\SC2021_Workspace_PRad\eNVM\Debug/../main.c:195

    // remaining pages from 0x60002000 to 0x6003fff
    //int total_pages_to_write = 1984;


    MSS_UART_polled_tx_string(&g_mss_uart0,(const uint8_t*)"\n\r**********************************************************************\n\r");
20002f16:	4996      	ldr	r1, [pc, #600]	; (20003170 <main+0x2c0>)
20002f18:	4890      	ldr	r0, [pc, #576]	; (2000315c <main+0x2ac>)
20002f1a:	f7fd fb91 	bl	20000640 <MSS_UART_polled_tx_string>
C:\Microchip\Libero_SoC_v2024.2\Designer\bin\projects\SMF2000-M3_ProjectRad\SC2021_Workspace_PRad\eNVM\Debug/../main.c:196
    MSS_UART_polled_tx_string(&g_mss_uart0,(const uint8_t*)"******************** SmartFusion2 eNVM TESTS ************************\n\r");
20002f1e:	4995      	ldr	r1, [pc, #596]	; (20003174 <main+0x2c4>)
20002f20:	488e      	ldr	r0, [pc, #568]	; (2000315c <main+0x2ac>)
20002f22:	f7fd fb8d 	bl	20000640 <MSS_UART_polled_tx_string>
C:\Microchip\Libero_SoC_v2024.2\Designer\bin\projects\SMF2000-M3_ProjectRad\SC2021_Workspace_PRad\eNVM\Debug/../main.c:197
    MSS_UART_polled_tx_string(&g_mss_uart0,(const uint8_t*)"**********************************************************************\n\r");
20002f26:	4994      	ldr	r1, [pc, #592]	; (20003178 <main+0x2c8>)
20002f28:	488c      	ldr	r0, [pc, #560]	; (2000315c <main+0x2ac>)
20002f2a:	f7fd fb89 	bl	20000640 <MSS_UART_polled_tx_string>
C:\Microchip\Libero_SoC_v2024.2\Designer\bin\projects\SMF2000-M3_ProjectRad\SC2021_Workspace_PRad\eNVM\Debug/../main.c:200

    //Initialization
    MSS_UART_polled_tx_string(&g_mss_uart0,(const uint8_t*)"Initializing memory...\n\r");
20002f2e:	4993      	ldr	r1, [pc, #588]	; (2000317c <main+0x2cc>)
20002f30:	488a      	ldr	r0, [pc, #552]	; (2000315c <main+0x2ac>)
20002f32:	f7fd fb85 	bl	20000640 <MSS_UART_polled_tx_string>
C:\Microchip\Libero_SoC_v2024.2\Designer\bin\projects\SMF2000-M3_ProjectRad\SC2021_Workspace_PRad\eNVM\Debug/../main.c:201
    RTC_TIMESTAMP(&g_mss_uart0);
20002f36:	4889      	ldr	r0, [pc, #548]	; (2000315c <main+0x2ac>)
20002f38:	f000 f93e 	bl	200031b8 <RTC_TIMESTAMP>
C:\Microchip\Libero_SoC_v2024.2\Designer\bin\projects\SMF2000-M3_ProjectRad\SC2021_Workspace_PRad\eNVM\Debug/../main.c:203
    //MSS_RTC_start();
    for (uint32_t i = 0;i<LIMIT;i=i+1)
20002f3c:	2300      	movs	r3, #0
20002f3e:	f8c7 3194 	str.w	r3, [r7, #404]	; 0x194
20002f42:	e050      	b.n	20002fe6 <main+0x136>
C:\Microchip\Libero_SoC_v2024.2\Designer\bin\projects\SMF2000-M3_ProjectRad\SC2021_Workspace_PRad\eNVM\Debug/../main.c:205 (discriminator 3)
    {
            envm_status_returned = 0;
20002f44:	f107 0383 	add.w	r3, r7, #131	; 0x83
20002f48:	2200      	movs	r2, #0
20002f4a:	701a      	strb	r2, [r3, #0]
C:\Microchip\Libero_SoC_v2024.2\Designer\bin\projects\SMF2000-M3_ProjectRad\SC2021_Workspace_PRad\eNVM\Debug/../main.c:206 (discriminator 3)
            uint8_t * data_to_write_nvm = (uint8_t*) malloc(NVM_PAGE_SIZE * sizeof(uint8_t));
20002f4c:	2080      	movs	r0, #128	; 0x80
20002f4e:	f000 f989 	bl	20003264 <malloc>
20002f52:	4603      	mov	r3, r0
20002f54:	f8c7 3188 	str.w	r3, [r7, #392]	; 0x188
C:\Microchip\Libero_SoC_v2024.2\Designer\bin\projects\SMF2000-M3_ProjectRad\SC2021_Workspace_PRad\eNVM\Debug/../main.c:207 (discriminator 3)
            uint8_t char_written = 0x00;
20002f58:	2300      	movs	r3, #0
20002f5a:	f887 3187 	strb.w	r3, [r7, #391]	; 0x187
C:\Microchip\Libero_SoC_v2024.2\Designer\bin\projects\SMF2000-M3_ProjectRad\SC2021_Workspace_PRad\eNVM\Debug/../main.c:208 (discriminator 3)
            envm_status_returned = NVM_unlock(NVM_ADDR + (i*NVM_PAGE_SIZE), NVM_PAGE_SIZE);
20002f5e:	f8d7 3194 	ldr.w	r3, [r7, #404]	; 0x194
20002f62:	f503 0340 	add.w	r3, r3, #12582912	; 0xc00000
20002f66:	3340      	adds	r3, #64	; 0x40
20002f68:	01db      	lsls	r3, r3, #7
20002f6a:	2180      	movs	r1, #128	; 0x80
20002f6c:	4618      	mov	r0, r3
20002f6e:	f7fe fc55 	bl	2000181c <NVM_unlock>
20002f72:	4603      	mov	r3, r0
20002f74:	461a      	mov	r2, r3
20002f76:	f107 0383 	add.w	r3, r7, #131	; 0x83
20002f7a:	701a      	strb	r2, [r3, #0]
C:\Microchip\Libero_SoC_v2024.2\Designer\bin\projects\SMF2000-M3_ProjectRad\SC2021_Workspace_PRad\eNVM\Debug/../main.c:209 (discriminator 3)
            memset(data_to_write_nvm, char_written, NVM_PAGE_SIZE);
20002f7c:	f897 3187 	ldrb.w	r3, [r7, #391]	; 0x187
20002f80:	2280      	movs	r2, #128	; 0x80
20002f82:	4619      	mov	r1, r3
20002f84:	f8d7 0188 	ldr.w	r0, [r7, #392]	; 0x188
20002f88:	f000 fca0 	bl	200038cc <memset>
C:\Microchip\Libero_SoC_v2024.2\Designer\bin\projects\SMF2000-M3_ProjectRad\SC2021_Workspace_PRad\eNVM\Debug/../main.c:211 (discriminator 3)
            //NVM_write(NVM_ADDR + (i*NVM_PAGE_SIZE), pattern_zeros, sizeof(pattern_zeros), NVM_DO_NOT_LOCK_PAGE);
            envm_status_returned = NVM_write(NVM_ADDR + (i*NVM_PAGE_SIZE), data_to_write_nvm, NVM_PAGE_SIZE, NVM_DO_NOT_LOCK_PAGE);
20002f8c:	f8d7 3194 	ldr.w	r3, [r7, #404]	; 0x194
20002f90:	f503 0340 	add.w	r3, r3, #12582912	; 0xc00000
20002f94:	3340      	adds	r3, #64	; 0x40
20002f96:	01d8      	lsls	r0, r3, #7
20002f98:	2300      	movs	r3, #0
20002f9a:	2280      	movs	r2, #128	; 0x80
20002f9c:	f8d7 1188 	ldr.w	r1, [r7, #392]	; 0x188
20002fa0:	f7fe fb18 	bl	200015d4 <NVM_write>
20002fa4:	4603      	mov	r3, r0
20002fa6:	461a      	mov	r2, r3
20002fa8:	f107 0383 	add.w	r3, r7, #131	; 0x83
20002fac:	701a      	strb	r2, [r3, #0]
C:\Microchip\Libero_SoC_v2024.2\Designer\bin\projects\SMF2000-M3_ProjectRad\SC2021_Workspace_PRad\eNVM\Debug/../main.c:212 (discriminator 3)
            free(data_to_write_nvm);
20002fae:	f8d7 0188 	ldr.w	r0, [r7, #392]	; 0x188
20002fb2:	f000 f95f 	bl	20003274 <free>
C:\Microchip\Libero_SoC_v2024.2\Designer\bin\projects\SMF2000-M3_ProjectRad\SC2021_Workspace_PRad\eNVM\Debug/../main.c:214 (discriminator 3)
            //envm_status_returned = NVM_unlock(NVM_ADDR + (i*NVM_PAGE_SIZE), envm_status_returned);
            sprintf(msg, "\n\r %#X ==> %zu ", NVM_ADDR + (i*NVM_PAGE_SIZE), i);
20002fb6:	f8d7 3194 	ldr.w	r3, [r7, #404]	; 0x194
20002fba:	f503 0340 	add.w	r3, r3, #12582912	; 0xc00000
20002fbe:	3340      	adds	r3, #64	; 0x40
20002fc0:	01da      	lsls	r2, r3, #7
20002fc2:	f107 0008 	add.w	r0, r7, #8
20002fc6:	f8d7 3194 	ldr.w	r3, [r7, #404]	; 0x194
20002fca:	496d      	ldr	r1, [pc, #436]	; (20003180 <main+0x2d0>)
20002fcc:	f000 fcec 	bl	200039a8 <sprintf>
C:\Microchip\Libero_SoC_v2024.2\Designer\bin\projects\SMF2000-M3_ProjectRad\SC2021_Workspace_PRad\eNVM\Debug/../main.c:215 (discriminator 3)
            MSS_UART_polled_tx_string(&g_mss_uart0, msg);
20002fd0:	f107 0308 	add.w	r3, r7, #8
20002fd4:	4619      	mov	r1, r3
20002fd6:	4861      	ldr	r0, [pc, #388]	; (2000315c <main+0x2ac>)
20002fd8:	f7fd fb32 	bl	20000640 <MSS_UART_polled_tx_string>
C:\Microchip\Libero_SoC_v2024.2\Designer\bin\projects\SMF2000-M3_ProjectRad\SC2021_Workspace_PRad\eNVM\Debug/../main.c:203 (discriminator 3)
    for (uint32_t i = 0;i<LIMIT;i=i+1)
20002fdc:	f8d7 3194 	ldr.w	r3, [r7, #404]	; 0x194
20002fe0:	3301      	adds	r3, #1
20002fe2:	f8c7 3194 	str.w	r3, [r7, #404]	; 0x194
C:\Microchip\Libero_SoC_v2024.2\Designer\bin\projects\SMF2000-M3_ProjectRad\SC2021_Workspace_PRad\eNVM\Debug/../main.c:203 (discriminator 1)
20002fe6:	f8d7 3194 	ldr.w	r3, [r7, #404]	; 0x194
20002fea:	f5b3 7ffa 	cmp.w	r3, #500	; 0x1f4
20002fee:	d3a9      	bcc.n	20002f44 <main+0x94>
C:\Microchip\Libero_SoC_v2024.2\Designer\bin\projects\SMF2000-M3_ProjectRad\SC2021_Workspace_PRad\eNVM\Debug/../main.c:219


    }
    RTC_TIMESTAMP(&g_mss_uart0);
20002ff0:	485a      	ldr	r0, [pc, #360]	; (2000315c <main+0x2ac>)
20002ff2:	f000 f8e1 	bl	200031b8 <RTC_TIMESTAMP>
C:\Microchip\Libero_SoC_v2024.2\Designer\bin\projects\SMF2000-M3_ProjectRad\SC2021_Workspace_PRad\eNVM\Debug/../main.c:234
            {
                if (memo[j] != 0xFF) {faults ++;}
            }
    }*/

    while(xxx==1)
20002ff6:	e0a6      	b.n	20003146 <main+0x296>
C:\Microchip\Libero_SoC_v2024.2\Designer\bin\projects\SMF2000-M3_ProjectRad\SC2021_Workspace_PRad\eNVM\Debug/../main.c:236
    {
        MSS_UART_polled_tx_string(&g_mss_uart0,(const uint8_t*)"\n\r**********************************************************************\n\r");
20002ff8:	495d      	ldr	r1, [pc, #372]	; (20003170 <main+0x2c0>)
20002ffa:	4858      	ldr	r0, [pc, #352]	; (2000315c <main+0x2ac>)
20002ffc:	f7fd fb20 	bl	20000640 <MSS_UART_polled_tx_string>
C:\Microchip\Libero_SoC_v2024.2\Designer\bin\projects\SMF2000-M3_ProjectRad\SC2021_Workspace_PRad\eNVM\Debug/../main.c:237
        MSS_UART_polled_tx_string(&g_mss_uart0,(const uint8_t*)"SELECT :\n\r");
20003000:	4960      	ldr	r1, [pc, #384]	; (20003184 <main+0x2d4>)
20003002:	4856      	ldr	r0, [pc, #344]	; (2000315c <main+0x2ac>)
20003004:	f7fd fb1c 	bl	20000640 <MSS_UART_polled_tx_string>
C:\Microchip\Libero_SoC_v2024.2\Designer\bin\projects\SMF2000-M3_ProjectRad\SC2021_Workspace_PRad\eNVM\Debug/../main.c:238
        MSS_UART_polled_tx_string(&g_mss_uart0,(const uint8_t*)"1.Erase all \n\r");
20003008:	495f      	ldr	r1, [pc, #380]	; (20003188 <main+0x2d8>)
2000300a:	4854      	ldr	r0, [pc, #336]	; (2000315c <main+0x2ac>)
2000300c:	f7fd fb18 	bl	20000640 <MSS_UART_polled_tx_string>
C:\Microchip\Libero_SoC_v2024.2\Designer\bin\projects\SMF2000-M3_ProjectRad\SC2021_Workspace_PRad\eNVM\Debug/../main.c:239
        MSS_UART_polled_tx_string(&g_mss_uart0,(const uint8_t*)"2.Read 0 \n\r");
20003010:	495e      	ldr	r1, [pc, #376]	; (2000318c <main+0x2dc>)
20003012:	4852      	ldr	r0, [pc, #328]	; (2000315c <main+0x2ac>)
20003014:	f7fd fb14 	bl	20000640 <MSS_UART_polled_tx_string>
C:\Microchip\Libero_SoC_v2024.2\Designer\bin\projects\SMF2000-M3_ProjectRad\SC2021_Workspace_PRad\eNVM\Debug/../main.c:240
        MSS_UART_polled_tx_string(&g_mss_uart0,(const uint8_t*)"3.Read Value \n\r");
20003018:	495d      	ldr	r1, [pc, #372]	; (20003190 <main+0x2e0>)
2000301a:	4850      	ldr	r0, [pc, #320]	; (2000315c <main+0x2ac>)
2000301c:	f7fd fb10 	bl	20000640 <MSS_UART_polled_tx_string>
C:\Microchip\Libero_SoC_v2024.2\Designer\bin\projects\SMF2000-M3_ProjectRad\SC2021_Workspace_PRad\eNVM\Debug/../main.c:241
        MSS_UART_polled_tx_string(&g_mss_uart0,(const uint8_t*)"4.Write 0 \n\r");
20003020:	495c      	ldr	r1, [pc, #368]	; (20003194 <main+0x2e4>)
20003022:	484e      	ldr	r0, [pc, #312]	; (2000315c <main+0x2ac>)
20003024:	f7fd fb0c 	bl	20000640 <MSS_UART_polled_tx_string>
C:\Microchip\Libero_SoC_v2024.2\Designer\bin\projects\SMF2000-M3_ProjectRad\SC2021_Workspace_PRad\eNVM\Debug/../main.c:242
        MSS_UART_polled_tx_string(&g_mss_uart0,(const uint8_t*)"5.Write Value \n\r");
20003028:	495b      	ldr	r1, [pc, #364]	; (20003198 <main+0x2e8>)
2000302a:	484c      	ldr	r0, [pc, #304]	; (2000315c <main+0x2ac>)
2000302c:	f7fd fb08 	bl	20000640 <MSS_UART_polled_tx_string>
C:\Microchip\Libero_SoC_v2024.2\Designer\bin\projects\SMF2000-M3_ProjectRad\SC2021_Workspace_PRad\eNVM\Debug/../main.c:243
        MSS_UART_polled_tx_string(&g_mss_uart0,(const uint8_t*)"6.EXIT \n\r");
20003030:	495a      	ldr	r1, [pc, #360]	; (2000319c <main+0x2ec>)
20003032:	484a      	ldr	r0, [pc, #296]	; (2000315c <main+0x2ac>)
20003034:	f7fd fb04 	bl	20000640 <MSS_UART_polled_tx_string>
C:\Microchip\Libero_SoC_v2024.2\Designer\bin\projects\SMF2000-M3_ProjectRad\SC2021_Workspace_PRad\eNVM\Debug/../main.c:245
        //exit_prg=1;
        while(exit_prg != 0) {  // Inner loop for the iterations
20003038:	e07d      	b.n	20003136 <main+0x286>
C:\Microchip\Libero_SoC_v2024.2\Designer\bin\projects\SMF2000-M3_ProjectRad\SC2021_Workspace_PRad\eNVM\Debug/../main.c:246
            rx_size = MSS_UART_get_rx(&g_mss_uart0, rx_buff, sizeof(rx_buff));
2000303a:	1d3b      	adds	r3, r7, #4
2000303c:	2201      	movs	r2, #1
2000303e:	4619      	mov	r1, r3
20003040:	4846      	ldr	r0, [pc, #280]	; (2000315c <main+0x2ac>)
20003042:	f7fd fb57 	bl	200006f4 <MSS_UART_get_rx>
20003046:	f8c7 018c 	str.w	r0, [r7, #396]	; 0x18c
C:\Microchip\Libero_SoC_v2024.2\Designer\bin\projects\SMF2000-M3_ProjectRad\SC2021_Workspace_PRad\eNVM\Debug/../main.c:247
            if(rx_size > 0){
2000304a:	f8d7 318c 	ldr.w	r3, [r7, #396]	; 0x18c
2000304e:	2b00      	cmp	r3, #0
20003050:	d070      	beq.n	20003134 <main+0x284>
C:\Microchip\Libero_SoC_v2024.2\Designer\bin\projects\SMF2000-M3_ProjectRad\SC2021_Workspace_PRad\eNVM\Debug/../main.c:248
                switch (rx_buff[0]) {
20003052:	1d3b      	adds	r3, r7, #4
20003054:	781b      	ldrb	r3, [r3, #0]
20003056:	3b31      	subs	r3, #49	; 0x31
20003058:	2b05      	cmp	r3, #5
2000305a:	d86c      	bhi.n	20003136 <main+0x286>
2000305c:	a201      	add	r2, pc, #4	; (adr r2, 20003064 <main+0x1b4>)
2000305e:	f852 f023 	ldr.w	pc, [r2, r3, lsl #2]
20003062:	bf00      	nop
20003064:	2000307d 	.word	0x2000307d
20003068:	2000308d 	.word	0x2000308d
2000306c:	200030cb 	.word	0x200030cb
20003070:	20003109 	.word	0x20003109
20003074:	2000311b 	.word	0x2000311b
20003078:	2000312d 	.word	0x2000312d
C:\Microchip\Libero_SoC_v2024.2\Designer\bin\projects\SMF2000-M3_ProjectRad\SC2021_Workspace_PRad\eNVM\Debug/../main.c:250
                    case '1':
                        MSS_UART_polled_tx_string(&g_mss_uart0,(const uint8_t*)"Erasing memory...\n\r");
2000307c:	4948      	ldr	r1, [pc, #288]	; (200031a0 <main+0x2f0>)
2000307e:	4837      	ldr	r0, [pc, #220]	; (2000315c <main+0x2ac>)
20003080:	f7fd fade 	bl	20000640 <MSS_UART_polled_tx_string>
C:\Microchip\Libero_SoC_v2024.2\Designer\bin\projects\SMF2000-M3_ProjectRad\SC2021_Workspace_PRad\eNVM\Debug/../main.c:251
                        erase_nvm(&g_mss_uart0);
20003084:	4835      	ldr	r0, [pc, #212]	; (2000315c <main+0x2ac>)
20003086:	f7ff fcaf 	bl	200029e8 <erase_nvm>
C:\Microchip\Libero_SoC_v2024.2\Designer\bin\projects\SMF2000-M3_ProjectRad\SC2021_Workspace_PRad\eNVM\Debug/../main.c:252
                        break;
2000308a:	e054      	b.n	20003136 <main+0x286>
C:\Microchip\Libero_SoC_v2024.2\Designer\bin\projects\SMF2000-M3_ProjectRad\SC2021_Workspace_PRad\eNVM\Debug/../main.c:254
                    case '2':
                        MSS_UART_polled_tx_string(&g_mss_uart0,(const uint8_t*)"Reading 0...\n\r");
2000308c:	4945      	ldr	r1, [pc, #276]	; (200031a4 <main+0x2f4>)
2000308e:	4833      	ldr	r0, [pc, #204]	; (2000315c <main+0x2ac>)
20003090:	f7fd fad6 	bl	20000640 <MSS_UART_polled_tx_string>
C:\Microchip\Libero_SoC_v2024.2\Designer\bin\projects\SMF2000-M3_ProjectRad\SC2021_Workspace_PRad\eNVM\Debug/../main.c:255
                        faults = read_nvm(&g_mss_uart0, 0x00,faults);
20003094:	f8d7 219c 	ldr.w	r2, [r7, #412]	; 0x19c
20003098:	2100      	movs	r1, #0
2000309a:	4830      	ldr	r0, [pc, #192]	; (2000315c <main+0x2ac>)
2000309c:	f7ff fe7c 	bl	20002d98 <read_nvm>
200030a0:	f8c7 019c 	str.w	r0, [r7, #412]	; 0x19c
C:\Microchip\Libero_SoC_v2024.2\Designer\bin\projects\SMF2000-M3_ProjectRad\SC2021_Workspace_PRad\eNVM\Debug/../main.c:256
                        sprintf(msg, "\n\r Faults: %zu", faults);
200030a4:	f107 0308 	add.w	r3, r7, #8
200030a8:	f8d7 219c 	ldr.w	r2, [r7, #412]	; 0x19c
200030ac:	493e      	ldr	r1, [pc, #248]	; (200031a8 <main+0x2f8>)
200030ae:	4618      	mov	r0, r3
200030b0:	f000 fc7a 	bl	200039a8 <sprintf>
C:\Microchip\Libero_SoC_v2024.2\Designer\bin\projects\SMF2000-M3_ProjectRad\SC2021_Workspace_PRad\eNVM\Debug/../main.c:257
                        MSS_UART_polled_tx_string(&g_mss_uart0, msg);
200030b4:	f107 0308 	add.w	r3, r7, #8
200030b8:	4619      	mov	r1, r3
200030ba:	4828      	ldr	r0, [pc, #160]	; (2000315c <main+0x2ac>)
200030bc:	f7fd fac0 	bl	20000640 <MSS_UART_polled_tx_string>
C:\Microchip\Libero_SoC_v2024.2\Designer\bin\projects\SMF2000-M3_ProjectRad\SC2021_Workspace_PRad\eNVM\Debug/../main.c:258
                        MSS_UART_polled_tx_string(&g_mss_uart0,(const uint8_t*)"\n\r**********************************************************************\n\r");
200030c0:	492b      	ldr	r1, [pc, #172]	; (20003170 <main+0x2c0>)
200030c2:	4826      	ldr	r0, [pc, #152]	; (2000315c <main+0x2ac>)
200030c4:	f7fd fabc 	bl	20000640 <MSS_UART_polled_tx_string>
C:\Microchip\Libero_SoC_v2024.2\Designer\bin\projects\SMF2000-M3_ProjectRad\SC2021_Workspace_PRad\eNVM\Debug/../main.c:259
                        break;
200030c8:	e035      	b.n	20003136 <main+0x286>
C:\Microchip\Libero_SoC_v2024.2\Designer\bin\projects\SMF2000-M3_ProjectRad\SC2021_Workspace_PRad\eNVM\Debug/../main.c:261
                    case '3':
                        MSS_UART_polled_tx_string(&g_mss_uart0,(const uint8_t*)"Reading Value...\n\r");
200030ca:	4938      	ldr	r1, [pc, #224]	; (200031ac <main+0x2fc>)
200030cc:	4823      	ldr	r0, [pc, #140]	; (2000315c <main+0x2ac>)
200030ce:	f7fd fab7 	bl	20000640 <MSS_UART_polled_tx_string>
C:\Microchip\Libero_SoC_v2024.2\Designer\bin\projects\SMF2000-M3_ProjectRad\SC2021_Workspace_PRad\eNVM\Debug/../main.c:262
                        faults = read_nvm(&g_mss_uart0, 0xFF,faults);
200030d2:	f8d7 219c 	ldr.w	r2, [r7, #412]	; 0x19c
200030d6:	21ff      	movs	r1, #255	; 0xff
200030d8:	4820      	ldr	r0, [pc, #128]	; (2000315c <main+0x2ac>)
200030da:	f7ff fe5d 	bl	20002d98 <read_nvm>
200030de:	f8c7 019c 	str.w	r0, [r7, #412]	; 0x19c
C:\Microchip\Libero_SoC_v2024.2\Designer\bin\projects\SMF2000-M3_ProjectRad\SC2021_Workspace_PRad\eNVM\Debug/../main.c:263
                        sprintf(msg, "\n\r Faults: %zu", faults);
200030e2:	f107 0308 	add.w	r3, r7, #8
200030e6:	f8d7 219c 	ldr.w	r2, [r7, #412]	; 0x19c
200030ea:	492f      	ldr	r1, [pc, #188]	; (200031a8 <main+0x2f8>)
200030ec:	4618      	mov	r0, r3
200030ee:	f000 fc5b 	bl	200039a8 <sprintf>
C:\Microchip\Libero_SoC_v2024.2\Designer\bin\projects\SMF2000-M3_ProjectRad\SC2021_Workspace_PRad\eNVM\Debug/../main.c:264
                        MSS_UART_polled_tx_string(&g_mss_uart0, msg);
200030f2:	f107 0308 	add.w	r3, r7, #8
200030f6:	4619      	mov	r1, r3
200030f8:	4818      	ldr	r0, [pc, #96]	; (2000315c <main+0x2ac>)
200030fa:	f7fd faa1 	bl	20000640 <MSS_UART_polled_tx_string>
C:\Microchip\Libero_SoC_v2024.2\Designer\bin\projects\SMF2000-M3_ProjectRad\SC2021_Workspace_PRad\eNVM\Debug/../main.c:265
                        MSS_UART_polled_tx_string(&g_mss_uart0,(const uint8_t*)"\n\r**********************************************************************\n\r");
200030fe:	491c      	ldr	r1, [pc, #112]	; (20003170 <main+0x2c0>)
20003100:	4816      	ldr	r0, [pc, #88]	; (2000315c <main+0x2ac>)
20003102:	f7fd fa9d 	bl	20000640 <MSS_UART_polled_tx_string>
C:\Microchip\Libero_SoC_v2024.2\Designer\bin\projects\SMF2000-M3_ProjectRad\SC2021_Workspace_PRad\eNVM\Debug/../main.c:266
                        break;
20003106:	e016      	b.n	20003136 <main+0x286>
C:\Microchip\Libero_SoC_v2024.2\Designer\bin\projects\SMF2000-M3_ProjectRad\SC2021_Workspace_PRad\eNVM\Debug/../main.c:268
                    case '4':
                        MSS_UART_polled_tx_string(&g_mss_uart0,(const uint8_t*)"Writting 0...\n\r");
20003108:	4929      	ldr	r1, [pc, #164]	; (200031b0 <main+0x300>)
2000310a:	4814      	ldr	r0, [pc, #80]	; (2000315c <main+0x2ac>)
2000310c:	f7fd fa98 	bl	20000640 <MSS_UART_polled_tx_string>
C:\Microchip\Libero_SoC_v2024.2\Designer\bin\projects\SMF2000-M3_ProjectRad\SC2021_Workspace_PRad\eNVM\Debug/../main.c:269
                        write_nvm(&g_mss_uart0, 0x00);
20003110:	2100      	movs	r1, #0
20003112:	4812      	ldr	r0, [pc, #72]	; (2000315c <main+0x2ac>)
20003114:	f7ff fca2 	bl	20002a5c <write_nvm>
C:\Microchip\Libero_SoC_v2024.2\Designer\bin\projects\SMF2000-M3_ProjectRad\SC2021_Workspace_PRad\eNVM\Debug/../main.c:270
                        break;
20003118:	e00d      	b.n	20003136 <main+0x286>
C:\Microchip\Libero_SoC_v2024.2\Designer\bin\projects\SMF2000-M3_ProjectRad\SC2021_Workspace_PRad\eNVM\Debug/../main.c:272
                    case '5':
                        MSS_UART_polled_tx_string(&g_mss_uart0,(const uint8_t*)"Writting Value...\n\r");
2000311a:	4926      	ldr	r1, [pc, #152]	; (200031b4 <main+0x304>)
2000311c:	480f      	ldr	r0, [pc, #60]	; (2000315c <main+0x2ac>)
2000311e:	f7fd fa8f 	bl	20000640 <MSS_UART_polled_tx_string>
C:\Microchip\Libero_SoC_v2024.2\Designer\bin\projects\SMF2000-M3_ProjectRad\SC2021_Workspace_PRad\eNVM\Debug/../main.c:273
                        write_nvm(&g_mss_uart0, 0xFF);
20003122:	21ff      	movs	r1, #255	; 0xff
20003124:	480d      	ldr	r0, [pc, #52]	; (2000315c <main+0x2ac>)
20003126:	f7ff fc99 	bl	20002a5c <write_nvm>
C:\Microchip\Libero_SoC_v2024.2\Designer\bin\projects\SMF2000-M3_ProjectRad\SC2021_Workspace_PRad\eNVM\Debug/../main.c:274
                        break;
2000312a:	e004      	b.n	20003136 <main+0x286>
C:\Microchip\Libero_SoC_v2024.2\Designer\bin\projects\SMF2000-M3_ProjectRad\SC2021_Workspace_PRad\eNVM\Debug/../main.c:276
                    case '6':
                        exit_prg = 0;
2000312c:	2300      	movs	r3, #0
2000312e:	f887 319b 	strb.w	r3, [r7, #411]	; 0x19b
C:\Microchip\Libero_SoC_v2024.2\Designer\bin\projects\SMF2000-M3_ProjectRad\SC2021_Workspace_PRad\eNVM\Debug/../main.c:278
                    default:
                        break;
20003132:	e000      	b.n	20003136 <main+0x286>
C:\Microchip\Libero_SoC_v2024.2\Designer\bin\projects\SMF2000-M3_ProjectRad\SC2021_Workspace_PRad\eNVM\Debug/../main.c:280
                    }
            }
20003134:	bf00      	nop
C:\Microchip\Libero_SoC_v2024.2\Designer\bin\projects\SMF2000-M3_ProjectRad\SC2021_Workspace_PRad\eNVM\Debug/../main.c:245
        while(exit_prg != 0) {  // Inner loop for the iterations
20003136:	f897 319b 	ldrb.w	r3, [r7, #411]	; 0x19b
2000313a:	2b00      	cmp	r3, #0
2000313c:	f47f af7d 	bne.w	2000303a <main+0x18a>
C:\Microchip\Libero_SoC_v2024.2\Designer\bin\projects\SMF2000-M3_ProjectRad\SC2021_Workspace_PRad\eNVM\Debug/../main.c:282
        }
        xxx=0;
20003140:	2300      	movs	r3, #0
20003142:	f887 319a 	strb.w	r3, [r7, #410]	; 0x19a
C:\Microchip\Libero_SoC_v2024.2\Designer\bin\projects\SMF2000-M3_ProjectRad\SC2021_Workspace_PRad\eNVM\Debug/../main.c:234
    while(xxx==1)
20003146:	f897 319a 	ldrb.w	r3, [r7, #410]	; 0x19a
2000314a:	2b01      	cmp	r3, #1
2000314c:	f43f af54 	beq.w	20002ff8 <main+0x148>
20003150:	2300      	movs	r3, #0
C:\Microchip\Libero_SoC_v2024.2\Designer\bin\projects\SMF2000-M3_ProjectRad\SC2021_Workspace_PRad\eNVM\Debug/../main.c:284
    }
}
20003152:	4618      	mov	r0, r3
20003154:	f507 77d0 	add.w	r7, r7, #416	; 0x1a0
20003158:	46bd      	mov	sp, r7
2000315a:	bd80      	pop	{r7, pc}
2000315c:	2000942c 	.word	0x2000942c
20003160:	200085ec 	.word	0x200085ec
20003164:	2000839c 	.word	0x2000839c
20003168:	40038000 	.word	0x40038000
2000316c:	2000845c 	.word	0x2000845c
20003170:	20008350 	.word	0x20008350
20003174:	20008468 	.word	0x20008468
20003178:	200084b0 	.word	0x200084b0
2000317c:	200084fc 	.word	0x200084fc
20003180:	2000844c 	.word	0x2000844c
20003184:	20008518 	.word	0x20008518
20003188:	20008524 	.word	0x20008524
2000318c:	20008534 	.word	0x20008534
20003190:	20008540 	.word	0x20008540
20003194:	20008550 	.word	0x20008550
20003198:	20008560 	.word	0x20008560
2000319c:	20008574 	.word	0x20008574
200031a0:	20008580 	.word	0x20008580
200031a4:	20008594 	.word	0x20008594
200031a8:	200085a4 	.word	0x200085a4
200031ac:	200085b4 	.word	0x200085b4
200031b0:	200085c8 	.word	0x200085c8
200031b4:	200085d8 	.word	0x200085d8

200031b8 <RTC_TIMESTAMP>:
RTC_TIMESTAMP():
C:\Microchip\Libero_SoC_v2024.2\Designer\bin\projects\SMF2000-M3_ProjectRad\SC2021_Workspace_PRad\eNVM\Debug/../main.c:287

void RTC_TIMESTAMP(mss_uart_instance_t * this_uart)
{
200031b8:	b590      	push	{r4, r7, lr}
200031ba:	b09f      	sub	sp, #124	; 0x7c
200031bc:	af02      	add	r7, sp, #8
200031be:	6078      	str	r0, [r7, #4]
C:\Microchip\Libero_SoC_v2024.2\Designer\bin\projects\SMF2000-M3_ProjectRad\SC2021_Workspace_PRad\eNVM\Debug/../main.c:288
    uint8_t msg[100] = "";
200031c0:	2300      	movs	r3, #0
200031c2:	60fb      	str	r3, [r7, #12]
200031c4:	f107 0310 	add.w	r3, r7, #16
200031c8:	2260      	movs	r2, #96	; 0x60
200031ca:	2100      	movs	r1, #0
200031cc:	4618      	mov	r0, r3
200031ce:	f000 fb7d 	bl	200038cc <memset>
C:\Microchip\Libero_SoC_v2024.2\Designer\bin\projects\SMF2000-M3_ProjectRad\SC2021_Workspace_PRad\eNVM\Debug/../main.c:292

    // RTC Timestamp
    sprintf (msg,"\n\r[RTC-Time]\t%u:%02u:%02u:%02u (Day, hour, minute, second)",
            rtcOverflow.day, rtcOverflow.hour,
200031d2:	4b0f      	ldr	r3, [pc, #60]	; (20003210 <RTC_TIMESTAMP+0x58>)
200031d4:	791b      	ldrb	r3, [r3, #4]
C:\Microchip\Libero_SoC_v2024.2\Designer\bin\projects\SMF2000-M3_ProjectRad\SC2021_Workspace_PRad\eNVM\Debug/../main.c:291
    sprintf (msg,"\n\r[RTC-Time]\t%u:%02u:%02u:%02u (Day, hour, minute, second)",
200031d6:	4619      	mov	r1, r3
C:\Microchip\Libero_SoC_v2024.2\Designer\bin\projects\SMF2000-M3_ProjectRad\SC2021_Workspace_PRad\eNVM\Debug/../main.c:292
            rtcOverflow.day, rtcOverflow.hour,
200031d8:	4b0d      	ldr	r3, [pc, #52]	; (20003210 <RTC_TIMESTAMP+0x58>)
200031da:	78db      	ldrb	r3, [r3, #3]
C:\Microchip\Libero_SoC_v2024.2\Designer\bin\projects\SMF2000-M3_ProjectRad\SC2021_Workspace_PRad\eNVM\Debug/../main.c:291
    sprintf (msg,"\n\r[RTC-Time]\t%u:%02u:%02u:%02u (Day, hour, minute, second)",
200031dc:	461c      	mov	r4, r3
C:\Microchip\Libero_SoC_v2024.2\Designer\bin\projects\SMF2000-M3_ProjectRad\SC2021_Workspace_PRad\eNVM\Debug/../main.c:293
            rtcOverflow.minute, rtcOverflow.second);
200031de:	4b0c      	ldr	r3, [pc, #48]	; (20003210 <RTC_TIMESTAMP+0x58>)
200031e0:	789b      	ldrb	r3, [r3, #2]
C:\Microchip\Libero_SoC_v2024.2\Designer\bin\projects\SMF2000-M3_ProjectRad\SC2021_Workspace_PRad\eNVM\Debug/../main.c:291
    sprintf (msg,"\n\r[RTC-Time]\t%u:%02u:%02u:%02u (Day, hour, minute, second)",
200031e2:	461a      	mov	r2, r3
C:\Microchip\Libero_SoC_v2024.2\Designer\bin\projects\SMF2000-M3_ProjectRad\SC2021_Workspace_PRad\eNVM\Debug/../main.c:293
            rtcOverflow.minute, rtcOverflow.second);
200031e4:	4b0a      	ldr	r3, [pc, #40]	; (20003210 <RTC_TIMESTAMP+0x58>)
200031e6:	785b      	ldrb	r3, [r3, #1]
C:\Microchip\Libero_SoC_v2024.2\Designer\bin\projects\SMF2000-M3_ProjectRad\SC2021_Workspace_PRad\eNVM\Debug/../main.c:291
    sprintf (msg,"\n\r[RTC-Time]\t%u:%02u:%02u:%02u (Day, hour, minute, second)",
200031e8:	f107 000c 	add.w	r0, r7, #12
200031ec:	9301      	str	r3, [sp, #4]
200031ee:	9200      	str	r2, [sp, #0]
200031f0:	4623      	mov	r3, r4
200031f2:	460a      	mov	r2, r1
200031f4:	4907      	ldr	r1, [pc, #28]	; (20003214 <RTC_TIMESTAMP+0x5c>)
200031f6:	f000 fbd7 	bl	200039a8 <sprintf>
C:\Microchip\Libero_SoC_v2024.2\Designer\bin\projects\SMF2000-M3_ProjectRad\SC2021_Workspace_PRad\eNVM\Debug/../main.c:294
    MSS_UART_polled_tx_string (&g_mss_uart0, msg);
200031fa:	f107 030c 	add.w	r3, r7, #12
200031fe:	4619      	mov	r1, r3
20003200:	4805      	ldr	r0, [pc, #20]	; (20003218 <RTC_TIMESTAMP+0x60>)
20003202:	f7fd fa1d 	bl	20000640 <MSS_UART_polled_tx_string>
C:\Microchip\Libero_SoC_v2024.2\Designer\bin\projects\SMF2000-M3_ProjectRad\SC2021_Workspace_PRad\eNVM\Debug/../main.c:295
}
20003206:	bf00      	nop
20003208:	3774      	adds	r7, #116	; 0x74
2000320a:	46bd      	mov	sp, r7
2000320c:	bd90      	pop	{r4, r7, pc}
2000320e:	bf00      	nop
20003210:	200093b0 	.word	0x200093b0
20003214:	2000866c 	.word	0x2000866c
20003218:	2000942c 	.word	0x2000942c

2000321c <__libc_init_array>:
__libc_init_array():
2000321c:	b570      	push	{r4, r5, r6, lr}
2000321e:	4e0d      	ldr	r6, [pc, #52]	; (20003254 <__libc_init_array+0x38>)
20003220:	4d0d      	ldr	r5, [pc, #52]	; (20003258 <__libc_init_array+0x3c>)
20003222:	1b76      	subs	r6, r6, r5
20003224:	10b6      	asrs	r6, r6, #2
20003226:	d006      	beq.n	20003236 <__libc_init_array+0x1a>
20003228:	2400      	movs	r4, #0
2000322a:	f855 3b04 	ldr.w	r3, [r5], #4
2000322e:	3401      	adds	r4, #1
20003230:	4798      	blx	r3
20003232:	42a6      	cmp	r6, r4
20003234:	d1f9      	bne.n	2000322a <__libc_init_array+0xe>
20003236:	4e09      	ldr	r6, [pc, #36]	; (2000325c <__libc_init_array+0x40>)
20003238:	4d09      	ldr	r5, [pc, #36]	; (20003260 <__libc_init_array+0x44>)
2000323a:	f005 fb79 	bl	20008930 <_init>
2000323e:	1b76      	subs	r6, r6, r5
20003240:	10b6      	asrs	r6, r6, #2
20003242:	d006      	beq.n	20003252 <__libc_init_array+0x36>
20003244:	2400      	movs	r4, #0
20003246:	f855 3b04 	ldr.w	r3, [r5], #4
2000324a:	3401      	adds	r4, #1
2000324c:	4798      	blx	r3
2000324e:	42a6      	cmp	r6, r4
20003250:	d1f9      	bne.n	20003246 <__libc_init_array+0x2a>
20003252:	bd70      	pop	{r4, r5, r6, pc}
20003254:	20008948 	.word	0x20008948
20003258:	20008948 	.word	0x20008948
2000325c:	20008950 	.word	0x20008950
20003260:	20008948 	.word	0x20008948

20003264 <malloc>:
malloc():
20003264:	4b02      	ldr	r3, [pc, #8]	; (20003270 <malloc+0xc>)
20003266:	4601      	mov	r1, r0
20003268:	6818      	ldr	r0, [r3, #0]
2000326a:	f000 b80b 	b.w	20003284 <_malloc_r>
2000326e:	bf00      	nop
20003270:	2000898c 	.word	0x2000898c

20003274 <free>:
free():
20003274:	4b02      	ldr	r3, [pc, #8]	; (20003280 <free+0xc>)
20003276:	4601      	mov	r1, r0
20003278:	6818      	ldr	r0, [r3, #0]
2000327a:	f003 b9ad 	b.w	200065d8 <_free_r>
2000327e:	bf00      	nop
20003280:	2000898c 	.word	0x2000898c

20003284 <_malloc_r>:
_malloc_r():
20003284:	e92d 4ff0 	stmdb	sp!, {r4, r5, r6, r7, r8, r9, sl, fp, lr}
20003288:	f101 050b 	add.w	r5, r1, #11
2000328c:	2d16      	cmp	r5, #22
2000328e:	4606      	mov	r6, r0
20003290:	b083      	sub	sp, #12
20003292:	d824      	bhi.n	200032de <_malloc_r+0x5a>
20003294:	2910      	cmp	r1, #16
20003296:	f200 80b6 	bhi.w	20003406 <_malloc_r+0x182>
2000329a:	f000 fb67 	bl	2000396c <__malloc_lock>
2000329e:	2510      	movs	r5, #16
200032a0:	2002      	movs	r0, #2
200032a2:	2318      	movs	r3, #24
200032a4:	f8df 84e8 	ldr.w	r8, [pc, #1256]	; 20003790 <_malloc_r+0x50c>
200032a8:	4443      	add	r3, r8
200032aa:	685c      	ldr	r4, [r3, #4]
200032ac:	f1a3 0208 	sub.w	r2, r3, #8
200032b0:	4294      	cmp	r4, r2
200032b2:	f000 80b4 	beq.w	2000341e <_malloc_r+0x19a>
200032b6:	6863      	ldr	r3, [r4, #4]
200032b8:	68e1      	ldr	r1, [r4, #12]
200032ba:	f023 0303 	bic.w	r3, r3, #3
200032be:	4423      	add	r3, r4
200032c0:	685a      	ldr	r2, [r3, #4]
200032c2:	68a5      	ldr	r5, [r4, #8]
200032c4:	f042 0201 	orr.w	r2, r2, #1
200032c8:	60e9      	str	r1, [r5, #12]
200032ca:	4630      	mov	r0, r6
200032cc:	608d      	str	r5, [r1, #8]
200032ce:	3408      	adds	r4, #8
200032d0:	605a      	str	r2, [r3, #4]
200032d2:	f000 fb51 	bl	20003978 <__malloc_unlock>
200032d6:	4620      	mov	r0, r4
200032d8:	b003      	add	sp, #12
200032da:	e8bd 8ff0 	ldmia.w	sp!, {r4, r5, r6, r7, r8, r9, sl, fp, pc}
200032de:	f035 0507 	bics.w	r5, r5, #7
200032e2:	f100 8090 	bmi.w	20003406 <_malloc_r+0x182>
200032e6:	42a9      	cmp	r1, r5
200032e8:	f200 808d 	bhi.w	20003406 <_malloc_r+0x182>
200032ec:	f000 fb3e 	bl	2000396c <__malloc_lock>
200032f0:	f5b5 7ffc 	cmp.w	r5, #504	; 0x1f8
200032f4:	f0c0 8185 	bcc.w	20003602 <_malloc_r+0x37e>
200032f8:	0a6b      	lsrs	r3, r5, #9
200032fa:	f000 808b 	beq.w	20003414 <_malloc_r+0x190>
200032fe:	2b04      	cmp	r3, #4
20003300:	f200 815b 	bhi.w	200035ba <_malloc_r+0x336>
20003304:	09ab      	lsrs	r3, r5, #6
20003306:	f103 0039 	add.w	r0, r3, #57	; 0x39
2000330a:	f103 0738 	add.w	r7, r3, #56	; 0x38
2000330e:	00c1      	lsls	r1, r0, #3
20003310:	f8df 847c 	ldr.w	r8, [pc, #1148]	; 20003790 <_malloc_r+0x50c>
20003314:	4441      	add	r1, r8
20003316:	684c      	ldr	r4, [r1, #4]
20003318:	3908      	subs	r1, #8
2000331a:	42a1      	cmp	r1, r4
2000331c:	d106      	bne.n	2000332c <_malloc_r+0xa8>
2000331e:	e00c      	b.n	2000333a <_malloc_r+0xb6>
20003320:	2a00      	cmp	r2, #0
20003322:	f280 8122 	bge.w	2000356a <_malloc_r+0x2e6>
20003326:	68e4      	ldr	r4, [r4, #12]
20003328:	42a1      	cmp	r1, r4
2000332a:	d006      	beq.n	2000333a <_malloc_r+0xb6>
2000332c:	6863      	ldr	r3, [r4, #4]
2000332e:	f023 0303 	bic.w	r3, r3, #3
20003332:	1b5a      	subs	r2, r3, r5
20003334:	2a0f      	cmp	r2, #15
20003336:	ddf3      	ble.n	20003320 <_malloc_r+0x9c>
20003338:	4638      	mov	r0, r7
2000333a:	f8d8 4010 	ldr.w	r4, [r8, #16]
2000333e:	f8df c454 	ldr.w	ip, [pc, #1108]	; 20003794 <_malloc_r+0x510>
20003342:	4564      	cmp	r4, ip
20003344:	d077      	beq.n	20003436 <_malloc_r+0x1b2>
20003346:	6862      	ldr	r2, [r4, #4]
20003348:	f022 0203 	bic.w	r2, r2, #3
2000334c:	1b53      	subs	r3, r2, r5
2000334e:	2b0f      	cmp	r3, #15
20003350:	f300 8165 	bgt.w	2000361e <_malloc_r+0x39a>
20003354:	2b00      	cmp	r3, #0
20003356:	e9c8 cc04 	strd	ip, ip, [r8, #16]
2000335a:	f280 8156 	bge.w	2000360a <_malloc_r+0x386>
2000335e:	f5b2 7f00 	cmp.w	r2, #512	; 0x200
20003362:	f080 8106 	bcs.w	20003572 <_malloc_r+0x2ee>
20003366:	2101      	movs	r1, #1
20003368:	08d3      	lsrs	r3, r2, #3
2000336a:	0952      	lsrs	r2, r2, #5
2000336c:	440b      	add	r3, r1
2000336e:	fa01 f202 	lsl.w	r2, r1, r2
20003372:	f8d8 1004 	ldr.w	r1, [r8, #4]
20003376:	f858 7033 	ldr.w	r7, [r8, r3, lsl #3]
2000337a:	eb08 0ec3 	add.w	lr, r8, r3, lsl #3
2000337e:	430a      	orrs	r2, r1
20003380:	f1ae 0108 	sub.w	r1, lr, #8
20003384:	e9c4 7102 	strd	r7, r1, [r4, #8]
20003388:	f8c8 2004 	str.w	r2, [r8, #4]
2000338c:	f848 4033 	str.w	r4, [r8, r3, lsl #3]
20003390:	60fc      	str	r4, [r7, #12]
20003392:	2101      	movs	r1, #1
20003394:	1083      	asrs	r3, r0, #2
20003396:	4099      	lsls	r1, r3
20003398:	4291      	cmp	r1, r2
2000339a:	d853      	bhi.n	20003444 <_malloc_r+0x1c0>
2000339c:	4211      	tst	r1, r2
2000339e:	d106      	bne.n	200033ae <_malloc_r+0x12a>
200033a0:	f020 0003 	bic.w	r0, r0, #3
200033a4:	0049      	lsls	r1, r1, #1
200033a6:	4211      	tst	r1, r2
200033a8:	f100 0004 	add.w	r0, r0, #4
200033ac:	d0fa      	beq.n	200033a4 <_malloc_r+0x120>
200033ae:	eb08 09c0 	add.w	r9, r8, r0, lsl #3
200033b2:	464c      	mov	r4, r9
200033b4:	4686      	mov	lr, r0
200033b6:	68e7      	ldr	r7, [r4, #12]
200033b8:	42bc      	cmp	r4, r7
200033ba:	d107      	bne.n	200033cc <_malloc_r+0x148>
200033bc:	e109      	b.n	200035d2 <_malloc_r+0x34e>
200033be:	2b00      	cmp	r3, #0
200033c0:	f280 8110 	bge.w	200035e4 <_malloc_r+0x360>
200033c4:	68ff      	ldr	r7, [r7, #12]
200033c6:	42bc      	cmp	r4, r7
200033c8:	f000 8103 	beq.w	200035d2 <_malloc_r+0x34e>
200033cc:	687a      	ldr	r2, [r7, #4]
200033ce:	f022 0203 	bic.w	r2, r2, #3
200033d2:	1b53      	subs	r3, r2, r5
200033d4:	2b0f      	cmp	r3, #15
200033d6:	ddf2      	ble.n	200033be <_malloc_r+0x13a>
200033d8:	f045 0e01 	orr.w	lr, r5, #1
200033dc:	4630      	mov	r0, r6
200033de:	e9d7 4102 	ldrd	r4, r1, [r7, #8]
200033e2:	443d      	add	r5, r7
200033e4:	f043 0601 	orr.w	r6, r3, #1
200033e8:	f8c7 e004 	str.w	lr, [r7, #4]
200033ec:	60e1      	str	r1, [r4, #12]
200033ee:	608c      	str	r4, [r1, #8]
200033f0:	e9c8 5504 	strd	r5, r5, [r8, #16]
200033f4:	e9c5 cc02 	strd	ip, ip, [r5, #8]
200033f8:	606e      	str	r6, [r5, #4]
200033fa:	50bb      	str	r3, [r7, r2]
200033fc:	f000 fabc 	bl	20003978 <__malloc_unlock>
20003400:	f107 0408 	add.w	r4, r7, #8
20003404:	e002      	b.n	2000340c <_malloc_r+0x188>
20003406:	230c      	movs	r3, #12
20003408:	2400      	movs	r4, #0
2000340a:	6033      	str	r3, [r6, #0]
2000340c:	4620      	mov	r0, r4
2000340e:	b003      	add	sp, #12
20003410:	e8bd 8ff0 	ldmia.w	sp!, {r4, r5, r6, r7, r8, r9, sl, fp, pc}
20003414:	f44f 7100 	mov.w	r1, #512	; 0x200
20003418:	2040      	movs	r0, #64	; 0x40
2000341a:	273f      	movs	r7, #63	; 0x3f
2000341c:	e778      	b.n	20003310 <_malloc_r+0x8c>
2000341e:	68dc      	ldr	r4, [r3, #12]
20003420:	42a3      	cmp	r3, r4
20003422:	bf08      	it	eq
20003424:	3002      	addeq	r0, #2
20003426:	f47f af46 	bne.w	200032b6 <_malloc_r+0x32>
2000342a:	f8d8 4010 	ldr.w	r4, [r8, #16]
2000342e:	f8df c364 	ldr.w	ip, [pc, #868]	; 20003794 <_malloc_r+0x510>
20003432:	4564      	cmp	r4, ip
20003434:	d187      	bne.n	20003346 <_malloc_r+0xc2>
20003436:	2101      	movs	r1, #1
20003438:	f8d8 2004 	ldr.w	r2, [r8, #4]
2000343c:	1083      	asrs	r3, r0, #2
2000343e:	4099      	lsls	r1, r3
20003440:	4291      	cmp	r1, r2
20003442:	d9ab      	bls.n	2000339c <_malloc_r+0x118>
20003444:	f8d8 4008 	ldr.w	r4, [r8, #8]
20003448:	6867      	ldr	r7, [r4, #4]
2000344a:	f027 0703 	bic.w	r7, r7, #3
2000344e:	42bd      	cmp	r5, r7
20003450:	d802      	bhi.n	20003458 <_malloc_r+0x1d4>
20003452:	1b7b      	subs	r3, r7, r5
20003454:	2b0f      	cmp	r3, #15
20003456:	dc77      	bgt.n	20003548 <_malloc_r+0x2c4>
20003458:	f8df 933c 	ldr.w	r9, [pc, #828]	; 20003798 <_malloc_r+0x514>
2000345c:	4bc8      	ldr	r3, [pc, #800]	; (20003780 <_malloc_r+0x4fc>)
2000345e:	f8d9 2000 	ldr.w	r2, [r9]
20003462:	681b      	ldr	r3, [r3, #0]
20003464:	3201      	adds	r2, #1
20003466:	442b      	add	r3, r5
20003468:	eb04 0a07 	add.w	sl, r4, r7
2000346c:	f000 8124 	beq.w	200036b8 <_malloc_r+0x434>
20003470:	f503 5380 	add.w	r3, r3, #4096	; 0x1000
20003474:	330f      	adds	r3, #15
20003476:	f423 6b7f 	bic.w	fp, r3, #4080	; 0xff0
2000347a:	f02b 0b0f 	bic.w	fp, fp, #15
2000347e:	4659      	mov	r1, fp
20003480:	4630      	mov	r0, r6
20003482:	f000 fa7f 	bl	20003984 <_sbrk_r>
20003486:	1c41      	adds	r1, r0, #1
20003488:	4602      	mov	r2, r0
2000348a:	f000 80e1 	beq.w	20003650 <_malloc_r+0x3cc>
2000348e:	4582      	cmp	sl, r0
20003490:	f200 80dc 	bhi.w	2000364c <_malloc_r+0x3c8>
20003494:	4bbb      	ldr	r3, [pc, #748]	; (20003784 <_malloc_r+0x500>)
20003496:	6819      	ldr	r1, [r3, #0]
20003498:	4459      	add	r1, fp
2000349a:	4608      	mov	r0, r1
2000349c:	6019      	str	r1, [r3, #0]
2000349e:	f000 8141 	beq.w	20003724 <_malloc_r+0x4a0>
200034a2:	f8d9 1000 	ldr.w	r1, [r9]
200034a6:	9301      	str	r3, [sp, #4]
200034a8:	3101      	adds	r1, #1
200034aa:	bf1b      	ittet	ne
200034ac:	eba2 0a0a 	subne.w	sl, r2, sl
200034b0:	4450      	addne	r0, sl
200034b2:	f8c9 2000 	streq.w	r2, [r9]
200034b6:	6018      	strne	r0, [r3, #0]
200034b8:	f012 0a07 	ands.w	sl, r2, #7
200034bc:	f000 810a 	beq.w	200036d4 <_malloc_r+0x450>
200034c0:	f1ca 0108 	rsb	r1, sl, #8
200034c4:	440a      	add	r2, r1
200034c6:	f5ca 5180 	rsb	r1, sl, #4096	; 0x1000
200034ca:	4493      	add	fp, r2
200034cc:	3108      	adds	r1, #8
200034ce:	eba1 010b 	sub.w	r1, r1, fp
200034d2:	f3c1 090b 	ubfx	r9, r1, #0, #12
200034d6:	4649      	mov	r1, r9
200034d8:	4630      	mov	r0, r6
200034da:	9200      	str	r2, [sp, #0]
200034dc:	f000 fa52 	bl	20003984 <_sbrk_r>
200034e0:	1c42      	adds	r2, r0, #1
200034e2:	e9dd 2300 	ldrd	r2, r3, [sp]
200034e6:	f000 8143 	beq.w	20003770 <_malloc_r+0x4ec>
200034ea:	1a80      	subs	r0, r0, r2
200034ec:	eb00 0b09 	add.w	fp, r0, r9
200034f0:	6819      	ldr	r1, [r3, #0]
200034f2:	f04b 0001 	orr.w	r0, fp, #1
200034f6:	4449      	add	r1, r9
200034f8:	4544      	cmp	r4, r8
200034fa:	f8c8 2008 	str.w	r2, [r8, #8]
200034fe:	6019      	str	r1, [r3, #0]
20003500:	6050      	str	r0, [r2, #4]
20003502:	f000 811c 	beq.w	2000373e <_malloc_r+0x4ba>
20003506:	2f0f      	cmp	r7, #15
20003508:	f240 811b 	bls.w	20003742 <_malloc_r+0x4be>
2000350c:	f04f 0c05 	mov.w	ip, #5
20003510:	6860      	ldr	r0, [r4, #4]
20003512:	3f0c      	subs	r7, #12
20003514:	f027 0707 	bic.w	r7, r7, #7
20003518:	f000 0001 	and.w	r0, r0, #1
2000351c:	4338      	orrs	r0, r7
2000351e:	eb04 0e07 	add.w	lr, r4, r7
20003522:	2f0f      	cmp	r7, #15
20003524:	6060      	str	r0, [r4, #4]
20003526:	e9ce cc01 	strd	ip, ip, [lr, #4]
2000352a:	f200 8137 	bhi.w	2000379c <_malloc_r+0x518>
2000352e:	4614      	mov	r4, r2
20003530:	6850      	ldr	r0, [r2, #4]
20003532:	4b95      	ldr	r3, [pc, #596]	; (20003788 <_malloc_r+0x504>)
20003534:	681a      	ldr	r2, [r3, #0]
20003536:	428a      	cmp	r2, r1
20003538:	bf38      	it	cc
2000353a:	6019      	strcc	r1, [r3, #0]
2000353c:	4b93      	ldr	r3, [pc, #588]	; (2000378c <_malloc_r+0x508>)
2000353e:	681a      	ldr	r2, [r3, #0]
20003540:	428a      	cmp	r2, r1
20003542:	bf38      	it	cc
20003544:	6019      	strcc	r1, [r3, #0]
20003546:	e086      	b.n	20003656 <_malloc_r+0x3d2>
20003548:	f045 0201 	orr.w	r2, r5, #1
2000354c:	f043 0301 	orr.w	r3, r3, #1
20003550:	4425      	add	r5, r4
20003552:	6062      	str	r2, [r4, #4]
20003554:	4630      	mov	r0, r6
20003556:	f8c8 5008 	str.w	r5, [r8, #8]
2000355a:	3408      	adds	r4, #8
2000355c:	606b      	str	r3, [r5, #4]
2000355e:	f000 fa0b 	bl	20003978 <__malloc_unlock>
20003562:	4620      	mov	r0, r4
20003564:	b003      	add	sp, #12
20003566:	e8bd 8ff0 	ldmia.w	sp!, {r4, r5, r6, r7, r8, r9, sl, fp, pc}
2000356a:	4423      	add	r3, r4
2000356c:	685a      	ldr	r2, [r3, #4]
2000356e:	68e1      	ldr	r1, [r4, #12]
20003570:	e6a7      	b.n	200032c2 <_malloc_r+0x3e>
20003572:	f5b2 6f20 	cmp.w	r2, #2560	; 0xa00
20003576:	ea4f 2352 	mov.w	r3, r2, lsr #9
2000357a:	d361      	bcc.n	20003640 <_malloc_r+0x3bc>
2000357c:	2b14      	cmp	r3, #20
2000357e:	f200 80ba 	bhi.w	200036f6 <_malloc_r+0x472>
20003582:	f103 015c 	add.w	r1, r3, #92	; 0x5c
20003586:	00c9      	lsls	r1, r1, #3
20003588:	335b      	adds	r3, #91	; 0x5b
2000358a:	eb08 0701 	add.w	r7, r8, r1
2000358e:	f858 1001 	ldr.w	r1, [r8, r1]
20003592:	3f08      	subs	r7, #8
20003594:	428f      	cmp	r7, r1
20003596:	f000 8092 	beq.w	200036be <_malloc_r+0x43a>
2000359a:	684b      	ldr	r3, [r1, #4]
2000359c:	f023 0303 	bic.w	r3, r3, #3
200035a0:	4293      	cmp	r3, r2
200035a2:	d902      	bls.n	200035aa <_malloc_r+0x326>
200035a4:	6889      	ldr	r1, [r1, #8]
200035a6:	428f      	cmp	r7, r1
200035a8:	d1f7      	bne.n	2000359a <_malloc_r+0x316>
200035aa:	68cf      	ldr	r7, [r1, #12]
200035ac:	f8d8 2004 	ldr.w	r2, [r8, #4]
200035b0:	e9c4 1702 	strd	r1, r7, [r4, #8]
200035b4:	60bc      	str	r4, [r7, #8]
200035b6:	60cc      	str	r4, [r1, #12]
200035b8:	e6eb      	b.n	20003392 <_malloc_r+0x10e>
200035ba:	2b14      	cmp	r3, #20
200035bc:	d959      	bls.n	20003672 <_malloc_r+0x3ee>
200035be:	2b54      	cmp	r3, #84	; 0x54
200035c0:	f200 80a1 	bhi.w	20003706 <_malloc_r+0x482>
200035c4:	0b2b      	lsrs	r3, r5, #12
200035c6:	f103 006f 	add.w	r0, r3, #111	; 0x6f
200035ca:	f103 076e 	add.w	r7, r3, #110	; 0x6e
200035ce:	00c1      	lsls	r1, r0, #3
200035d0:	e69e      	b.n	20003310 <_malloc_r+0x8c>
200035d2:	f10e 0e01 	add.w	lr, lr, #1
200035d6:	f01e 0f03 	tst.w	lr, #3
200035da:	f104 0408 	add.w	r4, r4, #8
200035de:	f47f aeea 	bne.w	200033b6 <_malloc_r+0x132>
200035e2:	e051      	b.n	20003688 <_malloc_r+0x404>
200035e4:	463c      	mov	r4, r7
200035e6:	443a      	add	r2, r7
200035e8:	6853      	ldr	r3, [r2, #4]
200035ea:	68f9      	ldr	r1, [r7, #12]
200035ec:	f854 5f08 	ldr.w	r5, [r4, #8]!
200035f0:	f043 0301 	orr.w	r3, r3, #1
200035f4:	6053      	str	r3, [r2, #4]
200035f6:	4630      	mov	r0, r6
200035f8:	60e9      	str	r1, [r5, #12]
200035fa:	608d      	str	r5, [r1, #8]
200035fc:	f000 f9bc 	bl	20003978 <__malloc_unlock>
20003600:	e704      	b.n	2000340c <_malloc_r+0x188>
20003602:	08e8      	lsrs	r0, r5, #3
20003604:	f105 0308 	add.w	r3, r5, #8
20003608:	e64c      	b.n	200032a4 <_malloc_r+0x20>
2000360a:	4422      	add	r2, r4
2000360c:	6853      	ldr	r3, [r2, #4]
2000360e:	4630      	mov	r0, r6
20003610:	f043 0301 	orr.w	r3, r3, #1
20003614:	6053      	str	r3, [r2, #4]
20003616:	3408      	adds	r4, #8
20003618:	f000 f9ae 	bl	20003978 <__malloc_unlock>
2000361c:	e6f6      	b.n	2000340c <_malloc_r+0x188>
2000361e:	f045 0701 	orr.w	r7, r5, #1
20003622:	f043 0101 	orr.w	r1, r3, #1
20003626:	4425      	add	r5, r4
20003628:	6067      	str	r7, [r4, #4]
2000362a:	4630      	mov	r0, r6
2000362c:	e9c8 5504 	strd	r5, r5, [r8, #16]
20003630:	e9c5 cc02 	strd	ip, ip, [r5, #8]
20003634:	6069      	str	r1, [r5, #4]
20003636:	50a3      	str	r3, [r4, r2]
20003638:	f000 f99e 	bl	20003978 <__malloc_unlock>
2000363c:	3408      	adds	r4, #8
2000363e:	e6e5      	b.n	2000340c <_malloc_r+0x188>
20003640:	0993      	lsrs	r3, r2, #6
20003642:	f103 0139 	add.w	r1, r3, #57	; 0x39
20003646:	00c9      	lsls	r1, r1, #3
20003648:	3338      	adds	r3, #56	; 0x38
2000364a:	e79e      	b.n	2000358a <_malloc_r+0x306>
2000364c:	4544      	cmp	r4, r8
2000364e:	d064      	beq.n	2000371a <_malloc_r+0x496>
20003650:	f8d8 4008 	ldr.w	r4, [r8, #8]
20003654:	6860      	ldr	r0, [r4, #4]
20003656:	f020 0b03 	bic.w	fp, r0, #3
2000365a:	455d      	cmp	r5, fp
2000365c:	ebab 0305 	sub.w	r3, fp, r5
20003660:	d802      	bhi.n	20003668 <_malloc_r+0x3e4>
20003662:	2b0f      	cmp	r3, #15
20003664:	f73f af70 	bgt.w	20003548 <_malloc_r+0x2c4>
20003668:	4630      	mov	r0, r6
2000366a:	f000 f985 	bl	20003978 <__malloc_unlock>
2000366e:	2400      	movs	r4, #0
20003670:	e6cc      	b.n	2000340c <_malloc_r+0x188>
20003672:	f103 005c 	add.w	r0, r3, #92	; 0x5c
20003676:	f103 075b 	add.w	r7, r3, #91	; 0x5b
2000367a:	00c1      	lsls	r1, r0, #3
2000367c:	e648      	b.n	20003310 <_malloc_r+0x8c>
2000367e:	f859 3908 	ldr.w	r3, [r9], #-8
20003682:	454b      	cmp	r3, r9
20003684:	f040 80a9 	bne.w	200037da <_malloc_r+0x556>
20003688:	f010 0f03 	tst.w	r0, #3
2000368c:	f100 30ff 	add.w	r0, r0, #4294967295
20003690:	d1f5      	bne.n	2000367e <_malloc_r+0x3fa>
20003692:	f8d8 3004 	ldr.w	r3, [r8, #4]
20003696:	ea23 0301 	bic.w	r3, r3, r1
2000369a:	f8c8 3004 	str.w	r3, [r8, #4]
2000369e:	0049      	lsls	r1, r1, #1
200036a0:	4299      	cmp	r1, r3
200036a2:	f63f aecf 	bhi.w	20003444 <_malloc_r+0x1c0>
200036a6:	b919      	cbnz	r1, 200036b0 <_malloc_r+0x42c>
200036a8:	e6cc      	b.n	20003444 <_malloc_r+0x1c0>
200036aa:	0049      	lsls	r1, r1, #1
200036ac:	f10e 0e04 	add.w	lr, lr, #4
200036b0:	4219      	tst	r1, r3
200036b2:	d0fa      	beq.n	200036aa <_malloc_r+0x426>
200036b4:	4670      	mov	r0, lr
200036b6:	e67a      	b.n	200033ae <_malloc_r+0x12a>
200036b8:	f103 0b10 	add.w	fp, r3, #16
200036bc:	e6df      	b.n	2000347e <_malloc_r+0x1fa>
200036be:	f04f 0e01 	mov.w	lr, #1
200036c2:	109a      	asrs	r2, r3, #2
200036c4:	f8d8 3004 	ldr.w	r3, [r8, #4]
200036c8:	fa0e f202 	lsl.w	r2, lr, r2
200036cc:	431a      	orrs	r2, r3
200036ce:	f8c8 2004 	str.w	r2, [r8, #4]
200036d2:	e76d      	b.n	200035b0 <_malloc_r+0x32c>
200036d4:	eb02 010b 	add.w	r1, r2, fp
200036d8:	4249      	negs	r1, r1
200036da:	f3c1 090b 	ubfx	r9, r1, #0, #12
200036de:	4649      	mov	r1, r9
200036e0:	4630      	mov	r0, r6
200036e2:	9200      	str	r2, [sp, #0]
200036e4:	f000 f94e 	bl	20003984 <_sbrk_r>
200036e8:	1c43      	adds	r3, r0, #1
200036ea:	e9dd 2300 	ldrd	r2, r3, [sp]
200036ee:	f47f aefc 	bne.w	200034ea <_malloc_r+0x266>
200036f2:	46d1      	mov	r9, sl
200036f4:	e6fc      	b.n	200034f0 <_malloc_r+0x26c>
200036f6:	2b54      	cmp	r3, #84	; 0x54
200036f8:	d826      	bhi.n	20003748 <_malloc_r+0x4c4>
200036fa:	0b13      	lsrs	r3, r2, #12
200036fc:	f103 016f 	add.w	r1, r3, #111	; 0x6f
20003700:	00c9      	lsls	r1, r1, #3
20003702:	336e      	adds	r3, #110	; 0x6e
20003704:	e741      	b.n	2000358a <_malloc_r+0x306>
20003706:	f5b3 7faa 	cmp.w	r3, #340	; 0x154
2000370a:	d826      	bhi.n	2000375a <_malloc_r+0x4d6>
2000370c:	0beb      	lsrs	r3, r5, #15
2000370e:	f103 0078 	add.w	r0, r3, #120	; 0x78
20003712:	f103 0777 	add.w	r7, r3, #119	; 0x77
20003716:	00c1      	lsls	r1, r0, #3
20003718:	e5fa      	b.n	20003310 <_malloc_r+0x8c>
2000371a:	4b1a      	ldr	r3, [pc, #104]	; (20003784 <_malloc_r+0x500>)
2000371c:	6818      	ldr	r0, [r3, #0]
2000371e:	4458      	add	r0, fp
20003720:	6018      	str	r0, [r3, #0]
20003722:	e6be      	b.n	200034a2 <_malloc_r+0x21e>
20003724:	f3ca 0c0b 	ubfx	ip, sl, #0, #12
20003728:	f1bc 0f00 	cmp.w	ip, #0
2000372c:	f47f aeb9 	bne.w	200034a2 <_malloc_r+0x21e>
20003730:	f8d8 4008 	ldr.w	r4, [r8, #8]
20003734:	44bb      	add	fp, r7
20003736:	f04b 0001 	orr.w	r0, fp, #1
2000373a:	6060      	str	r0, [r4, #4]
2000373c:	e6f9      	b.n	20003532 <_malloc_r+0x2ae>
2000373e:	4614      	mov	r4, r2
20003740:	e6f7      	b.n	20003532 <_malloc_r+0x2ae>
20003742:	2301      	movs	r3, #1
20003744:	6053      	str	r3, [r2, #4]
20003746:	e78f      	b.n	20003668 <_malloc_r+0x3e4>
20003748:	f5b3 7faa 	cmp.w	r3, #340	; 0x154
2000374c:	d832      	bhi.n	200037b4 <_malloc_r+0x530>
2000374e:	0bd3      	lsrs	r3, r2, #15
20003750:	f103 0178 	add.w	r1, r3, #120	; 0x78
20003754:	00c9      	lsls	r1, r1, #3
20003756:	3377      	adds	r3, #119	; 0x77
20003758:	e717      	b.n	2000358a <_malloc_r+0x306>
2000375a:	f240 5254 	movw	r2, #1364	; 0x554
2000375e:	4293      	cmp	r3, r2
20003760:	d832      	bhi.n	200037c8 <_malloc_r+0x544>
20003762:	0cab      	lsrs	r3, r5, #18
20003764:	f103 007d 	add.w	r0, r3, #125	; 0x7d
20003768:	f103 077c 	add.w	r7, r3, #124	; 0x7c
2000376c:	00c1      	lsls	r1, r0, #3
2000376e:	e5cf      	b.n	20003310 <_malloc_r+0x8c>
20003770:	f1aa 0a08 	sub.w	sl, sl, #8
20003774:	44d3      	add	fp, sl
20003776:	f04f 0900 	mov.w	r9, #0
2000377a:	ebab 0b02 	sub.w	fp, fp, r2
2000377e:	e6b7      	b.n	200034f0 <_malloc_r+0x26c>
20003780:	200093e8 	.word	0x200093e8
20003784:	200093b8 	.word	0x200093b8
20003788:	200093e0 	.word	0x200093e0
2000378c:	200093e4 	.word	0x200093e4
20003790:	20008db8 	.word	0x20008db8
20003794:	20008dc0 	.word	0x20008dc0
20003798:	200091c0 	.word	0x200091c0
2000379c:	f104 0108 	add.w	r1, r4, #8
200037a0:	4630      	mov	r0, r6
200037a2:	9300      	str	r3, [sp, #0]
200037a4:	f002 ff18 	bl	200065d8 <_free_r>
200037a8:	f8d8 4008 	ldr.w	r4, [r8, #8]
200037ac:	9b00      	ldr	r3, [sp, #0]
200037ae:	6860      	ldr	r0, [r4, #4]
200037b0:	6819      	ldr	r1, [r3, #0]
200037b2:	e6be      	b.n	20003532 <_malloc_r+0x2ae>
200037b4:	f240 5154 	movw	r1, #1364	; 0x554
200037b8:	428b      	cmp	r3, r1
200037ba:	d80a      	bhi.n	200037d2 <_malloc_r+0x54e>
200037bc:	0c93      	lsrs	r3, r2, #18
200037be:	f103 017d 	add.w	r1, r3, #125	; 0x7d
200037c2:	00c9      	lsls	r1, r1, #3
200037c4:	337c      	adds	r3, #124	; 0x7c
200037c6:	e6e0      	b.n	2000358a <_malloc_r+0x306>
200037c8:	f44f 717e 	mov.w	r1, #1016	; 0x3f8
200037cc:	207f      	movs	r0, #127	; 0x7f
200037ce:	277e      	movs	r7, #126	; 0x7e
200037d0:	e59e      	b.n	20003310 <_malloc_r+0x8c>
200037d2:	f44f 717e 	mov.w	r1, #1016	; 0x3f8
200037d6:	237e      	movs	r3, #126	; 0x7e
200037d8:	e6d7      	b.n	2000358a <_malloc_r+0x306>
200037da:	f8d8 3004 	ldr.w	r3, [r8, #4]
200037de:	e75e      	b.n	2000369e <_malloc_r+0x41a>

200037e0 <memcpy>:
memcpy():
200037e0:	4684      	mov	ip, r0
200037e2:	ea41 0300 	orr.w	r3, r1, r0
200037e6:	f013 0303 	ands.w	r3, r3, #3
200037ea:	d149      	bne.n	20003880 <memcpy+0xa0>
200037ec:	3a40      	subs	r2, #64	; 0x40
200037ee:	d323      	bcc.n	20003838 <memcpy+0x58>
200037f0:	680b      	ldr	r3, [r1, #0]
200037f2:	6003      	str	r3, [r0, #0]
200037f4:	684b      	ldr	r3, [r1, #4]
200037f6:	6043      	str	r3, [r0, #4]
200037f8:	688b      	ldr	r3, [r1, #8]
200037fa:	6083      	str	r3, [r0, #8]
200037fc:	68cb      	ldr	r3, [r1, #12]
200037fe:	60c3      	str	r3, [r0, #12]
20003800:	690b      	ldr	r3, [r1, #16]
20003802:	6103      	str	r3, [r0, #16]
20003804:	694b      	ldr	r3, [r1, #20]
20003806:	6143      	str	r3, [r0, #20]
20003808:	698b      	ldr	r3, [r1, #24]
2000380a:	6183      	str	r3, [r0, #24]
2000380c:	69cb      	ldr	r3, [r1, #28]
2000380e:	61c3      	str	r3, [r0, #28]
20003810:	6a0b      	ldr	r3, [r1, #32]
20003812:	6203      	str	r3, [r0, #32]
20003814:	6a4b      	ldr	r3, [r1, #36]	; 0x24
20003816:	6243      	str	r3, [r0, #36]	; 0x24
20003818:	6a8b      	ldr	r3, [r1, #40]	; 0x28
2000381a:	6283      	str	r3, [r0, #40]	; 0x28
2000381c:	6acb      	ldr	r3, [r1, #44]	; 0x2c
2000381e:	62c3      	str	r3, [r0, #44]	; 0x2c
20003820:	6b0b      	ldr	r3, [r1, #48]	; 0x30
20003822:	6303      	str	r3, [r0, #48]	; 0x30
20003824:	6b4b      	ldr	r3, [r1, #52]	; 0x34
20003826:	6343      	str	r3, [r0, #52]	; 0x34
20003828:	6b8b      	ldr	r3, [r1, #56]	; 0x38
2000382a:	6383      	str	r3, [r0, #56]	; 0x38
2000382c:	6bcb      	ldr	r3, [r1, #60]	; 0x3c
2000382e:	63c3      	str	r3, [r0, #60]	; 0x3c
20003830:	3040      	adds	r0, #64	; 0x40
20003832:	3140      	adds	r1, #64	; 0x40
20003834:	3a40      	subs	r2, #64	; 0x40
20003836:	d2db      	bcs.n	200037f0 <memcpy+0x10>
20003838:	3230      	adds	r2, #48	; 0x30
2000383a:	d30b      	bcc.n	20003854 <memcpy+0x74>
2000383c:	680b      	ldr	r3, [r1, #0]
2000383e:	6003      	str	r3, [r0, #0]
20003840:	684b      	ldr	r3, [r1, #4]
20003842:	6043      	str	r3, [r0, #4]
20003844:	688b      	ldr	r3, [r1, #8]
20003846:	6083      	str	r3, [r0, #8]
20003848:	68cb      	ldr	r3, [r1, #12]
2000384a:	60c3      	str	r3, [r0, #12]
2000384c:	3010      	adds	r0, #16
2000384e:	3110      	adds	r1, #16
20003850:	3a10      	subs	r2, #16
20003852:	d2f3      	bcs.n	2000383c <memcpy+0x5c>
20003854:	320c      	adds	r2, #12
20003856:	d305      	bcc.n	20003864 <memcpy+0x84>
20003858:	f851 3b04 	ldr.w	r3, [r1], #4
2000385c:	f840 3b04 	str.w	r3, [r0], #4
20003860:	3a04      	subs	r2, #4
20003862:	d2f9      	bcs.n	20003858 <memcpy+0x78>
20003864:	3204      	adds	r2, #4
20003866:	d008      	beq.n	2000387a <memcpy+0x9a>
20003868:	07d2      	lsls	r2, r2, #31
2000386a:	bf1c      	itt	ne
2000386c:	f811 3b01 	ldrbne.w	r3, [r1], #1
20003870:	f800 3b01 	strbne.w	r3, [r0], #1
20003874:	d301      	bcc.n	2000387a <memcpy+0x9a>
20003876:	880b      	ldrh	r3, [r1, #0]
20003878:	8003      	strh	r3, [r0, #0]
2000387a:	4660      	mov	r0, ip
2000387c:	4770      	bx	lr
2000387e:	bf00      	nop
20003880:	2a08      	cmp	r2, #8
20003882:	d313      	bcc.n	200038ac <memcpy+0xcc>
20003884:	078b      	lsls	r3, r1, #30
20003886:	d0b1      	beq.n	200037ec <memcpy+0xc>
20003888:	f010 0303 	ands.w	r3, r0, #3
2000388c:	d0ae      	beq.n	200037ec <memcpy+0xc>
2000388e:	f1c3 0304 	rsb	r3, r3, #4
20003892:	1ad2      	subs	r2, r2, r3
20003894:	07db      	lsls	r3, r3, #31
20003896:	bf1c      	itt	ne
20003898:	f811 3b01 	ldrbne.w	r3, [r1], #1
2000389c:	f800 3b01 	strbne.w	r3, [r0], #1
200038a0:	d3a4      	bcc.n	200037ec <memcpy+0xc>
200038a2:	f831 3b02 	ldrh.w	r3, [r1], #2
200038a6:	f820 3b02 	strh.w	r3, [r0], #2
200038aa:	e79f      	b.n	200037ec <memcpy+0xc>
200038ac:	3a04      	subs	r2, #4
200038ae:	d3d9      	bcc.n	20003864 <memcpy+0x84>
200038b0:	3a01      	subs	r2, #1
200038b2:	f811 3b01 	ldrb.w	r3, [r1], #1
200038b6:	f800 3b01 	strb.w	r3, [r0], #1
200038ba:	d2f9      	bcs.n	200038b0 <memcpy+0xd0>
200038bc:	780b      	ldrb	r3, [r1, #0]
200038be:	7003      	strb	r3, [r0, #0]
200038c0:	784b      	ldrb	r3, [r1, #1]
200038c2:	7043      	strb	r3, [r0, #1]
200038c4:	788b      	ldrb	r3, [r1, #2]
200038c6:	7083      	strb	r3, [r0, #2]
200038c8:	4660      	mov	r0, ip
200038ca:	4770      	bx	lr

200038cc <memset>:
memset():
200038cc:	b4f0      	push	{r4, r5, r6, r7}
200038ce:	0786      	lsls	r6, r0, #30
200038d0:	d046      	beq.n	20003960 <memset+0x94>
200038d2:	1e54      	subs	r4, r2, #1
200038d4:	2a00      	cmp	r2, #0
200038d6:	d03c      	beq.n	20003952 <memset+0x86>
200038d8:	4603      	mov	r3, r0
200038da:	b2ca      	uxtb	r2, r1
200038dc:	e001      	b.n	200038e2 <memset+0x16>
200038de:	3c01      	subs	r4, #1
200038e0:	d337      	bcc.n	20003952 <memset+0x86>
200038e2:	f803 2b01 	strb.w	r2, [r3], #1
200038e6:	079d      	lsls	r5, r3, #30
200038e8:	d1f9      	bne.n	200038de <memset+0x12>
200038ea:	2c03      	cmp	r4, #3
200038ec:	d92a      	bls.n	20003944 <memset+0x78>
200038ee:	b2cd      	uxtb	r5, r1
200038f0:	ea45 2505 	orr.w	r5, r5, r5, lsl #8
200038f4:	2c0f      	cmp	r4, #15
200038f6:	ea45 4505 	orr.w	r5, r5, r5, lsl #16
200038fa:	d934      	bls.n	20003966 <memset+0x9a>
200038fc:	f1a4 0210 	sub.w	r2, r4, #16
20003900:	f022 0c0f 	bic.w	ip, r2, #15
20003904:	f103 0720 	add.w	r7, r3, #32
20003908:	0916      	lsrs	r6, r2, #4
2000390a:	4467      	add	r7, ip
2000390c:	f103 0210 	add.w	r2, r3, #16
20003910:	e942 5504 	strd	r5, r5, [r2, #-16]
20003914:	e942 5502 	strd	r5, r5, [r2, #-8]
20003918:	3210      	adds	r2, #16
2000391a:	42ba      	cmp	r2, r7
2000391c:	d1f8      	bne.n	20003910 <memset+0x44>
2000391e:	1c72      	adds	r2, r6, #1
20003920:	f014 0f0c 	tst.w	r4, #12
20003924:	eb03 1202 	add.w	r2, r3, r2, lsl #4
20003928:	f004 060f 	and.w	r6, r4, #15
2000392c:	d013      	beq.n	20003956 <memset+0x8a>
2000392e:	1f33      	subs	r3, r6, #4
20003930:	f023 0303 	bic.w	r3, r3, #3
20003934:	3304      	adds	r3, #4
20003936:	4413      	add	r3, r2
20003938:	f842 5b04 	str.w	r5, [r2], #4
2000393c:	4293      	cmp	r3, r2
2000393e:	d1fb      	bne.n	20003938 <memset+0x6c>
20003940:	f006 0403 	and.w	r4, r6, #3
20003944:	b12c      	cbz	r4, 20003952 <memset+0x86>
20003946:	b2ca      	uxtb	r2, r1
20003948:	441c      	add	r4, r3
2000394a:	f803 2b01 	strb.w	r2, [r3], #1
2000394e:	429c      	cmp	r4, r3
20003950:	d1fb      	bne.n	2000394a <memset+0x7e>
20003952:	bcf0      	pop	{r4, r5, r6, r7}
20003954:	4770      	bx	lr
20003956:	4634      	mov	r4, r6
20003958:	4613      	mov	r3, r2
2000395a:	2c00      	cmp	r4, #0
2000395c:	d1f3      	bne.n	20003946 <memset+0x7a>
2000395e:	e7f8      	b.n	20003952 <memset+0x86>
20003960:	4614      	mov	r4, r2
20003962:	4603      	mov	r3, r0
20003964:	e7c1      	b.n	200038ea <memset+0x1e>
20003966:	461a      	mov	r2, r3
20003968:	4626      	mov	r6, r4
2000396a:	e7e0      	b.n	2000392e <memset+0x62>

2000396c <__malloc_lock>:
__malloc_lock():
2000396c:	4801      	ldr	r0, [pc, #4]	; (20003974 <__malloc_lock+0x8>)
2000396e:	f002 bf3d 	b.w	200067ec <__retarget_lock_acquire_recursive>
20003972:	bf00      	nop
20003974:	2000947c 	.word	0x2000947c

20003978 <__malloc_unlock>:
__malloc_unlock():
20003978:	4801      	ldr	r0, [pc, #4]	; (20003980 <__malloc_unlock+0x8>)
2000397a:	f002 bf39 	b.w	200067f0 <__retarget_lock_release_recursive>
2000397e:	bf00      	nop
20003980:	2000947c 	.word	0x2000947c

20003984 <_sbrk_r>:
_sbrk_r():
20003984:	2200      	movs	r2, #0
20003986:	b538      	push	{r3, r4, r5, lr}
20003988:	4d06      	ldr	r5, [pc, #24]	; (200039a4 <_sbrk_r+0x20>)
2000398a:	4604      	mov	r4, r0
2000398c:	4608      	mov	r0, r1
2000398e:	602a      	str	r2, [r5, #0]
20003990:	f7fe fe56 	bl	20002640 <_sbrk>
20003994:	1c43      	adds	r3, r0, #1
20003996:	d000      	beq.n	2000399a <_sbrk_r+0x16>
20003998:	bd38      	pop	{r3, r4, r5, pc}
2000399a:	682b      	ldr	r3, [r5, #0]
2000399c:	2b00      	cmp	r3, #0
2000399e:	d0fb      	beq.n	20003998 <_sbrk_r+0x14>
200039a0:	6023      	str	r3, [r4, #0]
200039a2:	bd38      	pop	{r3, r4, r5, pc}
200039a4:	20009490 	.word	0x20009490

200039a8 <sprintf>:
sprintf():
200039a8:	b40e      	push	{r1, r2, r3}
200039aa:	4601      	mov	r1, r0
200039ac:	b530      	push	{r4, r5, lr}
200039ae:	f06f 4400 	mvn.w	r4, #2147483648	; 0x80000000
200039b2:	b09c      	sub	sp, #112	; 0x70
200039b4:	ab1f      	add	r3, sp, #124	; 0x7c
200039b6:	480b      	ldr	r0, [pc, #44]	; (200039e4 <sprintf+0x3c>)
200039b8:	f853 2b04 	ldr.w	r2, [r3], #4
200039bc:	4d0a      	ldr	r5, [pc, #40]	; (200039e8 <sprintf+0x40>)
200039be:	9102      	str	r1, [sp, #8]
200039c0:	9106      	str	r1, [sp, #24]
200039c2:	6800      	ldr	r0, [r0, #0]
200039c4:	a902      	add	r1, sp, #8
200039c6:	9301      	str	r3, [sp, #4]
200039c8:	e9cd 4504 	strd	r4, r5, [sp, #16]
200039cc:	9407      	str	r4, [sp, #28]
200039ce:	f000 f80d 	bl	200039ec <_svfprintf_r>
200039d2:	2200      	movs	r2, #0
200039d4:	9b02      	ldr	r3, [sp, #8]
200039d6:	701a      	strb	r2, [r3, #0]
200039d8:	b01c      	add	sp, #112	; 0x70
200039da:	e8bd 4030 	ldmia.w	sp!, {r4, r5, lr}
200039de:	b003      	add	sp, #12
200039e0:	4770      	bx	lr
200039e2:	bf00      	nop
200039e4:	2000898c 	.word	0x2000898c
200039e8:	ffff0208 	.word	0xffff0208

200039ec <_svfprintf_r>:
_svfprintf_r():
200039ec:	e92d 4ff0 	stmdb	sp!, {r4, r5, r6, r7, r8, r9, sl, fp, lr}
200039f0:	b0d7      	sub	sp, #348	; 0x15c
200039f2:	468b      	mov	fp, r1
200039f4:	4617      	mov	r7, r2
200039f6:	930e      	str	r3, [sp, #56]	; 0x38
200039f8:	4681      	mov	r9, r0
200039fa:	f002 fef3 	bl	200067e4 <_localeconv_r>
200039fe:	6803      	ldr	r3, [r0, #0]
20003a00:	4618      	mov	r0, r3
20003a02:	9318      	str	r3, [sp, #96]	; 0x60
20003a04:	f003 fa9e 	bl	20006f44 <strlen>
20003a08:	f8bb 300c 	ldrh.w	r3, [fp, #12]
20003a0c:	9017      	str	r0, [sp, #92]	; 0x5c
20003a0e:	061d      	lsls	r5, r3, #24
20003a10:	d504      	bpl.n	20003a1c <_svfprintf_r+0x30>
20003a12:	f8db 3010 	ldr.w	r3, [fp, #16]
20003a16:	2b00      	cmp	r3, #0
20003a18:	f000 87df 	beq.w	200049da <_svfprintf_r+0xfee>
20003a1c:	2300      	movs	r3, #0
20003a1e:	2100      	movs	r1, #0
20003a20:	2200      	movs	r2, #0
20003a22:	e9cd 332b 	strd	r3, r3, [sp, #172]	; 0xac
20003a26:	e9cd 331a 	strd	r3, r3, [sp, #104]	; 0x68
20003a2a:	e9cd 331c 	strd	r3, r3, [sp, #112]	; 0x70
20003a2e:	9313      	str	r3, [sp, #76]	; 0x4c
20003a30:	9319      	str	r3, [sp, #100]	; 0x64
20003a32:	930a      	str	r3, [sp, #40]	; 0x28
20003a34:	ab2d      	add	r3, sp, #180	; 0xb4
20003a36:	4698      	mov	r8, r3
20003a38:	932a      	str	r3, [sp, #168]	; 0xa8
20003a3a:	783b      	ldrb	r3, [r7, #0]
20003a3c:	46da      	mov	sl, fp
20003a3e:	e9cd 1214 	strd	r1, r2, [sp, #80]	; 0x50
20003a42:	2b00      	cmp	r3, #0
20003a44:	f000 81a4 	beq.w	20003d90 <_svfprintf_r+0x3a4>
20003a48:	463c      	mov	r4, r7
20003a4a:	e004      	b.n	20003a56 <_svfprintf_r+0x6a>
20003a4c:	f814 3f01 	ldrb.w	r3, [r4, #1]!
20003a50:	2b00      	cmp	r3, #0
20003a52:	f000 80fd 	beq.w	20003c50 <_svfprintf_r+0x264>
20003a56:	2b25      	cmp	r3, #37	; 0x25
20003a58:	d1f8      	bne.n	20003a4c <_svfprintf_r+0x60>
20003a5a:	1be5      	subs	r5, r4, r7
20003a5c:	f040 80fb 	bne.w	20003c56 <_svfprintf_r+0x26a>
20003a60:	7823      	ldrb	r3, [r4, #0]
20003a62:	2b00      	cmp	r3, #0
20003a64:	f000 8194 	beq.w	20003d90 <_svfprintf_r+0x3a4>
20003a68:	2300      	movs	r3, #0
20003a6a:	930b      	str	r3, [sp, #44]	; 0x2c
20003a6c:	f88d 308b 	strb.w	r3, [sp, #139]	; 0x8b
20003a70:	9307      	str	r3, [sp, #28]
20003a72:	f04f 33ff 	mov.w	r3, #4294967295
20003a76:	7866      	ldrb	r6, [r4, #1]
20003a78:	f104 0b01 	add.w	fp, r4, #1
20003a7c:	2120      	movs	r1, #32
20003a7e:	242b      	movs	r4, #43	; 0x2b
20003a80:	9309      	str	r3, [sp, #36]	; 0x24
20003a82:	f10b 0b01 	add.w	fp, fp, #1
20003a86:	f1a6 0320 	sub.w	r3, r6, #32
20003a8a:	2b5a      	cmp	r3, #90	; 0x5a
20003a8c:	f200 80ff 	bhi.w	20003c8e <_svfprintf_r+0x2a2>
20003a90:	e8df f013 	tbh	[pc, r3, lsl #1]
20003a94:	00fd02bc 	.word	0x00fd02bc
20003a98:	02b500fd 	.word	0x02b500fd
20003a9c:	00fd00fd 	.word	0x00fd00fd
20003aa0:	029100fd 	.word	0x029100fd
20003aa4:	00fd00fd 	.word	0x00fd00fd
20003aa8:	02e7006a 	.word	0x02e7006a
20003aac:	023400fd 	.word	0x023400fd
20003ab0:	00fd02cd 	.word	0x00fd02cd
20003ab4:	005b02c6 	.word	0x005b02c6
20003ab8:	005b005b 	.word	0x005b005b
20003abc:	005b005b 	.word	0x005b005b
20003ac0:	005b005b 	.word	0x005b005b
20003ac4:	005b005b 	.word	0x005b005b
20003ac8:	00fd00fd 	.word	0x00fd00fd
20003acc:	00fd00fd 	.word	0x00fd00fd
20003ad0:	00fd00fd 	.word	0x00fd00fd
20003ad4:	019000fd 	.word	0x019000fd
20003ad8:	01f700fd 	.word	0x01f700fd
20003adc:	0190007c 	.word	0x0190007c
20003ae0:	01900190 	.word	0x01900190
20003ae4:	00fd00fd 	.word	0x00fd00fd
20003ae8:	00fd00fd 	.word	0x00fd00fd
20003aec:	00fd028a 	.word	0x00fd028a
20003af0:	00a900fd 	.word	0x00a900fd
20003af4:	00fd00fd 	.word	0x00fd00fd
20003af8:	020b00fd 	.word	0x020b00fd
20003afc:	023b00fd 	.word	0x023b00fd
20003b00:	00fd00fd 	.word	0x00fd00fd
20003b04:	00fd0781 	.word	0x00fd0781
20003b08:	00fd00fd 	.word	0x00fd00fd
20003b0c:	00fd00fd 	.word	0x00fd00fd
20003b10:	00fd00fd 	.word	0x00fd00fd
20003b14:	019000fd 	.word	0x019000fd
20003b18:	01f700fd 	.word	0x01f700fd
20003b1c:	01900080 	.word	0x01900080
20003b20:	01900190 	.word	0x01900190
20003b24:	00800280 	.word	0x00800280
20003b28:	00fd0075 	.word	0x00fd0075
20003b2c:	00fd0276 	.word	0x00fd0276
20003b30:	00ad025e 	.word	0x00ad025e
20003b34:	0075024c 	.word	0x0075024c
20003b38:	020b00fd 	.word	0x020b00fd
20003b3c:	075b0072 	.word	0x075b0072
20003b40:	00fd00fd 	.word	0x00fd00fd
20003b44:	00fd075f 	.word	0x00fd075f
20003b48:	0072      	.short	0x0072
20003b4a:	2200      	movs	r2, #0
20003b4c:	f1a6 0330 	sub.w	r3, r6, #48	; 0x30
20003b50:	f81b 6b01 	ldrb.w	r6, [fp], #1
20003b54:	eb02 0282 	add.w	r2, r2, r2, lsl #2
20003b58:	eb03 0242 	add.w	r2, r3, r2, lsl #1
20003b5c:	f1a6 0330 	sub.w	r3, r6, #48	; 0x30
20003b60:	2b09      	cmp	r3, #9
20003b62:	d9f5      	bls.n	20003b50 <_svfprintf_r+0x164>
20003b64:	920b      	str	r2, [sp, #44]	; 0x2c
20003b66:	e78e      	b.n	20003a86 <_svfprintf_r+0x9a>
20003b68:	9b0e      	ldr	r3, [sp, #56]	; 0x38
20003b6a:	f853 2b04 	ldr.w	r2, [r3], #4
20003b6e:	2a00      	cmp	r2, #0
20003b70:	920b      	str	r2, [sp, #44]	; 0x2c
20003b72:	930e      	str	r3, [sp, #56]	; 0x38
20003b74:	f2c0 81bf 	blt.w	20003ef6 <_svfprintf_r+0x50a>
20003b78:	f89b 6000 	ldrb.w	r6, [fp]
20003b7c:	e781      	b.n	20003a82 <_svfprintf_r+0x96>
20003b7e:	9b07      	ldr	r3, [sp, #28]
20003b80:	f89b 6000 	ldrb.w	r6, [fp]
20003b84:	f043 0320 	orr.w	r3, r3, #32
20003b88:	9307      	str	r3, [sp, #28]
20003b8a:	e77a      	b.n	20003a82 <_svfprintf_r+0x96>
20003b8c:	9b07      	ldr	r3, [sp, #28]
20003b8e:	f043 0310 	orr.w	r3, r3, #16
20003b92:	9307      	str	r3, [sp, #28]
20003b94:	9b07      	ldr	r3, [sp, #28]
20003b96:	069c      	lsls	r4, r3, #26
20003b98:	f140 8162 	bpl.w	20003e60 <_svfprintf_r+0x474>
20003b9c:	9b0e      	ldr	r3, [sp, #56]	; 0x38
20003b9e:	3307      	adds	r3, #7
20003ba0:	f023 0307 	bic.w	r3, r3, #7
20003ba4:	4619      	mov	r1, r3
20003ba6:	e8f1 2302 	ldrd	r2, r3, [r1], #8
20003baa:	4614      	mov	r4, r2
20003bac:	461d      	mov	r5, r3
20003bae:	910e      	str	r1, [sp, #56]	; 0x38
20003bb0:	2a00      	cmp	r2, #0
20003bb2:	f173 0300 	sbcs.w	r3, r3, #0
20003bb6:	f2c0 85ab 	blt.w	20004710 <_svfprintf_r+0xd24>
20003bba:	9b09      	ldr	r3, [sp, #36]	; 0x24
20003bbc:	3301      	adds	r3, #1
20003bbe:	9b07      	ldr	r3, [sp, #28]
20003bc0:	f000 8414 	beq.w	200043ec <_svfprintf_r+0xa00>
20003bc4:	f023 0380 	bic.w	r3, r3, #128	; 0x80
20003bc8:	ea54 0205 	orrs.w	r2, r4, r5
20003bcc:	9308      	str	r3, [sp, #32]
20003bce:	f040 840e 	bne.w	200043ee <_svfprintf_r+0xa02>
20003bd2:	9a09      	ldr	r2, [sp, #36]	; 0x24
20003bd4:	2a00      	cmp	r2, #0
20003bd6:	f040 840f 	bne.w	200043f8 <_svfprintf_r+0xa0c>
20003bda:	9307      	str	r3, [sp, #28]
20003bdc:	2300      	movs	r3, #0
20003bde:	af56      	add	r7, sp, #344	; 0x158
20003be0:	9309      	str	r3, [sp, #36]	; 0x24
20003be2:	930c      	str	r3, [sp, #48]	; 0x30
20003be4:	e26b      	b.n	200040be <_svfprintf_r+0x6d2>
20003be6:	9b07      	ldr	r3, [sp, #28]
20003be8:	f043 0310 	orr.w	r3, r3, #16
20003bec:	9307      	str	r3, [sp, #28]
20003bee:	9b07      	ldr	r3, [sp, #28]
20003bf0:	069a      	lsls	r2, r3, #26
20003bf2:	f140 8126 	bpl.w	20003e42 <_svfprintf_r+0x456>
20003bf6:	9b0e      	ldr	r3, [sp, #56]	; 0x38
20003bf8:	3307      	adds	r3, #7
20003bfa:	f023 0307 	bic.w	r3, r3, #7
20003bfe:	e8f3 4502 	ldrd	r4, r5, [r3], #8
20003c02:	930e      	str	r3, [sp, #56]	; 0x38
20003c04:	9b07      	ldr	r3, [sp, #28]
20003c06:	f423 6380 	bic.w	r3, r3, #1024	; 0x400
20003c0a:	9308      	str	r3, [sp, #32]
20003c0c:	2300      	movs	r3, #0
20003c0e:	2200      	movs	r2, #0
20003c10:	f88d 208b 	strb.w	r2, [sp, #139]	; 0x8b
20003c14:	9a09      	ldr	r2, [sp, #36]	; 0x24
20003c16:	4611      	mov	r1, r2
20003c18:	3101      	adds	r1, #1
20003c1a:	f000 8231 	beq.w	20004080 <_svfprintf_r+0x694>
20003c1e:	9908      	ldr	r1, [sp, #32]
20003c20:	f021 0180 	bic.w	r1, r1, #128	; 0x80
20003c24:	9107      	str	r1, [sp, #28]
20003c26:	ea54 0105 	orrs.w	r1, r4, r5
20003c2a:	f040 8227 	bne.w	2000407c <_svfprintf_r+0x690>
20003c2e:	2a00      	cmp	r2, #0
20003c30:	f040 837d 	bne.w	2000432e <_svfprintf_r+0x942>
20003c34:	2b00      	cmp	r3, #0
20003c36:	d1d1      	bne.n	20003bdc <_svfprintf_r+0x1f0>
20003c38:	9b08      	ldr	r3, [sp, #32]
20003c3a:	f013 0301 	ands.w	r3, r3, #1
20003c3e:	930c      	str	r3, [sp, #48]	; 0x30
20003c40:	f000 8590 	beq.w	20004764 <_svfprintf_r+0xd78>
20003c44:	2330      	movs	r3, #48	; 0x30
20003c46:	f20d 1757 	addw	r7, sp, #343	; 0x157
20003c4a:	f88d 3157 	strb.w	r3, [sp, #343]	; 0x157
20003c4e:	e236      	b.n	200040be <_svfprintf_r+0x6d2>
20003c50:	1be5      	subs	r5, r4, r7
20003c52:	f000 809d 	beq.w	20003d90 <_svfprintf_r+0x3a4>
20003c56:	e9dd 322b 	ldrd	r3, r2, [sp, #172]	; 0xac
20003c5a:	3301      	adds	r3, #1
20003c5c:	442a      	add	r2, r5
20003c5e:	2b07      	cmp	r3, #7
20003c60:	e9c8 7500 	strd	r7, r5, [r8]
20003c64:	e9cd 322b 	strd	r3, r2, [sp, #172]	; 0xac
20003c68:	dc06      	bgt.n	20003c78 <_svfprintf_r+0x28c>
20003c6a:	f108 0808 	add.w	r8, r8, #8
20003c6e:	9a0a      	ldr	r2, [sp, #40]	; 0x28
20003c70:	7823      	ldrb	r3, [r4, #0]
20003c72:	442a      	add	r2, r5
20003c74:	920a      	str	r2, [sp, #40]	; 0x28
20003c76:	e6f4      	b.n	20003a62 <_svfprintf_r+0x76>
20003c78:	4651      	mov	r1, sl
20003c7a:	4648      	mov	r0, r9
20003c7c:	aa2a      	add	r2, sp, #168	; 0xa8
20003c7e:	f003 f9c3 	bl	20007008 <__ssprint_r>
20003c82:	2800      	cmp	r0, #0
20003c84:	f041 83ce 	bne.w	20005424 <_svfprintf_r+0x1a38>
20003c88:	f10d 08b4 	add.w	r8, sp, #180	; 0xb4
20003c8c:	e7ef      	b.n	20003c6e <_svfprintf_r+0x282>
20003c8e:	2e00      	cmp	r6, #0
20003c90:	d07e      	beq.n	20003d90 <_svfprintf_r+0x3a4>
20003c92:	2300      	movs	r3, #0
20003c94:	2101      	movs	r1, #1
20003c96:	461a      	mov	r2, r3
20003c98:	9108      	str	r1, [sp, #32]
20003c9a:	f88d 60f4 	strb.w	r6, [sp, #244]	; 0xf4
20003c9e:	f88d 308b 	strb.w	r3, [sp, #139]	; 0x8b
20003ca2:	930d      	str	r3, [sp, #52]	; 0x34
20003ca4:	9309      	str	r3, [sp, #36]	; 0x24
20003ca6:	9312      	str	r3, [sp, #72]	; 0x48
20003ca8:	9316      	str	r3, [sp, #88]	; 0x58
20003caa:	9310      	str	r3, [sp, #64]	; 0x40
20003cac:	910c      	str	r1, [sp, #48]	; 0x30
20003cae:	af3d      	add	r7, sp, #244	; 0xf4
20003cb0:	9b07      	ldr	r3, [sp, #28]
20003cb2:	f013 0302 	ands.w	r3, r3, #2
20003cb6:	d002      	beq.n	20003cbe <_svfprintf_r+0x2d2>
20003cb8:	9908      	ldr	r1, [sp, #32]
20003cba:	3102      	adds	r1, #2
20003cbc:	9108      	str	r1, [sp, #32]
20003cbe:	9907      	ldr	r1, [sp, #28]
20003cc0:	f011 0184 	ands.w	r1, r1, #132	; 0x84
20003cc4:	910f      	str	r1, [sp, #60]	; 0x3c
20003cc6:	d105      	bne.n	20003cd4 <_svfprintf_r+0x2e8>
20003cc8:	990b      	ldr	r1, [sp, #44]	; 0x2c
20003cca:	9808      	ldr	r0, [sp, #32]
20003ccc:	1a0d      	subs	r5, r1, r0
20003cce:	2d00      	cmp	r5, #0
20003cd0:	f300 834b 	bgt.w	2000436a <_svfprintf_r+0x97e>
20003cd4:	9c2c      	ldr	r4, [sp, #176]	; 0xb0
20003cd6:	b172      	cbz	r2, 20003cf6 <_svfprintf_r+0x30a>
20003cd8:	2001      	movs	r0, #1
20003cda:	9a2b      	ldr	r2, [sp, #172]	; 0xac
20003cdc:	4404      	add	r4, r0
20003cde:	4402      	add	r2, r0
20003ce0:	f10d 018b 	add.w	r1, sp, #139	; 0x8b
20003ce4:	2a07      	cmp	r2, #7
20003ce6:	e9cd 242b 	strd	r2, r4, [sp, #172]	; 0xac
20003cea:	e9c8 1000 	strd	r1, r0, [r8]
20003cee:	f300 83cd 	bgt.w	2000448c <_svfprintf_r+0xaa0>
20003cf2:	f108 0808 	add.w	r8, r8, #8
20003cf6:	b16b      	cbz	r3, 20003d14 <_svfprintf_r+0x328>
20003cf8:	2102      	movs	r1, #2
20003cfa:	9b2b      	ldr	r3, [sp, #172]	; 0xac
20003cfc:	440c      	add	r4, r1
20003cfe:	3301      	adds	r3, #1
20003d00:	aa23      	add	r2, sp, #140	; 0x8c
20003d02:	2b07      	cmp	r3, #7
20003d04:	e9cd 342b 	strd	r3, r4, [sp, #172]	; 0xac
20003d08:	e9c8 2100 	strd	r2, r1, [r8]
20003d0c:	f300 83cc 	bgt.w	200044a8 <_svfprintf_r+0xabc>
20003d10:	f108 0808 	add.w	r8, r8, #8
20003d14:	9b0f      	ldr	r3, [sp, #60]	; 0x3c
20003d16:	2b80      	cmp	r3, #128	; 0x80
20003d18:	f000 8234 	beq.w	20004184 <_svfprintf_r+0x798>
20003d1c:	9b09      	ldr	r3, [sp, #36]	; 0x24
20003d1e:	9a0c      	ldr	r2, [sp, #48]	; 0x30
20003d20:	1a9d      	subs	r5, r3, r2
20003d22:	2d00      	cmp	r5, #0
20003d24:	f300 826e 	bgt.w	20004204 <_svfprintf_r+0x818>
20003d28:	9b07      	ldr	r3, [sp, #28]
20003d2a:	05d9      	lsls	r1, r3, #23
20003d2c:	f100 81d5 	bmi.w	200040da <_svfprintf_r+0x6ee>
20003d30:	9b2b      	ldr	r3, [sp, #172]	; 0xac
20003d32:	9a0c      	ldr	r2, [sp, #48]	; 0x30
20003d34:	3301      	adds	r3, #1
20003d36:	4414      	add	r4, r2
20003d38:	2b07      	cmp	r3, #7
20003d3a:	e9c8 7200 	strd	r7, r2, [r8]
20003d3e:	942c      	str	r4, [sp, #176]	; 0xb0
20003d40:	932b      	str	r3, [sp, #172]	; 0xac
20003d42:	f300 8397 	bgt.w	20004474 <_svfprintf_r+0xa88>
20003d46:	f108 0808 	add.w	r8, r8, #8
20003d4a:	9b07      	ldr	r3, [sp, #28]
20003d4c:	0759      	lsls	r1, r3, #29
20003d4e:	d505      	bpl.n	20003d5c <_svfprintf_r+0x370>
20003d50:	9b0b      	ldr	r3, [sp, #44]	; 0x2c
20003d52:	9a08      	ldr	r2, [sp, #32]
20003d54:	1a9d      	subs	r5, r3, r2
20003d56:	2d00      	cmp	r5, #0
20003d58:	f300 83b2 	bgt.w	200044c0 <_svfprintf_r+0xad4>
20003d5c:	e9dd 320a 	ldrd	r3, r2, [sp, #40]	; 0x28
20003d60:	9908      	ldr	r1, [sp, #32]
20003d62:	428a      	cmp	r2, r1
20003d64:	bfac      	ite	ge
20003d66:	189b      	addge	r3, r3, r2
20003d68:	185b      	addlt	r3, r3, r1
20003d6a:	930a      	str	r3, [sp, #40]	; 0x28
20003d6c:	2c00      	cmp	r4, #0
20003d6e:	f040 827d 	bne.w	2000426c <_svfprintf_r+0x880>
20003d72:	2300      	movs	r3, #0
20003d74:	932b      	str	r3, [sp, #172]	; 0xac
20003d76:	9b0d      	ldr	r3, [sp, #52]	; 0x34
20003d78:	b11b      	cbz	r3, 20003d82 <_svfprintf_r+0x396>
20003d7a:	4648      	mov	r0, r9
20003d7c:	990d      	ldr	r1, [sp, #52]	; 0x34
20003d7e:	f002 fc2b 	bl	200065d8 <_free_r>
20003d82:	465f      	mov	r7, fp
20003d84:	f10d 08b4 	add.w	r8, sp, #180	; 0xb4
20003d88:	783b      	ldrb	r3, [r7, #0]
20003d8a:	2b00      	cmp	r3, #0
20003d8c:	f47f ae5c 	bne.w	20003a48 <_svfprintf_r+0x5c>
20003d90:	9b2c      	ldr	r3, [sp, #176]	; 0xb0
20003d92:	46d3      	mov	fp, sl
20003d94:	2b00      	cmp	r3, #0
20003d96:	f041 824b 	bne.w	20005230 <_svfprintf_r+0x1844>
20003d9a:	f8bb 300c 	ldrh.w	r3, [fp, #12]
20003d9e:	f013 0f40 	tst.w	r3, #64	; 0x40
20003da2:	9b0a      	ldr	r3, [sp, #40]	; 0x28
20003da4:	bf18      	it	ne
20003da6:	f04f 33ff 	movne.w	r3, #4294967295
20003daa:	930a      	str	r3, [sp, #40]	; 0x28
20003dac:	980a      	ldr	r0, [sp, #40]	; 0x28
20003dae:	b057      	add	sp, #348	; 0x15c
20003db0:	e8bd 8ff0 	ldmia.w	sp!, {r4, r5, r6, r7, r8, r9, sl, fp, pc}
20003db4:	9b0e      	ldr	r3, [sp, #56]	; 0x38
20003db6:	3307      	adds	r3, #7
20003db8:	f023 0307 	bic.w	r3, r3, #7
20003dbc:	4619      	mov	r1, r3
20003dbe:	e8f1 2302 	ldrd	r2, r3, [r1], #8
20003dc2:	e9cd 2314 	strd	r2, r3, [sp, #80]	; 0x50
20003dc6:	e9dd 3414 	ldrd	r3, r4, [sp, #80]	; 0x50
20003dca:	f024 4400 	bic.w	r4, r4, #2147483648	; 0x80000000
20003dce:	461d      	mov	r5, r3
20003dd0:	4618      	mov	r0, r3
20003dd2:	910e      	str	r1, [sp, #56]	; 0x38
20003dd4:	f04f 32ff 	mov.w	r2, #4294967295
20003dd8:	4621      	mov	r1, r4
20003dda:	4ba4      	ldr	r3, [pc, #656]	; (2000406c <_svfprintf_r+0x680>)
20003ddc:	f004 f8da 	bl	20007f94 <__aeabi_dcmpun>
20003de0:	2800      	cmp	r0, #0
20003de2:	f040 84d9 	bne.w	20004798 <_svfprintf_r+0xdac>
20003de6:	4628      	mov	r0, r5
20003de8:	4621      	mov	r1, r4
20003dea:	f04f 32ff 	mov.w	r2, #4294967295
20003dee:	4b9f      	ldr	r3, [pc, #636]	; (2000406c <_svfprintf_r+0x680>)
20003df0:	f004 f8b2 	bl	20007f58 <__aeabi_dcmple>
20003df4:	2800      	cmp	r0, #0
20003df6:	f040 84cf 	bne.w	20004798 <_svfprintf_r+0xdac>
20003dfa:	e9dd 0114 	ldrd	r0, r1, [sp, #80]	; 0x50
20003dfe:	2200      	movs	r2, #0
20003e00:	2300      	movs	r3, #0
20003e02:	f004 f89f 	bl	20007f44 <__aeabi_dcmplt>
20003e06:	2800      	cmp	r0, #0
20003e08:	f041 800e 	bne.w	20004e28 <_svfprintf_r+0x143c>
20003e0c:	f89d 208b 	ldrb.w	r2, [sp, #139]	; 0x8b
20003e10:	2003      	movs	r0, #3
20003e12:	2100      	movs	r1, #0
20003e14:	4f96      	ldr	r7, [pc, #600]	; (20004070 <_svfprintf_r+0x684>)
20003e16:	4b97      	ldr	r3, [pc, #604]	; (20004074 <_svfprintf_r+0x688>)
20003e18:	9008      	str	r0, [sp, #32]
20003e1a:	910d      	str	r1, [sp, #52]	; 0x34
20003e1c:	2e47      	cmp	r6, #71	; 0x47
20003e1e:	bfc8      	it	gt
20003e20:	461f      	movgt	r7, r3
20003e22:	9c07      	ldr	r4, [sp, #28]
20003e24:	900c      	str	r0, [sp, #48]	; 0x30
20003e26:	f024 0480 	bic.w	r4, r4, #128	; 0x80
20003e2a:	9407      	str	r4, [sp, #28]
20003e2c:	9109      	str	r1, [sp, #36]	; 0x24
20003e2e:	9112      	str	r1, [sp, #72]	; 0x48
20003e30:	9116      	str	r1, [sp, #88]	; 0x58
20003e32:	9110      	str	r1, [sp, #64]	; 0x40
20003e34:	2a00      	cmp	r2, #0
20003e36:	f43f af3b 	beq.w	20003cb0 <_svfprintf_r+0x2c4>
20003e3a:	9b08      	ldr	r3, [sp, #32]
20003e3c:	3301      	adds	r3, #1
20003e3e:	9308      	str	r3, [sp, #32]
20003e40:	e736      	b.n	20003cb0 <_svfprintf_r+0x2c4>
20003e42:	9b07      	ldr	r3, [sp, #28]
20003e44:	06db      	lsls	r3, r3, #27
20003e46:	f100 849c 	bmi.w	20004782 <_svfprintf_r+0xd96>
20003e4a:	9b07      	ldr	r3, [sp, #28]
20003e4c:	065f      	lsls	r7, r3, #25
20003e4e:	f140 87b2 	bpl.w	20004db6 <_svfprintf_r+0x13ca>
20003e52:	9b0e      	ldr	r3, [sp, #56]	; 0x38
20003e54:	2500      	movs	r5, #0
20003e56:	f853 4b04 	ldr.w	r4, [r3], #4
20003e5a:	930e      	str	r3, [sp, #56]	; 0x38
20003e5c:	b2a4      	uxth	r4, r4
20003e5e:	e6d1      	b.n	20003c04 <_svfprintf_r+0x218>
20003e60:	9b07      	ldr	r3, [sp, #28]
20003e62:	06d8      	lsls	r0, r3, #27
20003e64:	f100 8568 	bmi.w	20004938 <_svfprintf_r+0xf4c>
20003e68:	9b07      	ldr	r3, [sp, #28]
20003e6a:	0659      	lsls	r1, r3, #25
20003e6c:	f140 87be 	bpl.w	20004dec <_svfprintf_r+0x1400>
20003e70:	9b0e      	ldr	r3, [sp, #56]	; 0x38
20003e72:	f853 4b04 	ldr.w	r4, [r3], #4
20003e76:	b224      	sxth	r4, r4
20003e78:	17e5      	asrs	r5, r4, #31
20003e7a:	930e      	str	r3, [sp, #56]	; 0x38
20003e7c:	4622      	mov	r2, r4
20003e7e:	462b      	mov	r3, r5
20003e80:	e696      	b.n	20003bb0 <_svfprintf_r+0x1c4>
20003e82:	2100      	movs	r1, #0
20003e84:	2401      	movs	r4, #1
20003e86:	9b0e      	ldr	r3, [sp, #56]	; 0x38
20003e88:	460a      	mov	r2, r1
20003e8a:	f853 0b04 	ldr.w	r0, [r3], #4
20003e8e:	9408      	str	r4, [sp, #32]
20003e90:	e9cd 130d 	strd	r1, r3, [sp, #52]	; 0x34
20003e94:	f88d 108b 	strb.w	r1, [sp, #139]	; 0x8b
20003e98:	f88d 00f4 	strb.w	r0, [sp, #244]	; 0xf4
20003e9c:	9109      	str	r1, [sp, #36]	; 0x24
20003e9e:	9112      	str	r1, [sp, #72]	; 0x48
20003ea0:	9116      	str	r1, [sp, #88]	; 0x58
20003ea2:	9110      	str	r1, [sp, #64]	; 0x40
20003ea4:	940c      	str	r4, [sp, #48]	; 0x30
20003ea6:	af3d      	add	r7, sp, #244	; 0xf4
20003ea8:	e702      	b.n	20003cb0 <_svfprintf_r+0x2c4>
20003eaa:	2500      	movs	r5, #0
20003eac:	9c0e      	ldr	r4, [sp, #56]	; 0x38
20003eae:	f88d 508b 	strb.w	r5, [sp, #139]	; 0x8b
20003eb2:	f854 7b04 	ldr.w	r7, [r4], #4
20003eb6:	2f00      	cmp	r7, #0
20003eb8:	f000 859f 	beq.w	200049fa <_svfprintf_r+0x100e>
20003ebc:	9a09      	ldr	r2, [sp, #36]	; 0x24
20003ebe:	4613      	mov	r3, r2
20003ec0:	3301      	adds	r3, #1
20003ec2:	f000 8770 	beq.w	20004da6 <_svfprintf_r+0x13ba>
20003ec6:	4629      	mov	r1, r5
20003ec8:	4638      	mov	r0, r7
20003eca:	f002 fc93 	bl	200067f4 <memchr>
20003ece:	900d      	str	r0, [sp, #52]	; 0x34
20003ed0:	2800      	cmp	r0, #0
20003ed2:	f001 80b9 	beq.w	20005048 <_svfprintf_r+0x165c>
20003ed6:	462b      	mov	r3, r5
20003ed8:	9a0d      	ldr	r2, [sp, #52]	; 0x34
20003eda:	9509      	str	r5, [sp, #36]	; 0x24
20003edc:	1bd2      	subs	r2, r2, r7
20003ede:	920c      	str	r2, [sp, #48]	; 0x30
20003ee0:	ea22 72e2 	bic.w	r2, r2, r2, asr #31
20003ee4:	9208      	str	r2, [sp, #32]
20003ee6:	940e      	str	r4, [sp, #56]	; 0x38
20003ee8:	f89d 208b 	ldrb.w	r2, [sp, #139]	; 0x8b
20003eec:	930d      	str	r3, [sp, #52]	; 0x34
20003eee:	9312      	str	r3, [sp, #72]	; 0x48
20003ef0:	9316      	str	r3, [sp, #88]	; 0x58
20003ef2:	9310      	str	r3, [sp, #64]	; 0x40
20003ef4:	e79e      	b.n	20003e34 <_svfprintf_r+0x448>
20003ef6:	9b0b      	ldr	r3, [sp, #44]	; 0x2c
20003ef8:	425b      	negs	r3, r3
20003efa:	930b      	str	r3, [sp, #44]	; 0x2c
20003efc:	9b07      	ldr	r3, [sp, #28]
20003efe:	f89b 6000 	ldrb.w	r6, [fp]
20003f02:	f043 0304 	orr.w	r3, r3, #4
20003f06:	9307      	str	r3, [sp, #28]
20003f08:	e5bb      	b.n	20003a82 <_svfprintf_r+0x96>
20003f0a:	9b07      	ldr	r3, [sp, #28]
20003f0c:	f043 0310 	orr.w	r3, r3, #16
20003f10:	9308      	str	r3, [sp, #32]
20003f12:	9b08      	ldr	r3, [sp, #32]
20003f14:	069d      	lsls	r5, r3, #26
20003f16:	f140 83ea 	bpl.w	200046ee <_svfprintf_r+0xd02>
20003f1a:	9b0e      	ldr	r3, [sp, #56]	; 0x38
20003f1c:	3307      	adds	r3, #7
20003f1e:	f023 0307 	bic.w	r3, r3, #7
20003f22:	e8f3 4502 	ldrd	r4, r5, [r3], #8
20003f26:	930e      	str	r3, [sp, #56]	; 0x38
20003f28:	2301      	movs	r3, #1
20003f2a:	e670      	b.n	20003c0e <_svfprintf_r+0x222>
20003f2c:	f647 0230 	movw	r2, #30768	; 0x7830
20003f30:	9b0e      	ldr	r3, [sp, #56]	; 0x38
20003f32:	9907      	ldr	r1, [sp, #28]
20003f34:	f853 4b04 	ldr.w	r4, [r3], #4
20003f38:	f041 0102 	orr.w	r1, r1, #2
20003f3c:	930e      	str	r3, [sp, #56]	; 0x38
20003f3e:	4b4e      	ldr	r3, [pc, #312]	; (20004078 <_svfprintf_r+0x68c>)
20003f40:	2500      	movs	r5, #0
20003f42:	9319      	str	r3, [sp, #100]	; 0x64
20003f44:	2678      	movs	r6, #120	; 0x78
20003f46:	2302      	movs	r3, #2
20003f48:	9108      	str	r1, [sp, #32]
20003f4a:	f8ad 208c 	strh.w	r2, [sp, #140]	; 0x8c
20003f4e:	e65e      	b.n	20003c0e <_svfprintf_r+0x222>
20003f50:	9b07      	ldr	r3, [sp, #28]
20003f52:	069d      	lsls	r5, r3, #26
20003f54:	f100 8408 	bmi.w	20004768 <_svfprintf_r+0xd7c>
20003f58:	9b07      	ldr	r3, [sp, #28]
20003f5a:	06dc      	lsls	r4, r3, #27
20003f5c:	f100 86e1 	bmi.w	20004d22 <_svfprintf_r+0x1336>
20003f60:	9b07      	ldr	r3, [sp, #28]
20003f62:	0658      	lsls	r0, r3, #25
20003f64:	f100 8795 	bmi.w	20004e92 <_svfprintf_r+0x14a6>
20003f68:	9b07      	ldr	r3, [sp, #28]
20003f6a:	0599      	lsls	r1, r3, #22
20003f6c:	f140 86d9 	bpl.w	20004d22 <_svfprintf_r+0x1336>
20003f70:	9b0e      	ldr	r3, [sp, #56]	; 0x38
20003f72:	990a      	ldr	r1, [sp, #40]	; 0x28
20003f74:	f853 2b04 	ldr.w	r2, [r3], #4
20003f78:	465f      	mov	r7, fp
20003f7a:	7011      	strb	r1, [r2, #0]
20003f7c:	930e      	str	r3, [sp, #56]	; 0x38
20003f7e:	e703      	b.n	20003d88 <_svfprintf_r+0x39c>
20003f80:	f89b 6000 	ldrb.w	r6, [fp]
20003f84:	9b07      	ldr	r3, [sp, #28]
20003f86:	2e6c      	cmp	r6, #108	; 0x6c
20003f88:	f000 8508 	beq.w	2000499c <_svfprintf_r+0xfb0>
20003f8c:	f043 0310 	orr.w	r3, r3, #16
20003f90:	9307      	str	r3, [sp, #28]
20003f92:	e576      	b.n	20003a82 <_svfprintf_r+0x96>
20003f94:	f89b 6000 	ldrb.w	r6, [fp]
20003f98:	9b07      	ldr	r3, [sp, #28]
20003f9a:	2e68      	cmp	r6, #104	; 0x68
20003f9c:	f000 8507 	beq.w	200049ae <_svfprintf_r+0xfc2>
20003fa0:	f043 0340 	orr.w	r3, r3, #64	; 0x40
20003fa4:	9307      	str	r3, [sp, #28]
20003fa6:	e56c      	b.n	20003a82 <_svfprintf_r+0x96>
20003fa8:	9b07      	ldr	r3, [sp, #28]
20003faa:	f89b 6000 	ldrb.w	r6, [fp]
20003fae:	f043 0308 	orr.w	r3, r3, #8
20003fb2:	9307      	str	r3, [sp, #28]
20003fb4:	e565      	b.n	20003a82 <_svfprintf_r+0x96>
20003fb6:	4648      	mov	r0, r9
20003fb8:	f002 fc14 	bl	200067e4 <_localeconv_r>
20003fbc:	6843      	ldr	r3, [r0, #4]
20003fbe:	4618      	mov	r0, r3
20003fc0:	931c      	str	r3, [sp, #112]	; 0x70
20003fc2:	f002 ffbf 	bl	20006f44 <strlen>
20003fc6:	4603      	mov	r3, r0
20003fc8:	4648      	mov	r0, r9
20003fca:	461d      	mov	r5, r3
20003fcc:	931d      	str	r3, [sp, #116]	; 0x74
20003fce:	f002 fc09 	bl	200067e4 <_localeconv_r>
20003fd2:	6882      	ldr	r2, [r0, #8]
20003fd4:	2120      	movs	r1, #32
20003fd6:	921a      	str	r2, [sp, #104]	; 0x68
20003fd8:	2d00      	cmp	r5, #0
20003fda:	f43f adcd 	beq.w	20003b78 <_svfprintf_r+0x18c>
20003fde:	9b1a      	ldr	r3, [sp, #104]	; 0x68
20003fe0:	2b00      	cmp	r3, #0
20003fe2:	f43f adc9 	beq.w	20003b78 <_svfprintf_r+0x18c>
20003fe6:	9b1a      	ldr	r3, [sp, #104]	; 0x68
20003fe8:	781b      	ldrb	r3, [r3, #0]
20003fea:	2b00      	cmp	r3, #0
20003fec:	f43f adc4 	beq.w	20003b78 <_svfprintf_r+0x18c>
20003ff0:	9b07      	ldr	r3, [sp, #28]
20003ff2:	f89b 6000 	ldrb.w	r6, [fp]
20003ff6:	f443 6380 	orr.w	r3, r3, #1024	; 0x400
20003ffa:	9307      	str	r3, [sp, #28]
20003ffc:	e541      	b.n	20003a82 <_svfprintf_r+0x96>
20003ffe:	9b07      	ldr	r3, [sp, #28]
20004000:	f89b 6000 	ldrb.w	r6, [fp]
20004004:	f043 0301 	orr.w	r3, r3, #1
20004008:	9307      	str	r3, [sp, #28]
2000400a:	e53a      	b.n	20003a82 <_svfprintf_r+0x96>
2000400c:	f89d 308b 	ldrb.w	r3, [sp, #139]	; 0x8b
20004010:	2b00      	cmp	r3, #0
20004012:	f47f adb1 	bne.w	20003b78 <_svfprintf_r+0x18c>
20004016:	f89b 6000 	ldrb.w	r6, [fp]
2000401a:	f88d 108b 	strb.w	r1, [sp, #139]	; 0x8b
2000401e:	e530      	b.n	20003a82 <_svfprintf_r+0x96>
20004020:	9b07      	ldr	r3, [sp, #28]
20004022:	f89b 6000 	ldrb.w	r6, [fp]
20004026:	f043 0380 	orr.w	r3, r3, #128	; 0x80
2000402a:	9307      	str	r3, [sp, #28]
2000402c:	e529      	b.n	20003a82 <_svfprintf_r+0x96>
2000402e:	465a      	mov	r2, fp
20004030:	f812 6b01 	ldrb.w	r6, [r2], #1
20004034:	2e2a      	cmp	r6, #42	; 0x2a
20004036:	f001 8251 	beq.w	200054dc <_svfprintf_r+0x1af0>
2000403a:	f1a6 0330 	sub.w	r3, r6, #48	; 0x30
2000403e:	2b09      	cmp	r3, #9
20004040:	4693      	mov	fp, r2
20004042:	bf98      	it	ls
20004044:	2200      	movls	r2, #0
20004046:	f201 80ef 	bhi.w	20005228 <_svfprintf_r+0x183c>
2000404a:	f81b 6b01 	ldrb.w	r6, [fp], #1
2000404e:	eb02 0282 	add.w	r2, r2, r2, lsl #2
20004052:	eb03 0242 	add.w	r2, r3, r2, lsl #1
20004056:	f1a6 0330 	sub.w	r3, r6, #48	; 0x30
2000405a:	2b09      	cmp	r3, #9
2000405c:	d9f5      	bls.n	2000404a <_svfprintf_r+0x65e>
2000405e:	9209      	str	r2, [sp, #36]	; 0x24
20004060:	e511      	b.n	20003a86 <_svfprintf_r+0x9a>
20004062:	f89b 6000 	ldrb.w	r6, [fp]
20004066:	f88d 408b 	strb.w	r4, [sp, #139]	; 0x8b
2000406a:	e50a      	b.n	20003a82 <_svfprintf_r+0x96>
2000406c:	7fefffff 	.word	0x7fefffff
20004070:	200086ac 	.word	0x200086ac
20004074:	200086b0 	.word	0x200086b0
20004078:	200086bc 	.word	0x200086bc
2000407c:	9a07      	ldr	r2, [sp, #28]
2000407e:	9208      	str	r2, [sp, #32]
20004080:	2b01      	cmp	r3, #1
20004082:	f000 81b4 	beq.w	200043ee <_svfprintf_r+0xa02>
20004086:	2b02      	cmp	r3, #2
20004088:	f000 8159 	beq.w	2000433e <_svfprintf_r+0x952>
2000408c:	af56      	add	r7, sp, #344	; 0x158
2000408e:	08e2      	lsrs	r2, r4, #3
20004090:	ea42 7245 	orr.w	r2, r2, r5, lsl #29
20004094:	08e9      	lsrs	r1, r5, #3
20004096:	f004 0307 	and.w	r3, r4, #7
2000409a:	460d      	mov	r5, r1
2000409c:	4614      	mov	r4, r2
2000409e:	3330      	adds	r3, #48	; 0x30
200040a0:	ea54 0105 	orrs.w	r1, r4, r5
200040a4:	463a      	mov	r2, r7
200040a6:	f807 3d01 	strb.w	r3, [r7, #-1]!
200040aa:	d1f0      	bne.n	2000408e <_svfprintf_r+0x6a2>
200040ac:	9908      	ldr	r1, [sp, #32]
200040ae:	4608      	mov	r0, r1
200040b0:	07c0      	lsls	r0, r0, #31
200040b2:	f100 82b8 	bmi.w	20004626 <_svfprintf_r+0xc3a>
200040b6:	ab56      	add	r3, sp, #344	; 0x158
200040b8:	1bdb      	subs	r3, r3, r7
200040ba:	9107      	str	r1, [sp, #28]
200040bc:	930c      	str	r3, [sp, #48]	; 0x30
200040be:	2300      	movs	r3, #0
200040c0:	9909      	ldr	r1, [sp, #36]	; 0x24
200040c2:	930d      	str	r3, [sp, #52]	; 0x34
200040c4:	9312      	str	r3, [sp, #72]	; 0x48
200040c6:	9316      	str	r3, [sp, #88]	; 0x58
200040c8:	9310      	str	r3, [sp, #64]	; 0x40
200040ca:	9b0c      	ldr	r3, [sp, #48]	; 0x30
200040cc:	f89d 208b 	ldrb.w	r2, [sp, #139]	; 0x8b
200040d0:	428b      	cmp	r3, r1
200040d2:	bfb8      	it	lt
200040d4:	460b      	movlt	r3, r1
200040d6:	9308      	str	r3, [sp, #32]
200040d8:	e6ac      	b.n	20003e34 <_svfprintf_r+0x448>
200040da:	2e65      	cmp	r6, #101	; 0x65
200040dc:	f340 80d8 	ble.w	20004290 <_svfprintf_r+0x8a4>
200040e0:	e9dd 0114 	ldrd	r0, r1, [sp, #80]	; 0x50
200040e4:	2200      	movs	r2, #0
200040e6:	2300      	movs	r3, #0
200040e8:	f003 ff22 	bl	20007f30 <__aeabi_dcmpeq>
200040ec:	2800      	cmp	r0, #0
200040ee:	f000 821e 	beq.w	2000452e <_svfprintf_r+0xb42>
200040f2:	2101      	movs	r1, #1
200040f4:	9b2b      	ldr	r3, [sp, #172]	; 0xac
200040f6:	4ac5      	ldr	r2, [pc, #788]	; (2000440c <_svfprintf_r+0xa20>)
200040f8:	440b      	add	r3, r1
200040fa:	440c      	add	r4, r1
200040fc:	2b07      	cmp	r3, #7
200040fe:	e9cd 342b 	strd	r3, r4, [sp, #172]	; 0xac
20004102:	e9c8 2100 	strd	r2, r1, [r8]
20004106:	f300 85bb 	bgt.w	20004c80 <_svfprintf_r+0x1294>
2000410a:	f108 0808 	add.w	r8, r8, #8
2000410e:	9b24      	ldr	r3, [sp, #144]	; 0x90
20004110:	9a13      	ldr	r2, [sp, #76]	; 0x4c
20004112:	4293      	cmp	r3, r2
20004114:	f280 8321 	bge.w	2000475a <_svfprintf_r+0xd6e>
20004118:	9b2b      	ldr	r3, [sp, #172]	; 0xac
2000411a:	9a17      	ldr	r2, [sp, #92]	; 0x5c
2000411c:	3301      	adds	r3, #1
2000411e:	9918      	ldr	r1, [sp, #96]	; 0x60
20004120:	4414      	add	r4, r2
20004122:	2b07      	cmp	r3, #7
20004124:	e9c8 1200 	strd	r1, r2, [r8]
20004128:	942c      	str	r4, [sp, #176]	; 0xb0
2000412a:	932b      	str	r3, [sp, #172]	; 0xac
2000412c:	f300 8448 	bgt.w	200049c0 <_svfprintf_r+0xfd4>
20004130:	f108 0808 	add.w	r8, r8, #8
20004134:	9b13      	ldr	r3, [sp, #76]	; 0x4c
20004136:	1e5d      	subs	r5, r3, #1
20004138:	2d00      	cmp	r5, #0
2000413a:	f77f ae06 	ble.w	20003d4a <_svfprintf_r+0x35e>
2000413e:	2d10      	cmp	r5, #16
20004140:	f340 85c7 	ble.w	20004cd2 <_svfprintf_r+0x12e6>
20004144:	4fb2      	ldr	r7, [pc, #712]	; (20004410 <_svfprintf_r+0xa24>)
20004146:	2610      	movs	r6, #16
20004148:	9b2b      	ldr	r3, [sp, #172]	; 0xac
2000414a:	970f      	str	r7, [sp, #60]	; 0x3c
2000414c:	e005      	b.n	2000415a <_svfprintf_r+0x76e>
2000414e:	f108 0808 	add.w	r8, r8, #8
20004152:	3d10      	subs	r5, #16
20004154:	2d10      	cmp	r5, #16
20004156:	f340 85bf 	ble.w	20004cd8 <_svfprintf_r+0x12ec>
2000415a:	3301      	adds	r3, #1
2000415c:	3410      	adds	r4, #16
2000415e:	2b07      	cmp	r3, #7
20004160:	e9cd 342b 	strd	r3, r4, [sp, #172]	; 0xac
20004164:	e9c8 7600 	strd	r7, r6, [r8]
20004168:	ddf1      	ble.n	2000414e <_svfprintf_r+0x762>
2000416a:	4651      	mov	r1, sl
2000416c:	4648      	mov	r0, r9
2000416e:	aa2a      	add	r2, sp, #168	; 0xa8
20004170:	f002 ff4a 	bl	20007008 <__ssprint_r>
20004174:	2800      	cmp	r0, #0
20004176:	f040 8081 	bne.w	2000427c <_svfprintf_r+0x890>
2000417a:	e9dd 342b 	ldrd	r3, r4, [sp, #172]	; 0xac
2000417e:	f10d 08b4 	add.w	r8, sp, #180	; 0xb4
20004182:	e7e6      	b.n	20004152 <_svfprintf_r+0x766>
20004184:	9b0b      	ldr	r3, [sp, #44]	; 0x2c
20004186:	9a08      	ldr	r2, [sp, #32]
20004188:	1a9d      	subs	r5, r3, r2
2000418a:	2d00      	cmp	r5, #0
2000418c:	f77f adc6 	ble.w	20003d1c <_svfprintf_r+0x330>
20004190:	2d10      	cmp	r5, #16
20004192:	f341 8069 	ble.w	20005268 <_svfprintf_r+0x187c>
20004196:	489e      	ldr	r0, [pc, #632]	; (20004410 <_svfprintf_r+0xa24>)
20004198:	4621      	mov	r1, r4
2000419a:	2310      	movs	r3, #16
2000419c:	4604      	mov	r4, r0
2000419e:	9a2b      	ldr	r2, [sp, #172]	; 0xac
200041a0:	900f      	str	r0, [sp, #60]	; 0x3c
200041a2:	e004      	b.n	200041ae <_svfprintf_r+0x7c2>
200041a4:	3d10      	subs	r5, #16
200041a6:	2d10      	cmp	r5, #16
200041a8:	f108 0808 	add.w	r8, r8, #8
200041ac:	dd17      	ble.n	200041de <_svfprintf_r+0x7f2>
200041ae:	3201      	adds	r2, #1
200041b0:	3110      	adds	r1, #16
200041b2:	2a07      	cmp	r2, #7
200041b4:	e9cd 212b 	strd	r2, r1, [sp, #172]	; 0xac
200041b8:	e9c8 4300 	strd	r4, r3, [r8]
200041bc:	ddf2      	ble.n	200041a4 <_svfprintf_r+0x7b8>
200041be:	4651      	mov	r1, sl
200041c0:	4648      	mov	r0, r9
200041c2:	aa2a      	add	r2, sp, #168	; 0xa8
200041c4:	f002 ff20 	bl	20007008 <__ssprint_r>
200041c8:	2800      	cmp	r0, #0
200041ca:	d157      	bne.n	2000427c <_svfprintf_r+0x890>
200041cc:	e9dd 212b 	ldrd	r2, r1, [sp, #172]	; 0xac
200041d0:	3d10      	subs	r5, #16
200041d2:	2d10      	cmp	r5, #16
200041d4:	f04f 0310 	mov.w	r3, #16
200041d8:	f10d 08b4 	add.w	r8, sp, #180	; 0xb4
200041dc:	dce7      	bgt.n	200041ae <_svfprintf_r+0x7c2>
200041de:	460c      	mov	r4, r1
200041e0:	3201      	adds	r2, #1
200041e2:	9b0f      	ldr	r3, [sp, #60]	; 0x3c
200041e4:	442c      	add	r4, r5
200041e6:	2a07      	cmp	r2, #7
200041e8:	e9cd 242b 	strd	r2, r4, [sp, #172]	; 0xac
200041ec:	e9c8 3500 	strd	r3, r5, [r8]
200041f0:	f300 858a 	bgt.w	20004d08 <_svfprintf_r+0x131c>
200041f4:	9b09      	ldr	r3, [sp, #36]	; 0x24
200041f6:	9a0c      	ldr	r2, [sp, #48]	; 0x30
200041f8:	f108 0808 	add.w	r8, r8, #8
200041fc:	1a9d      	subs	r5, r3, r2
200041fe:	2d00      	cmp	r5, #0
20004200:	f77f ad92 	ble.w	20003d28 <_svfprintf_r+0x33c>
20004204:	2d10      	cmp	r5, #16
20004206:	f340 860a 	ble.w	20004e1e <_svfprintf_r+0x1432>
2000420a:	4881      	ldr	r0, [pc, #516]	; (20004410 <_svfprintf_r+0xa24>)
2000420c:	4621      	mov	r1, r4
2000420e:	2310      	movs	r3, #16
20004210:	4604      	mov	r4, r0
20004212:	9a2b      	ldr	r2, [sp, #172]	; 0xac
20004214:	900f      	str	r0, [sp, #60]	; 0x3c
20004216:	e004      	b.n	20004222 <_svfprintf_r+0x836>
20004218:	3d10      	subs	r5, #16
2000421a:	2d10      	cmp	r5, #16
2000421c:	f108 0808 	add.w	r8, r8, #8
20004220:	dd16      	ble.n	20004250 <_svfprintf_r+0x864>
20004222:	3201      	adds	r2, #1
20004224:	3110      	adds	r1, #16
20004226:	2a07      	cmp	r2, #7
20004228:	e9cd 212b 	strd	r2, r1, [sp, #172]	; 0xac
2000422c:	e9c8 4300 	strd	r4, r3, [r8]
20004230:	ddf2      	ble.n	20004218 <_svfprintf_r+0x82c>
20004232:	4651      	mov	r1, sl
20004234:	4648      	mov	r0, r9
20004236:	aa2a      	add	r2, sp, #168	; 0xa8
20004238:	f002 fee6 	bl	20007008 <__ssprint_r>
2000423c:	b9f0      	cbnz	r0, 2000427c <_svfprintf_r+0x890>
2000423e:	e9dd 212b 	ldrd	r2, r1, [sp, #172]	; 0xac
20004242:	3d10      	subs	r5, #16
20004244:	2d10      	cmp	r5, #16
20004246:	f04f 0310 	mov.w	r3, #16
2000424a:	f10d 08b4 	add.w	r8, sp, #180	; 0xb4
2000424e:	dce8      	bgt.n	20004222 <_svfprintf_r+0x836>
20004250:	460c      	mov	r4, r1
20004252:	3201      	adds	r2, #1
20004254:	9b0f      	ldr	r3, [sp, #60]	; 0x3c
20004256:	442c      	add	r4, r5
20004258:	2a07      	cmp	r2, #7
2000425a:	e9cd 242b 	strd	r2, r4, [sp, #172]	; 0xac
2000425e:	e9c8 3500 	strd	r3, r5, [r8]
20004262:	f300 8237 	bgt.w	200046d4 <_svfprintf_r+0xce8>
20004266:	f108 0808 	add.w	r8, r8, #8
2000426a:	e55d      	b.n	20003d28 <_svfprintf_r+0x33c>
2000426c:	4651      	mov	r1, sl
2000426e:	4648      	mov	r0, r9
20004270:	aa2a      	add	r2, sp, #168	; 0xa8
20004272:	f002 fec9 	bl	20007008 <__ssprint_r>
20004276:	2800      	cmp	r0, #0
20004278:	f43f ad7b 	beq.w	20003d72 <_svfprintf_r+0x386>
2000427c:	46d3      	mov	fp, sl
2000427e:	9b0d      	ldr	r3, [sp, #52]	; 0x34
20004280:	2b00      	cmp	r3, #0
20004282:	f43f ad8a 	beq.w	20003d9a <_svfprintf_r+0x3ae>
20004286:	4648      	mov	r0, r9
20004288:	990d      	ldr	r1, [sp, #52]	; 0x34
2000428a:	f002 f9a5 	bl	200065d8 <_free_r>
2000428e:	e584      	b.n	20003d9a <_svfprintf_r+0x3ae>
20004290:	9b13      	ldr	r3, [sp, #76]	; 0x4c
20004292:	2b01      	cmp	r3, #1
20004294:	f340 81d5 	ble.w	20004642 <_svfprintf_r+0xc56>
20004298:	2301      	movs	r3, #1
2000429a:	9d2b      	ldr	r5, [sp, #172]	; 0xac
2000429c:	441c      	add	r4, r3
2000429e:	441d      	add	r5, r3
200042a0:	2d07      	cmp	r5, #7
200042a2:	942c      	str	r4, [sp, #176]	; 0xb0
200042a4:	f8c8 7000 	str.w	r7, [r8]
200042a8:	952b      	str	r5, [sp, #172]	; 0xac
200042aa:	f8c8 3004 	str.w	r3, [r8, #4]
200042ae:	f300 823a 	bgt.w	20004726 <_svfprintf_r+0xd3a>
200042b2:	f108 0808 	add.w	r8, r8, #8
200042b6:	9b17      	ldr	r3, [sp, #92]	; 0x5c
200042b8:	3501      	adds	r5, #1
200042ba:	9a18      	ldr	r2, [sp, #96]	; 0x60
200042bc:	441c      	add	r4, r3
200042be:	2d07      	cmp	r5, #7
200042c0:	e9cd 542b 	strd	r5, r4, [sp, #172]	; 0xac
200042c4:	e9c8 2300 	strd	r2, r3, [r8]
200042c8:	f300 823a 	bgt.w	20004740 <_svfprintf_r+0xd54>
200042cc:	f108 0808 	add.w	r8, r8, #8
200042d0:	2300      	movs	r3, #0
200042d2:	e9dd 0114 	ldrd	r0, r1, [sp, #80]	; 0x50
200042d6:	2200      	movs	r2, #0
200042d8:	f003 fe2a 	bl	20007f30 <__aeabi_dcmpeq>
200042dc:	9b13      	ldr	r3, [sp, #76]	; 0x4c
200042de:	2800      	cmp	r0, #0
200042e0:	f040 81cd 	bne.w	2000467e <_svfprintf_r+0xc92>
200042e4:	3b01      	subs	r3, #1
200042e6:	3501      	adds	r5, #1
200042e8:	3701      	adds	r7, #1
200042ea:	441c      	add	r4, r3
200042ec:	2d07      	cmp	r5, #7
200042ee:	e9cd 542b 	strd	r5, r4, [sp, #172]	; 0xac
200042f2:	f8c8 7000 	str.w	r7, [r8]
200042f6:	f8c8 3004 	str.w	r3, [r8, #4]
200042fa:	f300 84dc 	bgt.w	20004cb6 <_svfprintf_r+0x12ca>
200042fe:	f108 0808 	add.w	r8, r8, #8
20004302:	9a1b      	ldr	r2, [sp, #108]	; 0x6c
20004304:	3501      	adds	r5, #1
20004306:	4414      	add	r4, r2
20004308:	ab26      	add	r3, sp, #152	; 0x98
2000430a:	2d07      	cmp	r5, #7
2000430c:	e9cd 542b 	strd	r5, r4, [sp, #172]	; 0xac
20004310:	e9c8 3200 	strd	r3, r2, [r8]
20004314:	f77f ad17 	ble.w	20003d46 <_svfprintf_r+0x35a>
20004318:	4651      	mov	r1, sl
2000431a:	4648      	mov	r0, r9
2000431c:	aa2a      	add	r2, sp, #168	; 0xa8
2000431e:	f002 fe73 	bl	20007008 <__ssprint_r>
20004322:	2800      	cmp	r0, #0
20004324:	d1aa      	bne.n	2000427c <_svfprintf_r+0x890>
20004326:	9c2c      	ldr	r4, [sp, #176]	; 0xb0
20004328:	f10d 08b4 	add.w	r8, sp, #180	; 0xb4
2000432c:	e50d      	b.n	20003d4a <_svfprintf_r+0x35e>
2000432e:	2b01      	cmp	r3, #1
20004330:	f000 87ca 	beq.w	200052c8 <_svfprintf_r+0x18dc>
20004334:	2b02      	cmp	r3, #2
20004336:	9b07      	ldr	r3, [sp, #28]
20004338:	9308      	str	r3, [sp, #32]
2000433a:	f47f aea7 	bne.w	2000408c <_svfprintf_r+0x6a0>
2000433e:	9819      	ldr	r0, [sp, #100]	; 0x64
20004340:	af56      	add	r7, sp, #344	; 0x158
20004342:	0923      	lsrs	r3, r4, #4
20004344:	ea43 7305 	orr.w	r3, r3, r5, lsl #28
20004348:	0929      	lsrs	r1, r5, #4
2000434a:	f004 020f 	and.w	r2, r4, #15
2000434e:	460d      	mov	r5, r1
20004350:	461c      	mov	r4, r3
20004352:	5c83      	ldrb	r3, [r0, r2]
20004354:	f807 3d01 	strb.w	r3, [r7, #-1]!
20004358:	ea54 0305 	orrs.w	r3, r4, r5
2000435c:	d1f1      	bne.n	20004342 <_svfprintf_r+0x956>
2000435e:	9b08      	ldr	r3, [sp, #32]
20004360:	9307      	str	r3, [sp, #28]
20004362:	ab56      	add	r3, sp, #344	; 0x158
20004364:	1bdb      	subs	r3, r3, r7
20004366:	930c      	str	r3, [sp, #48]	; 0x30
20004368:	e6a9      	b.n	200040be <_svfprintf_r+0x6d2>
2000436a:	2d10      	cmp	r5, #16
2000436c:	f340 8668 	ble.w	20005040 <_svfprintf_r+0x1654>
20004370:	e9dd 212b 	ldrd	r2, r1, [sp, #172]	; 0xac
20004374:	931e      	str	r3, [sp, #120]	; 0x78
20004376:	460b      	mov	r3, r1
20004378:	4639      	mov	r1, r7
2000437a:	2410      	movs	r4, #16
2000437c:	4637      	mov	r7, r6
2000437e:	4656      	mov	r6, sl
20004380:	46ca      	mov	sl, r9
20004382:	4689      	mov	r9, r1
20004384:	e004      	b.n	20004390 <_svfprintf_r+0x9a4>
20004386:	3d10      	subs	r5, #16
20004388:	2d10      	cmp	r5, #16
2000438a:	f108 0808 	add.w	r8, r8, #8
2000438e:	dd17      	ble.n	200043c0 <_svfprintf_r+0x9d4>
20004390:	3201      	adds	r2, #1
20004392:	4920      	ldr	r1, [pc, #128]	; (20004414 <_svfprintf_r+0xa28>)
20004394:	3310      	adds	r3, #16
20004396:	2a07      	cmp	r2, #7
20004398:	e9cd 232b 	strd	r2, r3, [sp, #172]	; 0xac
2000439c:	e9c8 1400 	strd	r1, r4, [r8]
200043a0:	ddf1      	ble.n	20004386 <_svfprintf_r+0x99a>
200043a2:	4631      	mov	r1, r6
200043a4:	4650      	mov	r0, sl
200043a6:	aa2a      	add	r2, sp, #168	; 0xa8
200043a8:	f002 fe2e 	bl	20007008 <__ssprint_r>
200043ac:	2800      	cmp	r0, #0
200043ae:	f040 8458 	bne.w	20004c62 <_svfprintf_r+0x1276>
200043b2:	e9dd 232b 	ldrd	r2, r3, [sp, #172]	; 0xac
200043b6:	3d10      	subs	r5, #16
200043b8:	2d10      	cmp	r5, #16
200043ba:	f10d 08b4 	add.w	r8, sp, #180	; 0xb4
200043be:	dce7      	bgt.n	20004390 <_svfprintf_r+0x9a4>
200043c0:	4648      	mov	r0, r9
200043c2:	46d1      	mov	r9, sl
200043c4:	46b2      	mov	sl, r6
200043c6:	463e      	mov	r6, r7
200043c8:	4607      	mov	r7, r0
200043ca:	4619      	mov	r1, r3
200043cc:	9b1e      	ldr	r3, [sp, #120]	; 0x78
200043ce:	194c      	adds	r4, r1, r5
200043d0:	3201      	adds	r2, #1
200043d2:	4910      	ldr	r1, [pc, #64]	; (20004414 <_svfprintf_r+0xa28>)
200043d4:	2a07      	cmp	r2, #7
200043d6:	e9cd 242b 	strd	r2, r4, [sp, #172]	; 0xac
200043da:	e9c8 1500 	strd	r1, r5, [r8]
200043de:	f300 841f 	bgt.w	20004c20 <_svfprintf_r+0x1234>
200043e2:	f89d 208b 	ldrb.w	r2, [sp, #139]	; 0x8b
200043e6:	f108 0808 	add.w	r8, r8, #8
200043ea:	e474      	b.n	20003cd6 <_svfprintf_r+0x2ea>
200043ec:	9308      	str	r3, [sp, #32]
200043ee:	2d00      	cmp	r5, #0
200043f0:	bf08      	it	eq
200043f2:	2c0a      	cmpeq	r4, #10
200043f4:	f080 83d0 	bcs.w	20004b98 <_svfprintf_r+0x11ac>
200043f8:	9b08      	ldr	r3, [sp, #32]
200043fa:	3430      	adds	r4, #48	; 0x30
200043fc:	9307      	str	r3, [sp, #28]
200043fe:	2301      	movs	r3, #1
20004400:	f88d 4157 	strb.w	r4, [sp, #343]	; 0x157
20004404:	930c      	str	r3, [sp, #48]	; 0x30
20004406:	f20d 1757 	addw	r7, sp, #343	; 0x157
2000440a:	e658      	b.n	200040be <_svfprintf_r+0x6d2>
2000440c:	200086ec 	.word	0x200086ec
20004410:	20008700 	.word	0x20008700
20004414:	200086f0 	.word	0x200086f0
20004418:	4651      	mov	r1, sl
2000441a:	4648      	mov	r0, r9
2000441c:	aa2a      	add	r2, sp, #168	; 0xa8
2000441e:	f002 fdf3 	bl	20007008 <__ssprint_r>
20004422:	2800      	cmp	r0, #0
20004424:	f47f af2a 	bne.w	2000427c <_svfprintf_r+0x890>
20004428:	9a24      	ldr	r2, [sp, #144]	; 0x90
2000442a:	9c2c      	ldr	r4, [sp, #176]	; 0xb0
2000442c:	f10d 08b4 	add.w	r8, sp, #180	; 0xb4
20004430:	2a00      	cmp	r2, #0
20004432:	f040 847f 	bne.w	20004d34 <_svfprintf_r+0x1348>
20004436:	9b07      	ldr	r3, [sp, #28]
20004438:	9a13      	ldr	r2, [sp, #76]	; 0x4c
2000443a:	f003 0301 	and.w	r3, r3, #1
2000443e:	4313      	orrs	r3, r2
20004440:	f43f ac83 	beq.w	20003d4a <_svfprintf_r+0x35e>
20004444:	9b2b      	ldr	r3, [sp, #172]	; 0xac
20004446:	9a17      	ldr	r2, [sp, #92]	; 0x5c
20004448:	3301      	adds	r3, #1
2000444a:	9918      	ldr	r1, [sp, #96]	; 0x60
2000444c:	4414      	add	r4, r2
2000444e:	2b07      	cmp	r3, #7
20004450:	e9c8 1200 	strd	r1, r2, [r8]
20004454:	942c      	str	r4, [sp, #176]	; 0xb0
20004456:	932b      	str	r3, [sp, #172]	; 0xac
20004458:	f300 8524 	bgt.w	20004ea4 <_svfprintf_r+0x14b8>
2000445c:	f108 0808 	add.w	r8, r8, #8
20004460:	9a13      	ldr	r2, [sp, #76]	; 0x4c
20004462:	3301      	adds	r3, #1
20004464:	4414      	add	r4, r2
20004466:	2b07      	cmp	r3, #7
20004468:	e9cd 342b 	strd	r3, r4, [sp, #172]	; 0xac
2000446c:	e9c8 7200 	strd	r7, r2, [r8]
20004470:	f77f ac69 	ble.w	20003d46 <_svfprintf_r+0x35a>
20004474:	4651      	mov	r1, sl
20004476:	4648      	mov	r0, r9
20004478:	aa2a      	add	r2, sp, #168	; 0xa8
2000447a:	f002 fdc5 	bl	20007008 <__ssprint_r>
2000447e:	2800      	cmp	r0, #0
20004480:	f47f aefc 	bne.w	2000427c <_svfprintf_r+0x890>
20004484:	9c2c      	ldr	r4, [sp, #176]	; 0xb0
20004486:	f10d 08b4 	add.w	r8, sp, #180	; 0xb4
2000448a:	e45e      	b.n	20003d4a <_svfprintf_r+0x35e>
2000448c:	4651      	mov	r1, sl
2000448e:	4648      	mov	r0, r9
20004490:	aa2a      	add	r2, sp, #168	; 0xa8
20004492:	931e      	str	r3, [sp, #120]	; 0x78
20004494:	f002 fdb8 	bl	20007008 <__ssprint_r>
20004498:	2800      	cmp	r0, #0
2000449a:	f47f aeef 	bne.w	2000427c <_svfprintf_r+0x890>
2000449e:	9c2c      	ldr	r4, [sp, #176]	; 0xb0
200044a0:	9b1e      	ldr	r3, [sp, #120]	; 0x78
200044a2:	f10d 08b4 	add.w	r8, sp, #180	; 0xb4
200044a6:	e426      	b.n	20003cf6 <_svfprintf_r+0x30a>
200044a8:	4651      	mov	r1, sl
200044aa:	4648      	mov	r0, r9
200044ac:	aa2a      	add	r2, sp, #168	; 0xa8
200044ae:	f002 fdab 	bl	20007008 <__ssprint_r>
200044b2:	2800      	cmp	r0, #0
200044b4:	f47f aee2 	bne.w	2000427c <_svfprintf_r+0x890>
200044b8:	9c2c      	ldr	r4, [sp, #176]	; 0xb0
200044ba:	f10d 08b4 	add.w	r8, sp, #180	; 0xb4
200044be:	e429      	b.n	20003d14 <_svfprintf_r+0x328>
200044c0:	2d10      	cmp	r5, #16
200044c2:	f340 86be 	ble.w	20005242 <_svfprintf_r+0x1856>
200044c6:	2610      	movs	r6, #16
200044c8:	9b2b      	ldr	r3, [sp, #172]	; 0xac
200044ca:	e004      	b.n	200044d6 <_svfprintf_r+0xaea>
200044cc:	3d10      	subs	r5, #16
200044ce:	2d10      	cmp	r5, #16
200044d0:	f108 0808 	add.w	r8, r8, #8
200044d4:	dd17      	ble.n	20004506 <_svfprintf_r+0xb1a>
200044d6:	3301      	adds	r3, #1
200044d8:	4aad      	ldr	r2, [pc, #692]	; (20004790 <_svfprintf_r+0xda4>)
200044da:	3410      	adds	r4, #16
200044dc:	2b07      	cmp	r3, #7
200044de:	e9cd 342b 	strd	r3, r4, [sp, #172]	; 0xac
200044e2:	e9c8 2600 	strd	r2, r6, [r8]
200044e6:	ddf1      	ble.n	200044cc <_svfprintf_r+0xae0>
200044e8:	4651      	mov	r1, sl
200044ea:	4648      	mov	r0, r9
200044ec:	aa2a      	add	r2, sp, #168	; 0xa8
200044ee:	f002 fd8b 	bl	20007008 <__ssprint_r>
200044f2:	2800      	cmp	r0, #0
200044f4:	f47f aec2 	bne.w	2000427c <_svfprintf_r+0x890>
200044f8:	e9dd 342b 	ldrd	r3, r4, [sp, #172]	; 0xac
200044fc:	3d10      	subs	r5, #16
200044fe:	2d10      	cmp	r5, #16
20004500:	f10d 08b4 	add.w	r8, sp, #180	; 0xb4
20004504:	dce7      	bgt.n	200044d6 <_svfprintf_r+0xaea>
20004506:	3301      	adds	r3, #1
20004508:	4aa1      	ldr	r2, [pc, #644]	; (20004790 <_svfprintf_r+0xda4>)
2000450a:	442c      	add	r4, r5
2000450c:	2b07      	cmp	r3, #7
2000450e:	e9cd 342b 	strd	r3, r4, [sp, #172]	; 0xac
20004512:	e9c8 2500 	strd	r2, r5, [r8]
20004516:	f77f ac21 	ble.w	20003d5c <_svfprintf_r+0x370>
2000451a:	4651      	mov	r1, sl
2000451c:	4648      	mov	r0, r9
2000451e:	aa2a      	add	r2, sp, #168	; 0xa8
20004520:	f002 fd72 	bl	20007008 <__ssprint_r>
20004524:	2800      	cmp	r0, #0
20004526:	f47f aea9 	bne.w	2000427c <_svfprintf_r+0x890>
2000452a:	9c2c      	ldr	r4, [sp, #176]	; 0xb0
2000452c:	e416      	b.n	20003d5c <_svfprintf_r+0x370>
2000452e:	9a24      	ldr	r2, [sp, #144]	; 0x90
20004530:	2a00      	cmp	r2, #0
20004532:	f340 8386 	ble.w	20004c42 <_svfprintf_r+0x1256>
20004536:	9b10      	ldr	r3, [sp, #64]	; 0x40
20004538:	9a13      	ldr	r2, [sp, #76]	; 0x4c
2000453a:	4293      	cmp	r3, r2
2000453c:	bfa8      	it	ge
2000453e:	4613      	movge	r3, r2
20004540:	2b00      	cmp	r3, #0
20004542:	461d      	mov	r5, r3
20004544:	dd0b      	ble.n	2000455e <_svfprintf_r+0xb72>
20004546:	9b2b      	ldr	r3, [sp, #172]	; 0xac
20004548:	442c      	add	r4, r5
2000454a:	3301      	adds	r3, #1
2000454c:	2b07      	cmp	r3, #7
2000454e:	e9c8 7500 	strd	r7, r5, [r8]
20004552:	942c      	str	r4, [sp, #176]	; 0xb0
20004554:	932b      	str	r3, [sp, #172]	; 0xac
20004556:	f300 851e 	bgt.w	20004f96 <_svfprintf_r+0x15aa>
2000455a:	f108 0808 	add.w	r8, r8, #8
2000455e:	9b10      	ldr	r3, [sp, #64]	; 0x40
20004560:	2d00      	cmp	r5, #0
20004562:	bfa8      	it	ge
20004564:	1b5b      	subge	r3, r3, r5
20004566:	2b00      	cmp	r3, #0
20004568:	461d      	mov	r5, r3
2000456a:	f300 8256 	bgt.w	20004a1a <_svfprintf_r+0x102e>
2000456e:	9b10      	ldr	r3, [sp, #64]	; 0x40
20004570:	443b      	add	r3, r7
20004572:	461e      	mov	r6, r3
20004574:	9b07      	ldr	r3, [sp, #28]
20004576:	055b      	lsls	r3, r3, #21
20004578:	f100 8277 	bmi.w	20004a6a <_svfprintf_r+0x107e>
2000457c:	9b24      	ldr	r3, [sp, #144]	; 0x90
2000457e:	9a13      	ldr	r2, [sp, #76]	; 0x4c
20004580:	4293      	cmp	r3, r2
20004582:	db03      	blt.n	2000458c <_svfprintf_r+0xba0>
20004584:	9a07      	ldr	r2, [sp, #28]
20004586:	07d5      	lsls	r5, r2, #31
20004588:	f140 847a 	bpl.w	20004e80 <_svfprintf_r+0x1494>
2000458c:	9a2b      	ldr	r2, [sp, #172]	; 0xac
2000458e:	9917      	ldr	r1, [sp, #92]	; 0x5c
20004590:	3201      	adds	r2, #1
20004592:	9818      	ldr	r0, [sp, #96]	; 0x60
20004594:	440c      	add	r4, r1
20004596:	2a07      	cmp	r2, #7
20004598:	e9c8 0100 	strd	r0, r1, [r8]
2000459c:	942c      	str	r4, [sp, #176]	; 0xb0
2000459e:	922b      	str	r2, [sp, #172]	; 0xac
200045a0:	f300 8506 	bgt.w	20004fb0 <_svfprintf_r+0x15c4>
200045a4:	f108 0808 	add.w	r8, r8, #8
200045a8:	9a13      	ldr	r2, [sp, #76]	; 0x4c
200045aa:	18bd      	adds	r5, r7, r2
200045ac:	1bad      	subs	r5, r5, r6
200045ae:	1ad3      	subs	r3, r2, r3
200045b0:	429d      	cmp	r5, r3
200045b2:	bfa8      	it	ge
200045b4:	461d      	movge	r5, r3
200045b6:	2d00      	cmp	r5, #0
200045b8:	dd0b      	ble.n	200045d2 <_svfprintf_r+0xbe6>
200045ba:	9a2b      	ldr	r2, [sp, #172]	; 0xac
200045bc:	442c      	add	r4, r5
200045be:	3201      	adds	r2, #1
200045c0:	2a07      	cmp	r2, #7
200045c2:	e9c8 6500 	strd	r6, r5, [r8]
200045c6:	942c      	str	r4, [sp, #176]	; 0xb0
200045c8:	922b      	str	r2, [sp, #172]	; 0xac
200045ca:	f300 855f 	bgt.w	2000508c <_svfprintf_r+0x16a0>
200045ce:	f108 0808 	add.w	r8, r8, #8
200045d2:	2d00      	cmp	r5, #0
200045d4:	bfb4      	ite	lt
200045d6:	461d      	movlt	r5, r3
200045d8:	1b5d      	subge	r5, r3, r5
200045da:	2d00      	cmp	r5, #0
200045dc:	f77f abb5 	ble.w	20003d4a <_svfprintf_r+0x35e>
200045e0:	2d10      	cmp	r5, #16
200045e2:	f340 8376 	ble.w	20004cd2 <_svfprintf_r+0x12e6>
200045e6:	4f6b      	ldr	r7, [pc, #428]	; (20004794 <_svfprintf_r+0xda8>)
200045e8:	2610      	movs	r6, #16
200045ea:	9b2b      	ldr	r3, [sp, #172]	; 0xac
200045ec:	970f      	str	r7, [sp, #60]	; 0x3c
200045ee:	e005      	b.n	200045fc <_svfprintf_r+0xc10>
200045f0:	f108 0808 	add.w	r8, r8, #8
200045f4:	3d10      	subs	r5, #16
200045f6:	2d10      	cmp	r5, #16
200045f8:	f340 836e 	ble.w	20004cd8 <_svfprintf_r+0x12ec>
200045fc:	3301      	adds	r3, #1
200045fe:	3410      	adds	r4, #16
20004600:	2b07      	cmp	r3, #7
20004602:	e9cd 342b 	strd	r3, r4, [sp, #172]	; 0xac
20004606:	e9c8 7600 	strd	r7, r6, [r8]
2000460a:	ddf1      	ble.n	200045f0 <_svfprintf_r+0xc04>
2000460c:	4651      	mov	r1, sl
2000460e:	4648      	mov	r0, r9
20004610:	aa2a      	add	r2, sp, #168	; 0xa8
20004612:	f002 fcf9 	bl	20007008 <__ssprint_r>
20004616:	2800      	cmp	r0, #0
20004618:	f47f ae30 	bne.w	2000427c <_svfprintf_r+0x890>
2000461c:	e9dd 342b 	ldrd	r3, r4, [sp, #172]	; 0xac
20004620:	f10d 08b4 	add.w	r8, sp, #180	; 0xb4
20004624:	e7e6      	b.n	200045f4 <_svfprintf_r+0xc08>
20004626:	2b30      	cmp	r3, #48	; 0x30
20004628:	f43f ae99 	beq.w	2000435e <_svfprintf_r+0x972>
2000462c:	2330      	movs	r3, #48	; 0x30
2000462e:	3a02      	subs	r2, #2
20004630:	f807 3c01 	strb.w	r3, [r7, #-1]
20004634:	9908      	ldr	r1, [sp, #32]
20004636:	ab56      	add	r3, sp, #344	; 0x158
20004638:	1a9b      	subs	r3, r3, r2
2000463a:	4617      	mov	r7, r2
2000463c:	9107      	str	r1, [sp, #28]
2000463e:	930c      	str	r3, [sp, #48]	; 0x30
20004640:	e53d      	b.n	200040be <_svfprintf_r+0x6d2>
20004642:	9b07      	ldr	r3, [sp, #28]
20004644:	07d8      	lsls	r0, r3, #31
20004646:	f53f ae27 	bmi.w	20004298 <_svfprintf_r+0x8ac>
2000464a:	2301      	movs	r3, #1
2000464c:	9d2b      	ldr	r5, [sp, #172]	; 0xac
2000464e:	441c      	add	r4, r3
20004650:	441d      	add	r5, r3
20004652:	2d07      	cmp	r5, #7
20004654:	942c      	str	r4, [sp, #176]	; 0xb0
20004656:	f8c8 7000 	str.w	r7, [r8]
2000465a:	952b      	str	r5, [sp, #172]	; 0xac
2000465c:	f8c8 3004 	str.w	r3, [r8, #4]
20004660:	f77f ae4d 	ble.w	200042fe <_svfprintf_r+0x912>
20004664:	4651      	mov	r1, sl
20004666:	4648      	mov	r0, r9
20004668:	aa2a      	add	r2, sp, #168	; 0xa8
2000466a:	f002 fccd 	bl	20007008 <__ssprint_r>
2000466e:	2800      	cmp	r0, #0
20004670:	f47f ae04 	bne.w	2000427c <_svfprintf_r+0x890>
20004674:	e9dd 542b 	ldrd	r5, r4, [sp, #172]	; 0xac
20004678:	f10d 08b4 	add.w	r8, sp, #180	; 0xb4
2000467c:	e641      	b.n	20004302 <_svfprintf_r+0x916>
2000467e:	1e5e      	subs	r6, r3, #1
20004680:	2e00      	cmp	r6, #0
20004682:	f77f ae3e 	ble.w	20004302 <_svfprintf_r+0x916>
20004686:	2e10      	cmp	r6, #16
20004688:	f340 871e 	ble.w	200054c8 <_svfprintf_r+0x1adc>
2000468c:	4b41      	ldr	r3, [pc, #260]	; (20004794 <_svfprintf_r+0xda8>)
2000468e:	f8cd b024 	str.w	fp, [sp, #36]	; 0x24
20004692:	2710      	movs	r7, #16
20004694:	46d3      	mov	fp, sl
20004696:	930f      	str	r3, [sp, #60]	; 0x3c
20004698:	46ca      	mov	sl, r9
2000469a:	4699      	mov	r9, r3
2000469c:	e005      	b.n	200046aa <_svfprintf_r+0xcbe>
2000469e:	f108 0808 	add.w	r8, r8, #8
200046a2:	3e10      	subs	r6, #16
200046a4:	2e10      	cmp	r6, #16
200046a6:	f340 82f8 	ble.w	20004c9a <_svfprintf_r+0x12ae>
200046aa:	3501      	adds	r5, #1
200046ac:	3410      	adds	r4, #16
200046ae:	2d07      	cmp	r5, #7
200046b0:	e9cd 542b 	strd	r5, r4, [sp, #172]	; 0xac
200046b4:	e9c8 9700 	strd	r9, r7, [r8]
200046b8:	ddf1      	ble.n	2000469e <_svfprintf_r+0xcb2>
200046ba:	4659      	mov	r1, fp
200046bc:	4650      	mov	r0, sl
200046be:	aa2a      	add	r2, sp, #168	; 0xa8
200046c0:	f002 fca2 	bl	20007008 <__ssprint_r>
200046c4:	2800      	cmp	r0, #0
200046c6:	f040 85cc 	bne.w	20005262 <_svfprintf_r+0x1876>
200046ca:	e9dd 542b 	ldrd	r5, r4, [sp, #172]	; 0xac
200046ce:	f10d 08b4 	add.w	r8, sp, #180	; 0xb4
200046d2:	e7e6      	b.n	200046a2 <_svfprintf_r+0xcb6>
200046d4:	4651      	mov	r1, sl
200046d6:	4648      	mov	r0, r9
200046d8:	aa2a      	add	r2, sp, #168	; 0xa8
200046da:	f002 fc95 	bl	20007008 <__ssprint_r>
200046de:	2800      	cmp	r0, #0
200046e0:	f47f adcc 	bne.w	2000427c <_svfprintf_r+0x890>
200046e4:	9c2c      	ldr	r4, [sp, #176]	; 0xb0
200046e6:	f10d 08b4 	add.w	r8, sp, #180	; 0xb4
200046ea:	f7ff bb1d 	b.w	20003d28 <_svfprintf_r+0x33c>
200046ee:	9b08      	ldr	r3, [sp, #32]
200046f0:	06dc      	lsls	r4, r3, #27
200046f2:	f100 8119 	bmi.w	20004928 <_svfprintf_r+0xf3c>
200046f6:	9b08      	ldr	r3, [sp, #32]
200046f8:	0658      	lsls	r0, r3, #25
200046fa:	f140 8368 	bpl.w	20004dce <_svfprintf_r+0x13e2>
200046fe:	9a0e      	ldr	r2, [sp, #56]	; 0x38
20004700:	2301      	movs	r3, #1
20004702:	f852 4b04 	ldr.w	r4, [r2], #4
20004706:	2500      	movs	r5, #0
20004708:	920e      	str	r2, [sp, #56]	; 0x38
2000470a:	b2a4      	uxth	r4, r4
2000470c:	f7ff ba7f 	b.w	20003c0e <_svfprintf_r+0x222>
20004710:	232d      	movs	r3, #45	; 0x2d
20004712:	9a07      	ldr	r2, [sp, #28]
20004714:	4264      	negs	r4, r4
20004716:	f88d 308b 	strb.w	r3, [sp, #139]	; 0x8b
2000471a:	eb65 0545 	sbc.w	r5, r5, r5, lsl #1
2000471e:	2301      	movs	r3, #1
20004720:	9208      	str	r2, [sp, #32]
20004722:	f7ff ba77 	b.w	20003c14 <_svfprintf_r+0x228>
20004726:	4651      	mov	r1, sl
20004728:	4648      	mov	r0, r9
2000472a:	aa2a      	add	r2, sp, #168	; 0xa8
2000472c:	f002 fc6c 	bl	20007008 <__ssprint_r>
20004730:	2800      	cmp	r0, #0
20004732:	f47f ada3 	bne.w	2000427c <_svfprintf_r+0x890>
20004736:	e9dd 542b 	ldrd	r5, r4, [sp, #172]	; 0xac
2000473a:	f10d 08b4 	add.w	r8, sp, #180	; 0xb4
2000473e:	e5ba      	b.n	200042b6 <_svfprintf_r+0x8ca>
20004740:	4651      	mov	r1, sl
20004742:	4648      	mov	r0, r9
20004744:	aa2a      	add	r2, sp, #168	; 0xa8
20004746:	f002 fc5f 	bl	20007008 <__ssprint_r>
2000474a:	2800      	cmp	r0, #0
2000474c:	f47f ad96 	bne.w	2000427c <_svfprintf_r+0x890>
20004750:	e9dd 542b 	ldrd	r5, r4, [sp, #172]	; 0xac
20004754:	f10d 08b4 	add.w	r8, sp, #180	; 0xb4
20004758:	e5ba      	b.n	200042d0 <_svfprintf_r+0x8e4>
2000475a:	9b07      	ldr	r3, [sp, #28]
2000475c:	07da      	lsls	r2, r3, #31
2000475e:	f57f aaf4 	bpl.w	20003d4a <_svfprintf_r+0x35e>
20004762:	e4d9      	b.n	20004118 <_svfprintf_r+0x72c>
20004764:	af56      	add	r7, sp, #344	; 0x158
20004766:	e4aa      	b.n	200040be <_svfprintf_r+0x6d2>
20004768:	9b0e      	ldr	r3, [sp, #56]	; 0x38
2000476a:	465f      	mov	r7, fp
2000476c:	f853 1b04 	ldr.w	r1, [r3], #4
20004770:	930e      	str	r3, [sp, #56]	; 0x38
20004772:	9b0a      	ldr	r3, [sp, #40]	; 0x28
20004774:	17dd      	asrs	r5, r3, #31
20004776:	461a      	mov	r2, r3
20004778:	462b      	mov	r3, r5
2000477a:	e9c1 2300 	strd	r2, r3, [r1]
2000477e:	f7ff bb03 	b.w	20003d88 <_svfprintf_r+0x39c>
20004782:	9b0e      	ldr	r3, [sp, #56]	; 0x38
20004784:	2500      	movs	r5, #0
20004786:	f853 4b04 	ldr.w	r4, [r3], #4
2000478a:	930e      	str	r3, [sp, #56]	; 0x38
2000478c:	f7ff ba3a 	b.w	20003c04 <_svfprintf_r+0x218>
20004790:	200086f0 	.word	0x200086f0
20004794:	20008700 	.word	0x20008700
20004798:	e9dd 0114 	ldrd	r0, r1, [sp, #80]	; 0x50
2000479c:	460b      	mov	r3, r1
2000479e:	4602      	mov	r2, r0
200047a0:	f003 fbf8 	bl	20007f94 <__aeabi_dcmpun>
200047a4:	4601      	mov	r1, r0
200047a6:	2800      	cmp	r0, #0
200047a8:	f040 8643 	bne.w	20005432 <_svfprintf_r+0x1a46>
200047ac:	2e61      	cmp	r6, #97	; 0x61
200047ae:	f000 8586 	beq.w	200052be <_svfprintf_r+0x18d2>
200047b2:	2e41      	cmp	r6, #65	; 0x41
200047b4:	f000 847a 	beq.w	200050ac <_svfprintf_r+0x16c0>
200047b8:	9b09      	ldr	r3, [sp, #36]	; 0x24
200047ba:	f026 0520 	bic.w	r5, r6, #32
200047be:	1c5a      	adds	r2, r3, #1
200047c0:	9508      	str	r5, [sp, #32]
200047c2:	f000 837d 	beq.w	20004ec0 <_svfprintf_r+0x14d4>
200047c6:	2d47      	cmp	r5, #71	; 0x47
200047c8:	f000 859e 	beq.w	20005308 <_svfprintf_r+0x191c>
200047cc:	e9dd 0114 	ldrd	r0, r1, [sp, #80]	; 0x50
200047d0:	9b07      	ldr	r3, [sp, #28]
200047d2:	f443 7380 	orr.w	r3, r3, #256	; 0x100
200047d6:	9312      	str	r3, [sp, #72]	; 0x48
200047d8:	460b      	mov	r3, r1
200047da:	2b00      	cmp	r3, #0
200047dc:	f2c0 85ba 	blt.w	20005354 <_svfprintf_r+0x1968>
200047e0:	2200      	movs	r2, #0
200047e2:	930f      	str	r3, [sp, #60]	; 0x3c
200047e4:	921e      	str	r2, [sp, #120]	; 0x78
200047e6:	920d      	str	r2, [sp, #52]	; 0x34
200047e8:	900c      	str	r0, [sp, #48]	; 0x30
200047ea:	2d46      	cmp	r5, #70	; 0x46
200047ec:	9a0c      	ldr	r2, [sp, #48]	; 0x30
200047ee:	f000 8407 	beq.w	20005000 <_svfprintf_r+0x1614>
200047f2:	2d45      	cmp	r5, #69	; 0x45
200047f4:	f04f 0002 	mov.w	r0, #2
200047f8:	9b0f      	ldr	r3, [sp, #60]	; 0x3c
200047fa:	f040 83e7 	bne.w	20004fcc <_svfprintf_r+0x15e0>
200047fe:	9909      	ldr	r1, [sp, #36]	; 0x24
20004800:	9000      	str	r0, [sp, #0]
20004802:	1c4c      	adds	r4, r1, #1
20004804:	a928      	add	r1, sp, #160	; 0xa0
20004806:	a825      	add	r0, sp, #148	; 0x94
20004808:	9104      	str	r1, [sp, #16]
2000480a:	a924      	add	r1, sp, #144	; 0x90
2000480c:	e9cd 1002 	strd	r1, r0, [sp, #8]
20004810:	9401      	str	r4, [sp, #4]
20004812:	4648      	mov	r0, r9
20004814:	f000 ff34 	bl	20005680 <_dtoa_r>
20004818:	4607      	mov	r7, r0
2000481a:	4404      	add	r4, r0
2000481c:	9b12      	ldr	r3, [sp, #72]	; 0x48
2000481e:	9d07      	ldr	r5, [sp, #28]
20004820:	9307      	str	r3, [sp, #28]
20004822:	2200      	movs	r2, #0
20004824:	2300      	movs	r3, #0
20004826:	980c      	ldr	r0, [sp, #48]	; 0x30
20004828:	990f      	ldr	r1, [sp, #60]	; 0x3c
2000482a:	f003 fb81 	bl	20007f30 <__aeabi_dcmpeq>
2000482e:	2800      	cmp	r0, #0
20004830:	f000 8398 	beq.w	20004f64 <_svfprintf_r+0x1578>
20004834:	4623      	mov	r3, r4
20004836:	1bdb      	subs	r3, r3, r7
20004838:	9313      	str	r3, [sp, #76]	; 0x4c
2000483a:	9b08      	ldr	r3, [sp, #32]
2000483c:	2b47      	cmp	r3, #71	; 0x47
2000483e:	f000 835e 	beq.w	20004efe <_svfprintf_r+0x1512>
20004842:	9b08      	ldr	r3, [sp, #32]
20004844:	2b46      	cmp	r3, #70	; 0x46
20004846:	f000 840b 	beq.w	20005060 <_svfprintf_r+0x1674>
2000484a:	9b24      	ldr	r3, [sp, #144]	; 0x90
2000484c:	9310      	str	r3, [sp, #64]	; 0x40
2000484e:	9b10      	ldr	r3, [sp, #64]	; 0x40
20004850:	9a08      	ldr	r2, [sp, #32]
20004852:	3b01      	subs	r3, #1
20004854:	2a41      	cmp	r2, #65	; 0x41
20004856:	9324      	str	r3, [sp, #144]	; 0x90
20004858:	f000 85ad 	beq.w	200053b6 <_svfprintf_r+0x19ca>
2000485c:	2100      	movs	r1, #0
2000485e:	b2f2      	uxtb	r2, r6
20004860:	2b00      	cmp	r3, #0
20004862:	f88d 2098 	strb.w	r2, [sp, #152]	; 0x98
20004866:	bfb6      	itet	lt
20004868:	222d      	movlt	r2, #45	; 0x2d
2000486a:	222b      	movge	r2, #43	; 0x2b
2000486c:	9b10      	ldrlt	r3, [sp, #64]	; 0x40
2000486e:	f88d 2099 	strb.w	r2, [sp, #153]	; 0x99
20004872:	bfb8      	it	lt
20004874:	f1c3 0301 	rsblt	r3, r3, #1
20004878:	2b09      	cmp	r3, #9
2000487a:	f340 85a2 	ble.w	200053c2 <_svfprintf_r+0x19d6>
2000487e:	f10d 0ea7 	add.w	lr, sp, #167	; 0xa7
20004882:	4672      	mov	r2, lr
20004884:	469c      	mov	ip, r3
20004886:	4cbf      	ldr	r4, [pc, #764]	; (20004b84 <_svfprintf_r+0x1198>)
20004888:	4660      	mov	r0, ip
2000488a:	4611      	mov	r1, r2
2000488c:	fb84 230c 	smull	r2, r3, r4, ip
20004890:	ea4f 72ec 	mov.w	r2, ip, asr #31
20004894:	ebc2 02a3 	rsb	r2, r2, r3, asr #2
20004898:	eb02 0382 	add.w	r3, r2, r2, lsl #2
2000489c:	ebac 0343 	sub.w	r3, ip, r3, lsl #1
200048a0:	3330      	adds	r3, #48	; 0x30
200048a2:	2863      	cmp	r0, #99	; 0x63
200048a4:	4694      	mov	ip, r2
200048a6:	f801 3c01 	strb.w	r3, [r1, #-1]
200048aa:	f101 32ff 	add.w	r2, r1, #4294967295
200048ae:	dceb      	bgt.n	20004888 <_svfprintf_r+0xe9c>
200048b0:	4663      	mov	r3, ip
200048b2:	3330      	adds	r3, #48	; 0x30
200048b4:	b2d8      	uxtb	r0, r3
200048b6:	1e8b      	subs	r3, r1, #2
200048b8:	459e      	cmp	lr, r3
200048ba:	f802 0c01 	strb.w	r0, [r2, #-1]
200048be:	f240 862c 	bls.w	2000551a <_svfprintf_r+0x1b2e>
200048c2:	f10d 039a 	add.w	r3, sp, #154	; 0x9a
200048c6:	e001      	b.n	200048cc <_svfprintf_r+0xee0>
200048c8:	f812 0b01 	ldrb.w	r0, [r2], #1
200048cc:	4596      	cmp	lr, r2
200048ce:	f803 0b01 	strb.w	r0, [r3], #1
200048d2:	d1f9      	bne.n	200048c8 <_svfprintf_r+0xedc>
200048d4:	f10d 03a9 	add.w	r3, sp, #169	; 0xa9
200048d8:	f10d 029a 	add.w	r2, sp, #154	; 0x9a
200048dc:	1a5b      	subs	r3, r3, r1
200048de:	4413      	add	r3, r2
200048e0:	aa26      	add	r2, sp, #152	; 0x98
200048e2:	1a9b      	subs	r3, r3, r2
200048e4:	931b      	str	r3, [sp, #108]	; 0x6c
200048e6:	9b13      	ldr	r3, [sp, #76]	; 0x4c
200048e8:	9a1b      	ldr	r2, [sp, #108]	; 0x6c
200048ea:	2b01      	cmp	r3, #1
200048ec:	441a      	add	r2, r3
200048ee:	920c      	str	r2, [sp, #48]	; 0x30
200048f0:	f340 85cc 	ble.w	2000548c <_svfprintf_r+0x1aa0>
200048f4:	9b0c      	ldr	r3, [sp, #48]	; 0x30
200048f6:	9a17      	ldr	r2, [sp, #92]	; 0x5c
200048f8:	4413      	add	r3, r2
200048fa:	930c      	str	r3, [sp, #48]	; 0x30
200048fc:	2300      	movs	r3, #0
200048fe:	9312      	str	r3, [sp, #72]	; 0x48
20004900:	9316      	str	r3, [sp, #88]	; 0x58
20004902:	9310      	str	r3, [sp, #64]	; 0x40
20004904:	9b0c      	ldr	r3, [sp, #48]	; 0x30
20004906:	f425 6580 	bic.w	r5, r5, #1024	; 0x400
2000490a:	f445 7280 	orr.w	r2, r5, #256	; 0x100
2000490e:	ea23 73e3 	bic.w	r3, r3, r3, asr #31
20004912:	9207      	str	r2, [sp, #28]
20004914:	9308      	str	r3, [sp, #32]
20004916:	9b1e      	ldr	r3, [sp, #120]	; 0x78
20004918:	2b00      	cmp	r3, #0
2000491a:	f040 8317 	bne.w	20004f4c <_svfprintf_r+0x1560>
2000491e:	f89d 208b 	ldrb.w	r2, [sp, #139]	; 0x8b
20004922:	9309      	str	r3, [sp, #36]	; 0x24
20004924:	f7ff ba86 	b.w	20003e34 <_svfprintf_r+0x448>
20004928:	9a0e      	ldr	r2, [sp, #56]	; 0x38
2000492a:	2301      	movs	r3, #1
2000492c:	f852 4b04 	ldr.w	r4, [r2], #4
20004930:	2500      	movs	r5, #0
20004932:	920e      	str	r2, [sp, #56]	; 0x38
20004934:	f7ff b96b 	b.w	20003c0e <_svfprintf_r+0x222>
20004938:	9b0e      	ldr	r3, [sp, #56]	; 0x38
2000493a:	f853 4b04 	ldr.w	r4, [r3], #4
2000493e:	17e5      	asrs	r5, r4, #31
20004940:	930e      	str	r3, [sp, #56]	; 0x38
20004942:	4622      	mov	r2, r4
20004944:	462b      	mov	r3, r5
20004946:	f7ff b933 	b.w	20003bb0 <_svfprintf_r+0x1c4>
2000494a:	9b07      	ldr	r3, [sp, #28]
2000494c:	9308      	str	r3, [sp, #32]
2000494e:	f7ff bae0 	b.w	20003f12 <_svfprintf_r+0x526>
20004952:	4b8d      	ldr	r3, [pc, #564]	; (20004b88 <_svfprintf_r+0x119c>)
20004954:	9319      	str	r3, [sp, #100]	; 0x64
20004956:	9b07      	ldr	r3, [sp, #28]
20004958:	0699      	lsls	r1, r3, #26
2000495a:	f140 80fe 	bpl.w	20004b5a <_svfprintf_r+0x116e>
2000495e:	9b0e      	ldr	r3, [sp, #56]	; 0x38
20004960:	3307      	adds	r3, #7
20004962:	f023 0307 	bic.w	r3, r3, #7
20004966:	e8f3 4502 	ldrd	r4, r5, [r3], #8
2000496a:	930e      	str	r3, [sp, #56]	; 0x38
2000496c:	9a07      	ldr	r2, [sp, #28]
2000496e:	07d7      	lsls	r7, r2, #31
20004970:	d50a      	bpl.n	20004988 <_svfprintf_r+0xf9c>
20004972:	ea54 0305 	orrs.w	r3, r4, r5
20004976:	d007      	beq.n	20004988 <_svfprintf_r+0xf9c>
20004978:	2330      	movs	r3, #48	; 0x30
2000497a:	f042 0202 	orr.w	r2, r2, #2
2000497e:	f88d 608d 	strb.w	r6, [sp, #141]	; 0x8d
20004982:	9207      	str	r2, [sp, #28]
20004984:	f88d 308c 	strb.w	r3, [sp, #140]	; 0x8c
20004988:	9a07      	ldr	r2, [sp, #28]
2000498a:	2302      	movs	r3, #2
2000498c:	f422 6280 	bic.w	r2, r2, #1024	; 0x400
20004990:	9208      	str	r2, [sp, #32]
20004992:	f7ff b93c 	b.w	20003c0e <_svfprintf_r+0x222>
20004996:	4b7d      	ldr	r3, [pc, #500]	; (20004b8c <_svfprintf_r+0x11a0>)
20004998:	9319      	str	r3, [sp, #100]	; 0x64
2000499a:	e7dc      	b.n	20004956 <_svfprintf_r+0xf6a>
2000499c:	f043 0320 	orr.w	r3, r3, #32
200049a0:	f89b 6001 	ldrb.w	r6, [fp, #1]
200049a4:	9307      	str	r3, [sp, #28]
200049a6:	f10b 0b01 	add.w	fp, fp, #1
200049aa:	f7ff b86a 	b.w	20003a82 <_svfprintf_r+0x96>
200049ae:	f443 7300 	orr.w	r3, r3, #512	; 0x200
200049b2:	f89b 6001 	ldrb.w	r6, [fp, #1]
200049b6:	9307      	str	r3, [sp, #28]
200049b8:	f10b 0b01 	add.w	fp, fp, #1
200049bc:	f7ff b861 	b.w	20003a82 <_svfprintf_r+0x96>
200049c0:	4651      	mov	r1, sl
200049c2:	4648      	mov	r0, r9
200049c4:	aa2a      	add	r2, sp, #168	; 0xa8
200049c6:	f002 fb1f 	bl	20007008 <__ssprint_r>
200049ca:	2800      	cmp	r0, #0
200049cc:	f47f ac56 	bne.w	2000427c <_svfprintf_r+0x890>
200049d0:	9c2c      	ldr	r4, [sp, #176]	; 0xb0
200049d2:	f10d 08b4 	add.w	r8, sp, #180	; 0xb4
200049d6:	f7ff bbad 	b.w	20004134 <_svfprintf_r+0x748>
200049da:	2140      	movs	r1, #64	; 0x40
200049dc:	4648      	mov	r0, r9
200049de:	f7fe fc51 	bl	20003284 <_malloc_r>
200049e2:	f8cb 0000 	str.w	r0, [fp]
200049e6:	f8cb 0010 	str.w	r0, [fp, #16]
200049ea:	2800      	cmp	r0, #0
200049ec:	f000 858d 	beq.w	2000550a <_svfprintf_r+0x1b1e>
200049f0:	2340      	movs	r3, #64	; 0x40
200049f2:	f8cb 3014 	str.w	r3, [fp, #20]
200049f6:	f7ff b811 	b.w	20003a1c <_svfprintf_r+0x30>
200049fa:	9b09      	ldr	r3, [sp, #36]	; 0x24
200049fc:	463a      	mov	r2, r7
200049fe:	2b06      	cmp	r3, #6
20004a00:	bf28      	it	cs
20004a02:	2306      	movcs	r3, #6
20004a04:	9709      	str	r7, [sp, #36]	; 0x24
20004a06:	9712      	str	r7, [sp, #72]	; 0x48
20004a08:	9716      	str	r7, [sp, #88]	; 0x58
20004a0a:	9710      	str	r7, [sp, #64]	; 0x40
20004a0c:	970d      	str	r7, [sp, #52]	; 0x34
20004a0e:	9308      	str	r3, [sp, #32]
20004a10:	4f5f      	ldr	r7, [pc, #380]	; (20004b90 <_svfprintf_r+0x11a4>)
20004a12:	940e      	str	r4, [sp, #56]	; 0x38
20004a14:	930c      	str	r3, [sp, #48]	; 0x30
20004a16:	f7ff ba0d 	b.w	20003e34 <_svfprintf_r+0x448>
20004a1a:	2b10      	cmp	r3, #16
20004a1c:	f340 8558 	ble.w	200054d0 <_svfprintf_r+0x1ae4>
20004a20:	4651      	mov	r1, sl
20004a22:	4a5c      	ldr	r2, [pc, #368]	; (20004b94 <_svfprintf_r+0x11a8>)
20004a24:	46ca      	mov	sl, r9
20004a26:	9709      	str	r7, [sp, #36]	; 0x24
20004a28:	2610      	movs	r6, #16
20004a2a:	4617      	mov	r7, r2
20004a2c:	4689      	mov	r9, r1
20004a2e:	9b2b      	ldr	r3, [sp, #172]	; 0xac
20004a30:	920f      	str	r2, [sp, #60]	; 0x3c
20004a32:	e005      	b.n	20004a40 <_svfprintf_r+0x1054>
20004a34:	f108 0808 	add.w	r8, r8, #8
20004a38:	3d10      	subs	r5, #16
20004a3a:	2d10      	cmp	r5, #16
20004a3c:	f340 81fa 	ble.w	20004e34 <_svfprintf_r+0x1448>
20004a40:	3301      	adds	r3, #1
20004a42:	3410      	adds	r4, #16
20004a44:	2b07      	cmp	r3, #7
20004a46:	e9cd 342b 	strd	r3, r4, [sp, #172]	; 0xac
20004a4a:	e9c8 7600 	strd	r7, r6, [r8]
20004a4e:	ddf1      	ble.n	20004a34 <_svfprintf_r+0x1048>
20004a50:	4649      	mov	r1, r9
20004a52:	4650      	mov	r0, sl
20004a54:	aa2a      	add	r2, sp, #168	; 0xa8
20004a56:	f002 fad7 	bl	20007008 <__ssprint_r>
20004a5a:	2800      	cmp	r0, #0
20004a5c:	f040 83fd 	bne.w	2000525a <_svfprintf_r+0x186e>
20004a60:	e9dd 342b 	ldrd	r3, r4, [sp, #172]	; 0xac
20004a64:	f10d 08b4 	add.w	r8, sp, #180	; 0xb4
20004a68:	e7e6      	b.n	20004a38 <_svfprintf_r+0x104c>
20004a6a:	9b13      	ldr	r3, [sp, #76]	; 0x4c
20004a6c:	4642      	mov	r2, r8
20004a6e:	f8dd 8058 	ldr.w	r8, [sp, #88]	; 0x58
20004a72:	18fb      	adds	r3, r7, r3
20004a74:	9309      	str	r3, [sp, #36]	; 0x24
20004a76:	f8cd b030 	str.w	fp, [sp, #48]	; 0x30
20004a7a:	970f      	str	r7, [sp, #60]	; 0x3c
20004a7c:	4620      	mov	r0, r4
20004a7e:	f8dd b074 	ldr.w	fp, [sp, #116]	; 0x74
20004a82:	9f1a      	ldr	r7, [sp, #104]	; 0x68
20004a84:	9b12      	ldr	r3, [sp, #72]	; 0x48
20004a86:	f1b8 0f00 	cmp.w	r8, #0
20004a8a:	d02d      	beq.n	20004ae8 <_svfprintf_r+0x10fc>
20004a8c:	bb7b      	cbnz	r3, 20004aee <_svfprintf_r+0x1102>
20004a8e:	3f01      	subs	r7, #1
20004a90:	f108 38ff 	add.w	r8, r8, #4294967295
20004a94:	9b2b      	ldr	r3, [sp, #172]	; 0xac
20004a96:	991c      	ldr	r1, [sp, #112]	; 0x70
20004a98:	3301      	adds	r3, #1
20004a9a:	4458      	add	r0, fp
20004a9c:	2b07      	cmp	r3, #7
20004a9e:	e9c2 1b00 	strd	r1, fp, [r2]
20004aa2:	902c      	str	r0, [sp, #176]	; 0xb0
20004aa4:	932b      	str	r3, [sp, #172]	; 0xac
20004aa6:	dc62      	bgt.n	20004b6e <_svfprintf_r+0x1182>
20004aa8:	3208      	adds	r2, #8
20004aaa:	9909      	ldr	r1, [sp, #36]	; 0x24
20004aac:	783b      	ldrb	r3, [r7, #0]
20004aae:	1b8d      	subs	r5, r1, r6
20004ab0:	429d      	cmp	r5, r3
20004ab2:	bfa8      	it	ge
20004ab4:	461d      	movge	r5, r3
20004ab6:	2d00      	cmp	r5, #0
20004ab8:	dd0b      	ble.n	20004ad2 <_svfprintf_r+0x10e6>
20004aba:	9b2b      	ldr	r3, [sp, #172]	; 0xac
20004abc:	4428      	add	r0, r5
20004abe:	3301      	adds	r3, #1
20004ac0:	2b07      	cmp	r3, #7
20004ac2:	e9c2 6500 	strd	r6, r5, [r2]
20004ac6:	902c      	str	r0, [sp, #176]	; 0xb0
20004ac8:	932b      	str	r3, [sp, #172]	; 0xac
20004aca:	f300 8111 	bgt.w	20004cf0 <_svfprintf_r+0x1304>
20004ace:	783b      	ldrb	r3, [r7, #0]
20004ad0:	3208      	adds	r2, #8
20004ad2:	2d00      	cmp	r5, #0
20004ad4:	bfb4      	ite	lt
20004ad6:	461d      	movlt	r5, r3
20004ad8:	1b5d      	subge	r5, r3, r5
20004ada:	2d00      	cmp	r5, #0
20004adc:	dc0b      	bgt.n	20004af6 <_svfprintf_r+0x110a>
20004ade:	441e      	add	r6, r3
20004ae0:	9b12      	ldr	r3, [sp, #72]	; 0x48
20004ae2:	f1b8 0f00 	cmp.w	r8, #0
20004ae6:	d1d1      	bne.n	20004a8c <_svfprintf_r+0x10a0>
20004ae8:	2b00      	cmp	r3, #0
20004aea:	f000 81f9 	beq.w	20004ee0 <_svfprintf_r+0x14f4>
20004aee:	9b12      	ldr	r3, [sp, #72]	; 0x48
20004af0:	3b01      	subs	r3, #1
20004af2:	9312      	str	r3, [sp, #72]	; 0x48
20004af4:	e7ce      	b.n	20004a94 <_svfprintf_r+0x10a8>
20004af6:	2d10      	cmp	r5, #16
20004af8:	f340 84c5 	ble.w	20005486 <_svfprintf_r+0x1a9a>
20004afc:	992b      	ldr	r1, [sp, #172]	; 0xac
20004afe:	2410      	movs	r4, #16
20004b00:	460b      	mov	r3, r1
20004b02:	e004      	b.n	20004b0e <_svfprintf_r+0x1122>
20004b04:	3d10      	subs	r5, #16
20004b06:	2d10      	cmp	r5, #16
20004b08:	f102 0208 	add.w	r2, r2, #8
20004b0c:	dd16      	ble.n	20004b3c <_svfprintf_r+0x1150>
20004b0e:	3301      	adds	r3, #1
20004b10:	4920      	ldr	r1, [pc, #128]	; (20004b94 <_svfprintf_r+0x11a8>)
20004b12:	3010      	adds	r0, #16
20004b14:	2b07      	cmp	r3, #7
20004b16:	e9cd 302b 	strd	r3, r0, [sp, #172]	; 0xac
20004b1a:	e9c2 1400 	strd	r1, r4, [r2]
20004b1e:	ddf1      	ble.n	20004b04 <_svfprintf_r+0x1118>
20004b20:	4651      	mov	r1, sl
20004b22:	4648      	mov	r0, r9
20004b24:	aa2a      	add	r2, sp, #168	; 0xa8
20004b26:	f002 fa6f 	bl	20007008 <__ssprint_r>
20004b2a:	2800      	cmp	r0, #0
20004b2c:	f47f aba6 	bne.w	2000427c <_svfprintf_r+0x890>
20004b30:	e9dd 302b 	ldrd	r3, r0, [sp, #172]	; 0xac
20004b34:	3d10      	subs	r5, #16
20004b36:	2d10      	cmp	r5, #16
20004b38:	aa2d      	add	r2, sp, #180	; 0xb4
20004b3a:	dce8      	bgt.n	20004b0e <_svfprintf_r+0x1122>
20004b3c:	4619      	mov	r1, r3
20004b3e:	1c4b      	adds	r3, r1, #1
20004b40:	4914      	ldr	r1, [pc, #80]	; (20004b94 <_svfprintf_r+0x11a8>)
20004b42:	4428      	add	r0, r5
20004b44:	2b07      	cmp	r3, #7
20004b46:	e9cd 302b 	strd	r3, r0, [sp, #172]	; 0xac
20004b4a:	e9c2 1500 	strd	r1, r5, [r2]
20004b4e:	f300 8215 	bgt.w	20004f7c <_svfprintf_r+0x1590>
20004b52:	783b      	ldrb	r3, [r7, #0]
20004b54:	3208      	adds	r2, #8
20004b56:	441e      	add	r6, r3
20004b58:	e7c2      	b.n	20004ae0 <_svfprintf_r+0x10f4>
20004b5a:	9b07      	ldr	r3, [sp, #28]
20004b5c:	06da      	lsls	r2, r3, #27
20004b5e:	f140 8084 	bpl.w	20004c6a <_svfprintf_r+0x127e>
20004b62:	9b0e      	ldr	r3, [sp, #56]	; 0x38
20004b64:	2500      	movs	r5, #0
20004b66:	f853 4b04 	ldr.w	r4, [r3], #4
20004b6a:	930e      	str	r3, [sp, #56]	; 0x38
20004b6c:	e6fe      	b.n	2000496c <_svfprintf_r+0xf80>
20004b6e:	4651      	mov	r1, sl
20004b70:	4648      	mov	r0, r9
20004b72:	aa2a      	add	r2, sp, #168	; 0xa8
20004b74:	f002 fa48 	bl	20007008 <__ssprint_r>
20004b78:	2800      	cmp	r0, #0
20004b7a:	f47f ab7f 	bne.w	2000427c <_svfprintf_r+0x890>
20004b7e:	982c      	ldr	r0, [sp, #176]	; 0xb0
20004b80:	aa2d      	add	r2, sp, #180	; 0xb4
20004b82:	e792      	b.n	20004aaa <_svfprintf_r+0x10be>
20004b84:	66666667 	.word	0x66666667
20004b88:	200086bc 	.word	0x200086bc
20004b8c:	200086d0 	.word	0x200086d0
20004b90:	200086e4 	.word	0x200086e4
20004b94:	20008700 	.word	0x20008700
20004b98:	2200      	movs	r2, #0
20004b9a:	9b08      	ldr	r3, [sp, #32]
20004b9c:	f8cd b01c 	str.w	fp, [sp, #28]
20004ba0:	f403 6380 	and.w	r3, r3, #1024	; 0x400
20004ba4:	960c      	str	r6, [sp, #48]	; 0x30
20004ba6:	f8cd a034 	str.w	sl, [sp, #52]	; 0x34
20004baa:	4693      	mov	fp, r2
20004bac:	46ca      	mov	sl, r9
20004bae:	461e      	mov	r6, r3
20004bb0:	46c1      	mov	r9, r8
20004bb2:	af56      	add	r7, sp, #344	; 0x158
20004bb4:	f8dd 8068 	ldr.w	r8, [sp, #104]	; 0x68
20004bb8:	e00b      	b.n	20004bd2 <_svfprintf_r+0x11e6>
20004bba:	220a      	movs	r2, #10
20004bbc:	2300      	movs	r3, #0
20004bbe:	4620      	mov	r0, r4
20004bc0:	4629      	mov	r1, r5
20004bc2:	f003 fa25 	bl	20008010 <__aeabi_uldivmod>
20004bc6:	2d00      	cmp	r5, #0
20004bc8:	bf08      	it	eq
20004bca:	2c0a      	cmpeq	r4, #10
20004bcc:	d31b      	bcc.n	20004c06 <_svfprintf_r+0x121a>
20004bce:	4604      	mov	r4, r0
20004bd0:	460d      	mov	r5, r1
20004bd2:	220a      	movs	r2, #10
20004bd4:	2300      	movs	r3, #0
20004bd6:	4620      	mov	r0, r4
20004bd8:	4629      	mov	r1, r5
20004bda:	f003 fa19 	bl	20008010 <__aeabi_uldivmod>
20004bde:	3230      	adds	r2, #48	; 0x30
20004be0:	f807 2c01 	strb.w	r2, [r7, #-1]
20004be4:	f10b 0b01 	add.w	fp, fp, #1
20004be8:	3f01      	subs	r7, #1
20004bea:	2e00      	cmp	r6, #0
20004bec:	d0e5      	beq.n	20004bba <_svfprintf_r+0x11ce>
20004bee:	f898 3000 	ldrb.w	r3, [r8]
20004bf2:	459b      	cmp	fp, r3
20004bf4:	d1e1      	bne.n	20004bba <_svfprintf_r+0x11ce>
20004bf6:	f1bb 0fff 	cmp.w	fp, #255	; 0xff
20004bfa:	d0de      	beq.n	20004bba <_svfprintf_r+0x11ce>
20004bfc:	2d00      	cmp	r5, #0
20004bfe:	bf08      	it	eq
20004c00:	2c0a      	cmpeq	r4, #10
20004c02:	f080 8128 	bcs.w	20004e56 <_svfprintf_r+0x146a>
20004c06:	f8cd 8068 	str.w	r8, [sp, #104]	; 0x68
20004c0a:	f8cd b04c 	str.w	fp, [sp, #76]	; 0x4c
20004c0e:	46c8      	mov	r8, r9
20004c10:	9e0c      	ldr	r6, [sp, #48]	; 0x30
20004c12:	46d1      	mov	r9, sl
20004c14:	f8dd b01c 	ldr.w	fp, [sp, #28]
20004c18:	f8dd a034 	ldr.w	sl, [sp, #52]	; 0x34
20004c1c:	f7ff bb9f 	b.w	2000435e <_svfprintf_r+0x972>
20004c20:	4651      	mov	r1, sl
20004c22:	4648      	mov	r0, r9
20004c24:	aa2a      	add	r2, sp, #168	; 0xa8
20004c26:	931e      	str	r3, [sp, #120]	; 0x78
20004c28:	f002 f9ee 	bl	20007008 <__ssprint_r>
20004c2c:	2800      	cmp	r0, #0
20004c2e:	f47f ab25 	bne.w	2000427c <_svfprintf_r+0x890>
20004c32:	f89d 208b 	ldrb.w	r2, [sp, #139]	; 0x8b
20004c36:	9c2c      	ldr	r4, [sp, #176]	; 0xb0
20004c38:	9b1e      	ldr	r3, [sp, #120]	; 0x78
20004c3a:	f10d 08b4 	add.w	r8, sp, #180	; 0xb4
20004c3e:	f7ff b84a 	b.w	20003cd6 <_svfprintf_r+0x2ea>
20004c42:	2001      	movs	r0, #1
20004c44:	9b2b      	ldr	r3, [sp, #172]	; 0xac
20004c46:	49c5      	ldr	r1, [pc, #788]	; (20004f5c <_svfprintf_r+0x1570>)
20004c48:	4403      	add	r3, r0
20004c4a:	4404      	add	r4, r0
20004c4c:	2b07      	cmp	r3, #7
20004c4e:	e9cd 342b 	strd	r3, r4, [sp, #172]	; 0xac
20004c52:	e9c8 1000 	strd	r1, r0, [r8]
20004c56:	f73f abdf 	bgt.w	20004418 <_svfprintf_r+0xa2c>
20004c5a:	f108 0808 	add.w	r8, r8, #8
20004c5e:	f7ff bbe7 	b.w	20004430 <_svfprintf_r+0xa44>
20004c62:	46d1      	mov	r9, sl
20004c64:	46b3      	mov	fp, r6
20004c66:	f7ff bb0a 	b.w	2000427e <_svfprintf_r+0x892>
20004c6a:	9b07      	ldr	r3, [sp, #28]
20004c6c:	065b      	lsls	r3, r3, #25
20004c6e:	f140 80cb 	bpl.w	20004e08 <_svfprintf_r+0x141c>
20004c72:	9b0e      	ldr	r3, [sp, #56]	; 0x38
20004c74:	2500      	movs	r5, #0
20004c76:	f853 4b04 	ldr.w	r4, [r3], #4
20004c7a:	930e      	str	r3, [sp, #56]	; 0x38
20004c7c:	b2a4      	uxth	r4, r4
20004c7e:	e675      	b.n	2000496c <_svfprintf_r+0xf80>
20004c80:	4651      	mov	r1, sl
20004c82:	4648      	mov	r0, r9
20004c84:	aa2a      	add	r2, sp, #168	; 0xa8
20004c86:	f002 f9bf 	bl	20007008 <__ssprint_r>
20004c8a:	2800      	cmp	r0, #0
20004c8c:	f47f aaf6 	bne.w	2000427c <_svfprintf_r+0x890>
20004c90:	9c2c      	ldr	r4, [sp, #176]	; 0xb0
20004c92:	f10d 08b4 	add.w	r8, sp, #180	; 0xb4
20004c96:	f7ff ba3a 	b.w	2000410e <_svfprintf_r+0x722>
20004c9a:	46d1      	mov	r9, sl
20004c9c:	46da      	mov	sl, fp
20004c9e:	f8dd b024 	ldr.w	fp, [sp, #36]	; 0x24
20004ca2:	3501      	adds	r5, #1
20004ca4:	9b0f      	ldr	r3, [sp, #60]	; 0x3c
20004ca6:	4434      	add	r4, r6
20004ca8:	2d07      	cmp	r5, #7
20004caa:	e9cd 542b 	strd	r5, r4, [sp, #172]	; 0xac
20004cae:	e9c8 3600 	strd	r3, r6, [r8]
20004cb2:	f77f ab24 	ble.w	200042fe <_svfprintf_r+0x912>
20004cb6:	4651      	mov	r1, sl
20004cb8:	4648      	mov	r0, r9
20004cba:	aa2a      	add	r2, sp, #168	; 0xa8
20004cbc:	f002 f9a4 	bl	20007008 <__ssprint_r>
20004cc0:	2800      	cmp	r0, #0
20004cc2:	f47f aadb 	bne.w	2000427c <_svfprintf_r+0x890>
20004cc6:	e9dd 542b 	ldrd	r5, r4, [sp, #172]	; 0xac
20004cca:	f10d 08b4 	add.w	r8, sp, #180	; 0xb4
20004cce:	f7ff bb18 	b.w	20004302 <_svfprintf_r+0x916>
20004cd2:	4aa3      	ldr	r2, [pc, #652]	; (20004f60 <_svfprintf_r+0x1574>)
20004cd4:	9b2b      	ldr	r3, [sp, #172]	; 0xac
20004cd6:	920f      	str	r2, [sp, #60]	; 0x3c
20004cd8:	3301      	adds	r3, #1
20004cda:	9a0f      	ldr	r2, [sp, #60]	; 0x3c
20004cdc:	442c      	add	r4, r5
20004cde:	2b07      	cmp	r3, #7
20004ce0:	e9cd 342b 	strd	r3, r4, [sp, #172]	; 0xac
20004ce4:	e9c8 2500 	strd	r2, r5, [r8]
20004ce8:	f77f a82d 	ble.w	20003d46 <_svfprintf_r+0x35a>
20004cec:	f7ff bbc2 	b.w	20004474 <_svfprintf_r+0xa88>
20004cf0:	4651      	mov	r1, sl
20004cf2:	4648      	mov	r0, r9
20004cf4:	aa2a      	add	r2, sp, #168	; 0xa8
20004cf6:	f002 f987 	bl	20007008 <__ssprint_r>
20004cfa:	2800      	cmp	r0, #0
20004cfc:	f47f aabe 	bne.w	2000427c <_svfprintf_r+0x890>
20004d00:	783b      	ldrb	r3, [r7, #0]
20004d02:	982c      	ldr	r0, [sp, #176]	; 0xb0
20004d04:	aa2d      	add	r2, sp, #180	; 0xb4
20004d06:	e6e4      	b.n	20004ad2 <_svfprintf_r+0x10e6>
20004d08:	4651      	mov	r1, sl
20004d0a:	4648      	mov	r0, r9
20004d0c:	aa2a      	add	r2, sp, #168	; 0xa8
20004d0e:	f002 f97b 	bl	20007008 <__ssprint_r>
20004d12:	2800      	cmp	r0, #0
20004d14:	f47f aab2 	bne.w	2000427c <_svfprintf_r+0x890>
20004d18:	9c2c      	ldr	r4, [sp, #176]	; 0xb0
20004d1a:	f10d 08b4 	add.w	r8, sp, #180	; 0xb4
20004d1e:	f7fe bffd 	b.w	20003d1c <_svfprintf_r+0x330>
20004d22:	9b0e      	ldr	r3, [sp, #56]	; 0x38
20004d24:	990a      	ldr	r1, [sp, #40]	; 0x28
20004d26:	f853 2b04 	ldr.w	r2, [r3], #4
20004d2a:	465f      	mov	r7, fp
20004d2c:	6011      	str	r1, [r2, #0]
20004d2e:	930e      	str	r3, [sp, #56]	; 0x38
20004d30:	f7ff b82a 	b.w	20003d88 <_svfprintf_r+0x39c>
20004d34:	9b2b      	ldr	r3, [sp, #172]	; 0xac
20004d36:	9917      	ldr	r1, [sp, #92]	; 0x5c
20004d38:	3301      	adds	r3, #1
20004d3a:	9818      	ldr	r0, [sp, #96]	; 0x60
20004d3c:	440c      	add	r4, r1
20004d3e:	2b07      	cmp	r3, #7
20004d40:	e9c8 0100 	strd	r0, r1, [r8]
20004d44:	942c      	str	r4, [sp, #176]	; 0xb0
20004d46:	932b      	str	r3, [sp, #172]	; 0xac
20004d48:	f300 80ac 	bgt.w	20004ea4 <_svfprintf_r+0x14b8>
20004d4c:	f108 0808 	add.w	r8, r8, #8
20004d50:	2a00      	cmp	r2, #0
20004d52:	f6bf ab85 	bge.w	20004460 <_svfprintf_r+0xa74>
20004d56:	4255      	negs	r5, r2
20004d58:	3210      	adds	r2, #16
20004d5a:	f280 83d3 	bge.w	20005504 <_svfprintf_r+0x1b18>
20004d5e:	4651      	mov	r1, sl
20004d60:	4a7f      	ldr	r2, [pc, #508]	; (20004f60 <_svfprintf_r+0x1574>)
20004d62:	46ca      	mov	sl, r9
20004d64:	9709      	str	r7, [sp, #36]	; 0x24
20004d66:	2610      	movs	r6, #16
20004d68:	4617      	mov	r7, r2
20004d6a:	4689      	mov	r9, r1
20004d6c:	920f      	str	r2, [sp, #60]	; 0x3c
20004d6e:	e005      	b.n	20004d7c <_svfprintf_r+0x1390>
20004d70:	f108 0808 	add.w	r8, r8, #8
20004d74:	3d10      	subs	r5, #16
20004d76:	2d10      	cmp	r5, #16
20004d78:	f340 82aa 	ble.w	200052d0 <_svfprintf_r+0x18e4>
20004d7c:	3301      	adds	r3, #1
20004d7e:	3410      	adds	r4, #16
20004d80:	2b07      	cmp	r3, #7
20004d82:	e9cd 342b 	strd	r3, r4, [sp, #172]	; 0xac
20004d86:	e9c8 7600 	strd	r7, r6, [r8]
20004d8a:	ddf1      	ble.n	20004d70 <_svfprintf_r+0x1384>
20004d8c:	4649      	mov	r1, r9
20004d8e:	4650      	mov	r0, sl
20004d90:	aa2a      	add	r2, sp, #168	; 0xa8
20004d92:	f002 f939 	bl	20007008 <__ssprint_r>
20004d96:	2800      	cmp	r0, #0
20004d98:	f040 825f 	bne.w	2000525a <_svfprintf_r+0x186e>
20004d9c:	e9dd 342b 	ldrd	r3, r4, [sp, #172]	; 0xac
20004da0:	f10d 08b4 	add.w	r8, sp, #180	; 0xb4
20004da4:	e7e6      	b.n	20004d74 <_svfprintf_r+0x1388>
20004da6:	4638      	mov	r0, r7
20004da8:	f002 f8cc 	bl	20006f44 <strlen>
20004dac:	462b      	mov	r3, r5
20004dae:	4602      	mov	r2, r0
20004db0:	9509      	str	r5, [sp, #36]	; 0x24
20004db2:	f7ff b894 	b.w	20003ede <_svfprintf_r+0x4f2>
20004db6:	9b07      	ldr	r3, [sp, #28]
20004db8:	2500      	movs	r5, #0
20004dba:	f413 7f00 	tst.w	r3, #512	; 0x200
20004dbe:	9b0e      	ldr	r3, [sp, #56]	; 0x38
20004dc0:	f853 4b04 	ldr.w	r4, [r3], #4
20004dc4:	930e      	str	r3, [sp, #56]	; 0x38
20004dc6:	bf18      	it	ne
20004dc8:	b2e4      	uxtbne	r4, r4
20004dca:	f7fe bf1b 	b.w	20003c04 <_svfprintf_r+0x218>
20004dce:	9a0e      	ldr	r2, [sp, #56]	; 0x38
20004dd0:	9b08      	ldr	r3, [sp, #32]
20004dd2:	f852 4b04 	ldr.w	r4, [r2], #4
20004dd6:	f413 7f00 	tst.w	r3, #512	; 0x200
20004dda:	f04f 0500 	mov.w	r5, #0
20004dde:	f04f 0301 	mov.w	r3, #1
20004de2:	920e      	str	r2, [sp, #56]	; 0x38
20004de4:	bf18      	it	ne
20004de6:	b2e4      	uxtbne	r4, r4
20004de8:	f7fe bf11 	b.w	20003c0e <_svfprintf_r+0x222>
20004dec:	9b07      	ldr	r3, [sp, #28]
20004dee:	f413 7f00 	tst.w	r3, #512	; 0x200
20004df2:	9b0e      	ldr	r3, [sp, #56]	; 0x38
20004df4:	f853 4b04 	ldr.w	r4, [r3], #4
20004df8:	bf18      	it	ne
20004dfa:	b264      	sxtbne	r4, r4
20004dfc:	17e5      	asrs	r5, r4, #31
20004dfe:	930e      	str	r3, [sp, #56]	; 0x38
20004e00:	4622      	mov	r2, r4
20004e02:	462b      	mov	r3, r5
20004e04:	f7fe bed4 	b.w	20003bb0 <_svfprintf_r+0x1c4>
20004e08:	9b07      	ldr	r3, [sp, #28]
20004e0a:	2500      	movs	r5, #0
20004e0c:	f413 7f00 	tst.w	r3, #512	; 0x200
20004e10:	9b0e      	ldr	r3, [sp, #56]	; 0x38
20004e12:	f853 4b04 	ldr.w	r4, [r3], #4
20004e16:	930e      	str	r3, [sp, #56]	; 0x38
20004e18:	bf18      	it	ne
20004e1a:	b2e4      	uxtbne	r4, r4
20004e1c:	e5a6      	b.n	2000496c <_svfprintf_r+0xf80>
20004e1e:	4b50      	ldr	r3, [pc, #320]	; (20004f60 <_svfprintf_r+0x1574>)
20004e20:	9a2b      	ldr	r2, [sp, #172]	; 0xac
20004e22:	930f      	str	r3, [sp, #60]	; 0x3c
20004e24:	f7ff ba15 	b.w	20004252 <_svfprintf_r+0x866>
20004e28:	232d      	movs	r3, #45	; 0x2d
20004e2a:	461a      	mov	r2, r3
20004e2c:	f88d 308b 	strb.w	r3, [sp, #139]	; 0x8b
20004e30:	f7fe bfee 	b.w	20003e10 <_svfprintf_r+0x424>
20004e34:	464a      	mov	r2, r9
20004e36:	46d1      	mov	r9, sl
20004e38:	4692      	mov	sl, r2
20004e3a:	9f09      	ldr	r7, [sp, #36]	; 0x24
20004e3c:	3301      	adds	r3, #1
20004e3e:	9a0f      	ldr	r2, [sp, #60]	; 0x3c
20004e40:	442c      	add	r4, r5
20004e42:	2b07      	cmp	r3, #7
20004e44:	e9cd 342b 	strd	r3, r4, [sp, #172]	; 0xac
20004e48:	e9c8 2500 	strd	r2, r5, [r8]
20004e4c:	dc3b      	bgt.n	20004ec6 <_svfprintf_r+0x14da>
20004e4e:	f108 0808 	add.w	r8, r8, #8
20004e52:	f7ff bb8c 	b.w	2000456e <_svfprintf_r+0xb82>
20004e56:	9b1d      	ldr	r3, [sp, #116]	; 0x74
20004e58:	991c      	ldr	r1, [sp, #112]	; 0x70
20004e5a:	1aff      	subs	r7, r7, r3
20004e5c:	461a      	mov	r2, r3
20004e5e:	4638      	mov	r0, r7
20004e60:	f002 f89e 	bl	20006fa0 <strncpy>
20004e64:	f898 3001 	ldrb.w	r3, [r8, #1]
20004e68:	b10b      	cbz	r3, 20004e6e <_svfprintf_r+0x1482>
20004e6a:	f108 0801 	add.w	r8, r8, #1
20004e6e:	220a      	movs	r2, #10
20004e70:	2300      	movs	r3, #0
20004e72:	4620      	mov	r0, r4
20004e74:	4629      	mov	r1, r5
20004e76:	f003 f8cb 	bl	20008010 <__aeabi_uldivmod>
20004e7a:	f04f 0b00 	mov.w	fp, #0
20004e7e:	e6a6      	b.n	20004bce <_svfprintf_r+0x11e2>
20004e80:	9a13      	ldr	r2, [sp, #76]	; 0x4c
20004e82:	18bd      	adds	r5, r7, r2
20004e84:	1bad      	subs	r5, r5, r6
20004e86:	1ad3      	subs	r3, r2, r3
20004e88:	429d      	cmp	r5, r3
20004e8a:	bfa8      	it	ge
20004e8c:	461d      	movge	r5, r3
20004e8e:	f7ff bba0 	b.w	200045d2 <_svfprintf_r+0xbe6>
20004e92:	9b0e      	ldr	r3, [sp, #56]	; 0x38
20004e94:	990a      	ldr	r1, [sp, #40]	; 0x28
20004e96:	f853 2b04 	ldr.w	r2, [r3], #4
20004e9a:	465f      	mov	r7, fp
20004e9c:	8011      	strh	r1, [r2, #0]
20004e9e:	930e      	str	r3, [sp, #56]	; 0x38
20004ea0:	f7fe bf72 	b.w	20003d88 <_svfprintf_r+0x39c>
20004ea4:	4651      	mov	r1, sl
20004ea6:	4648      	mov	r0, r9
20004ea8:	aa2a      	add	r2, sp, #168	; 0xa8
20004eaa:	f002 f8ad 	bl	20007008 <__ssprint_r>
20004eae:	2800      	cmp	r0, #0
20004eb0:	f47f a9e4 	bne.w	2000427c <_svfprintf_r+0x890>
20004eb4:	e9dd 342b 	ldrd	r3, r4, [sp, #172]	; 0xac
20004eb8:	9a24      	ldr	r2, [sp, #144]	; 0x90
20004eba:	f10d 08b4 	add.w	r8, sp, #180	; 0xb4
20004ebe:	e747      	b.n	20004d50 <_svfprintf_r+0x1364>
20004ec0:	2306      	movs	r3, #6
20004ec2:	9309      	str	r3, [sp, #36]	; 0x24
20004ec4:	e482      	b.n	200047cc <_svfprintf_r+0xde0>
20004ec6:	4651      	mov	r1, sl
20004ec8:	4648      	mov	r0, r9
20004eca:	aa2a      	add	r2, sp, #168	; 0xa8
20004ecc:	f002 f89c 	bl	20007008 <__ssprint_r>
20004ed0:	2800      	cmp	r0, #0
20004ed2:	f47f a9d3 	bne.w	2000427c <_svfprintf_r+0x890>
20004ed6:	9c2c      	ldr	r4, [sp, #176]	; 0xb0
20004ed8:	f10d 08b4 	add.w	r8, sp, #180	; 0xb4
20004edc:	f7ff bb47 	b.w	2000456e <_svfprintf_r+0xb82>
20004ee0:	9b13      	ldr	r3, [sp, #76]	; 0x4c
20004ee2:	971a      	str	r7, [sp, #104]	; 0x68
20004ee4:	9f0f      	ldr	r7, [sp, #60]	; 0x3c
20004ee6:	4690      	mov	r8, r2
20004ee8:	18fb      	adds	r3, r7, r3
20004eea:	429e      	cmp	r6, r3
20004eec:	4632      	mov	r2, r6
20004eee:	bf28      	it	cs
20004ef0:	461a      	movcs	r2, r3
20004ef2:	4604      	mov	r4, r0
20004ef4:	4616      	mov	r6, r2
20004ef6:	f8dd b030 	ldr.w	fp, [sp, #48]	; 0x30
20004efa:	f7ff bb3f 	b.w	2000457c <_svfprintf_r+0xb90>
20004efe:	9b24      	ldr	r3, [sp, #144]	; 0x90
20004f00:	1cd8      	adds	r0, r3, #3
20004f02:	9310      	str	r3, [sp, #64]	; 0x40
20004f04:	db02      	blt.n	20004f0c <_svfprintf_r+0x1520>
20004f06:	9a09      	ldr	r2, [sp, #36]	; 0x24
20004f08:	4293      	cmp	r3, r2
20004f0a:	dd04      	ble.n	20004f16 <_svfprintf_r+0x152a>
20004f0c:	3e02      	subs	r6, #2
20004f0e:	f026 0320 	bic.w	r3, r6, #32
20004f12:	9308      	str	r3, [sp, #32]
20004f14:	e49b      	b.n	2000484e <_svfprintf_r+0xe62>
20004f16:	9b10      	ldr	r3, [sp, #64]	; 0x40
20004f18:	9913      	ldr	r1, [sp, #76]	; 0x4c
20004f1a:	428b      	cmp	r3, r1
20004f1c:	f2c0 817a 	blt.w	20005214 <_svfprintf_r+0x1828>
20004f20:	07ea      	lsls	r2, r5, #31
20004f22:	f140 8283 	bpl.w	2000542c <_svfprintf_r+0x1a40>
20004f26:	9a17      	ldr	r2, [sp, #92]	; 0x5c
20004f28:	4413      	add	r3, r2
20004f2a:	930c      	str	r3, [sp, #48]	; 0x30
20004f2c:	056e      	lsls	r6, r5, #21
20004f2e:	f140 8277 	bpl.w	20005420 <_svfprintf_r+0x1a34>
20004f32:	9b10      	ldr	r3, [sp, #64]	; 0x40
20004f34:	2b00      	cmp	r3, #0
20004f36:	f300 8210 	bgt.w	2000535a <_svfprintf_r+0x196e>
20004f3a:	2667      	movs	r6, #103	; 0x67
20004f3c:	9b0c      	ldr	r3, [sp, #48]	; 0x30
20004f3e:	ea23 73e3 	bic.w	r3, r3, r3, asr #31
20004f42:	9308      	str	r3, [sp, #32]
20004f44:	2300      	movs	r3, #0
20004f46:	9312      	str	r3, [sp, #72]	; 0x48
20004f48:	9316      	str	r3, [sp, #88]	; 0x58
20004f4a:	e4e4      	b.n	20004916 <_svfprintf_r+0xf2a>
20004f4c:	222d      	movs	r2, #45	; 0x2d
20004f4e:	2300      	movs	r3, #0
20004f50:	f88d 208b 	strb.w	r2, [sp, #139]	; 0x8b
20004f54:	9309      	str	r3, [sp, #36]	; 0x24
20004f56:	f7fe bf70 	b.w	20003e3a <_svfprintf_r+0x44e>
20004f5a:	bf00      	nop
20004f5c:	200086ec 	.word	0x200086ec
20004f60:	20008700 	.word	0x20008700
20004f64:	9b28      	ldr	r3, [sp, #160]	; 0xa0
20004f66:	42a3      	cmp	r3, r4
20004f68:	f4bf ac65 	bcs.w	20004836 <_svfprintf_r+0xe4a>
20004f6c:	2130      	movs	r1, #48	; 0x30
20004f6e:	1c5a      	adds	r2, r3, #1
20004f70:	9228      	str	r2, [sp, #160]	; 0xa0
20004f72:	7019      	strb	r1, [r3, #0]
20004f74:	9b28      	ldr	r3, [sp, #160]	; 0xa0
20004f76:	429c      	cmp	r4, r3
20004f78:	d8f9      	bhi.n	20004f6e <_svfprintf_r+0x1582>
20004f7a:	e45c      	b.n	20004836 <_svfprintf_r+0xe4a>
20004f7c:	4651      	mov	r1, sl
20004f7e:	4648      	mov	r0, r9
20004f80:	aa2a      	add	r2, sp, #168	; 0xa8
20004f82:	f002 f841 	bl	20007008 <__ssprint_r>
20004f86:	2800      	cmp	r0, #0
20004f88:	f47f a978 	bne.w	2000427c <_svfprintf_r+0x890>
20004f8c:	783b      	ldrb	r3, [r7, #0]
20004f8e:	982c      	ldr	r0, [sp, #176]	; 0xb0
20004f90:	aa2d      	add	r2, sp, #180	; 0xb4
20004f92:	441e      	add	r6, r3
20004f94:	e5a4      	b.n	20004ae0 <_svfprintf_r+0x10f4>
20004f96:	4651      	mov	r1, sl
20004f98:	4648      	mov	r0, r9
20004f9a:	aa2a      	add	r2, sp, #168	; 0xa8
20004f9c:	f002 f834 	bl	20007008 <__ssprint_r>
20004fa0:	2800      	cmp	r0, #0
20004fa2:	f47f a96b 	bne.w	2000427c <_svfprintf_r+0x890>
20004fa6:	9c2c      	ldr	r4, [sp, #176]	; 0xb0
20004fa8:	f10d 08b4 	add.w	r8, sp, #180	; 0xb4
20004fac:	f7ff bad7 	b.w	2000455e <_svfprintf_r+0xb72>
20004fb0:	4651      	mov	r1, sl
20004fb2:	4648      	mov	r0, r9
20004fb4:	aa2a      	add	r2, sp, #168	; 0xa8
20004fb6:	f002 f827 	bl	20007008 <__ssprint_r>
20004fba:	2800      	cmp	r0, #0
20004fbc:	f47f a95e 	bne.w	2000427c <_svfprintf_r+0x890>
20004fc0:	9b24      	ldr	r3, [sp, #144]	; 0x90
20004fc2:	9c2c      	ldr	r4, [sp, #176]	; 0xb0
20004fc4:	f10d 08b4 	add.w	r8, sp, #180	; 0xb4
20004fc8:	f7ff baee 	b.w	200045a8 <_svfprintf_r+0xbbc>
20004fcc:	9c09      	ldr	r4, [sp, #36]	; 0x24
20004fce:	a928      	add	r1, sp, #160	; 0xa0
20004fd0:	e9cd 0400 	strd	r0, r4, [sp]
20004fd4:	9104      	str	r1, [sp, #16]
20004fd6:	a825      	add	r0, sp, #148	; 0x94
20004fd8:	a924      	add	r1, sp, #144	; 0x90
20004fda:	e9cd 1002 	strd	r1, r0, [sp, #8]
20004fde:	4648      	mov	r0, r9
20004fe0:	f000 fb4e 	bl	20005680 <_dtoa_r>
20004fe4:	2d47      	cmp	r5, #71	; 0x47
20004fe6:	4607      	mov	r7, r0
20004fe8:	d119      	bne.n	2000501e <_svfprintf_r+0x1632>
20004fea:	9d07      	ldr	r5, [sp, #28]
20004fec:	462b      	mov	r3, r5
20004fee:	07db      	lsls	r3, r3, #31
20004ff0:	f100 812a 	bmi.w	20005248 <_svfprintf_r+0x185c>
20004ff4:	9a12      	ldr	r2, [sp, #72]	; 0x48
20004ff6:	9b28      	ldr	r3, [sp, #160]	; 0xa0
20004ff8:	9207      	str	r2, [sp, #28]
20004ffa:	2247      	movs	r2, #71	; 0x47
20004ffc:	9208      	str	r2, [sp, #32]
20004ffe:	e41a      	b.n	20004836 <_svfprintf_r+0xe4a>
20005000:	2003      	movs	r0, #3
20005002:	9c09      	ldr	r4, [sp, #36]	; 0x24
20005004:	a928      	add	r1, sp, #160	; 0xa0
20005006:	e9cd 0400 	strd	r0, r4, [sp]
2000500a:	9104      	str	r1, [sp, #16]
2000500c:	a825      	add	r0, sp, #148	; 0x94
2000500e:	a924      	add	r1, sp, #144	; 0x90
20005010:	e9cd 1002 	strd	r1, r0, [sp, #8]
20005014:	9b0f      	ldr	r3, [sp, #60]	; 0x3c
20005016:	4648      	mov	r0, r9
20005018:	f000 fb32 	bl	20005680 <_dtoa_r>
2000501c:	4607      	mov	r7, r0
2000501e:	9b09      	ldr	r3, [sp, #36]	; 0x24
20005020:	2d46      	cmp	r5, #70	; 0x46
20005022:	eb07 0403 	add.w	r4, r7, r3
20005026:	f47f abf9 	bne.w	2000481c <_svfprintf_r+0xe30>
2000502a:	783b      	ldrb	r3, [r7, #0]
2000502c:	2b30      	cmp	r3, #48	; 0x30
2000502e:	f000 821c 	beq.w	2000546a <_svfprintf_r+0x1a7e>
20005032:	9b24      	ldr	r3, [sp, #144]	; 0x90
20005034:	9a12      	ldr	r2, [sp, #72]	; 0x48
20005036:	9d07      	ldr	r5, [sp, #28]
20005038:	441c      	add	r4, r3
2000503a:	9207      	str	r2, [sp, #28]
2000503c:	f7ff bbf1 	b.w	20004822 <_svfprintf_r+0xe36>
20005040:	e9dd 212b 	ldrd	r2, r1, [sp, #172]	; 0xac
20005044:	f7ff b9c3 	b.w	200043ce <_svfprintf_r+0x9e2>
20005048:	9b09      	ldr	r3, [sp, #36]	; 0x24
2000504a:	f89d 208b 	ldrb.w	r2, [sp, #139]	; 0x8b
2000504e:	9308      	str	r3, [sp, #32]
20005050:	930c      	str	r3, [sp, #48]	; 0x30
20005052:	9009      	str	r0, [sp, #36]	; 0x24
20005054:	940e      	str	r4, [sp, #56]	; 0x38
20005056:	9012      	str	r0, [sp, #72]	; 0x48
20005058:	9016      	str	r0, [sp, #88]	; 0x58
2000505a:	9010      	str	r0, [sp, #64]	; 0x40
2000505c:	f7fe beea 	b.w	20003e34 <_svfprintf_r+0x448>
20005060:	9a24      	ldr	r2, [sp, #144]	; 0x90
20005062:	2a00      	cmp	r2, #0
20005064:	9210      	str	r2, [sp, #64]	; 0x40
20005066:	f340 821b 	ble.w	200054a0 <_svfprintf_r+0x1ab4>
2000506a:	9909      	ldr	r1, [sp, #36]	; 0x24
2000506c:	f005 0301 	and.w	r3, r5, #1
20005070:	430b      	orrs	r3, r1
20005072:	f040 819a 	bne.w	200053aa <_svfprintf_r+0x19be>
20005076:	2666      	movs	r6, #102	; 0x66
20005078:	9b10      	ldr	r3, [sp, #64]	; 0x40
2000507a:	930c      	str	r3, [sp, #48]	; 0x30
2000507c:	056a      	lsls	r2, r5, #21
2000507e:	f100 816d 	bmi.w	2000535c <_svfprintf_r+0x1970>
20005082:	9b0c      	ldr	r3, [sp, #48]	; 0x30
20005084:	ea23 73e3 	bic.w	r3, r3, r3, asr #31
20005088:	9308      	str	r3, [sp, #32]
2000508a:	e75b      	b.n	20004f44 <_svfprintf_r+0x1558>
2000508c:	4651      	mov	r1, sl
2000508e:	4648      	mov	r0, r9
20005090:	aa2a      	add	r2, sp, #168	; 0xa8
20005092:	f001 ffb9 	bl	20007008 <__ssprint_r>
20005096:	2800      	cmp	r0, #0
20005098:	f47f a8f0 	bne.w	2000427c <_svfprintf_r+0x890>
2000509c:	9b24      	ldr	r3, [sp, #144]	; 0x90
2000509e:	9a13      	ldr	r2, [sp, #76]	; 0x4c
200050a0:	9c2c      	ldr	r4, [sp, #176]	; 0xb0
200050a2:	f10d 08b4 	add.w	r8, sp, #180	; 0xb4
200050a6:	1ad3      	subs	r3, r2, r3
200050a8:	f7ff ba93 	b.w	200045d2 <_svfprintf_r+0xbe6>
200050ac:	2330      	movs	r3, #48	; 0x30
200050ae:	f88d 308c 	strb.w	r3, [sp, #140]	; 0x8c
200050b2:	2358      	movs	r3, #88	; 0x58
200050b4:	f88d 308d 	strb.w	r3, [sp, #141]	; 0x8d
200050b8:	9b07      	ldr	r3, [sp, #28]
200050ba:	f043 0402 	orr.w	r4, r3, #2
200050be:	9b09      	ldr	r3, [sp, #36]	; 0x24
200050c0:	2b63      	cmp	r3, #99	; 0x63
200050c2:	f300 80f2 	bgt.w	200052aa <_svfprintf_r+0x18be>
200050c6:	2300      	movs	r3, #0
200050c8:	af3d      	add	r7, sp, #244	; 0xf4
200050ca:	930d      	str	r3, [sp, #52]	; 0x34
200050cc:	9b07      	ldr	r3, [sp, #28]
200050ce:	e9dd 1214 	ldrd	r1, r2, [sp, #80]	; 0x50
200050d2:	f443 7381 	orr.w	r3, r3, #258	; 0x102
200050d6:	9312      	str	r3, [sp, #72]	; 0x48
200050d8:	4613      	mov	r3, r2
200050da:	2b00      	cmp	r3, #0
200050dc:	f026 0520 	bic.w	r5, r6, #32
200050e0:	9407      	str	r4, [sp, #28]
200050e2:	f2c0 808d 	blt.w	20005200 <_svfprintf_r+0x1814>
200050e6:	930f      	str	r3, [sp, #60]	; 0x3c
200050e8:	2300      	movs	r3, #0
200050ea:	9508      	str	r5, [sp, #32]
200050ec:	910c      	str	r1, [sp, #48]	; 0x30
200050ee:	931e      	str	r3, [sp, #120]	; 0x78
200050f0:	2e61      	cmp	r6, #97	; 0x61
200050f2:	f000 817d 	beq.w	200053f0 <_svfprintf_r+0x1a04>
200050f6:	2e41      	cmp	r6, #65	; 0x41
200050f8:	f47f ab77 	bne.w	200047ea <_svfprintf_r+0xdfe>
200050fc:	aa24      	add	r2, sp, #144	; 0x90
200050fe:	980c      	ldr	r0, [sp, #48]	; 0x30
20005100:	990f      	ldr	r1, [sp, #60]	; 0x3c
20005102:	f001 fee7 	bl	20006ed4 <frexp>
20005106:	2200      	movs	r2, #0
20005108:	f04f 537f 	mov.w	r3, #1069547520	; 0x3fc00000
2000510c:	f002 fca8 	bl	20007a60 <__aeabi_dmul>
20005110:	4604      	mov	r4, r0
20005112:	460d      	mov	r5, r1
20005114:	2200      	movs	r2, #0
20005116:	2300      	movs	r3, #0
20005118:	e9cd 4510 	strd	r4, r5, [sp, #64]	; 0x40
2000511c:	f002 ff08 	bl	20007f30 <__aeabi_dcmpeq>
20005120:	b108      	cbz	r0, 20005126 <_svfprintf_r+0x173a>
20005122:	2301      	movs	r3, #1
20005124:	9324      	str	r3, [sp, #144]	; 0x90
20005126:	4bae      	ldr	r3, [pc, #696]	; (200053e0 <_svfprintf_r+0x19f4>)
20005128:	930c      	str	r3, [sp, #48]	; 0x30
2000512a:	9b09      	ldr	r3, [sp, #36]	; 0x24
2000512c:	f8cd b03c 	str.w	fp, [sp, #60]	; 0x3c
20005130:	3b01      	subs	r3, #1
20005132:	9613      	str	r6, [sp, #76]	; 0x4c
20005134:	f8cd 907c 	str.w	r9, [sp, #124]	; 0x7c
20005138:	f8cd a080 	str.w	sl, [sp, #128]	; 0x80
2000513c:	9721      	str	r7, [sp, #132]	; 0x84
2000513e:	46ba      	mov	sl, r7
20005140:	e9dd 6710 	ldrd	r6, r7, [sp, #64]	; 0x40
20005144:	4699      	mov	r9, r3
20005146:	f8dd b030 	ldr.w	fp, [sp, #48]	; 0x30
2000514a:	f8cd 8058 	str.w	r8, [sp, #88]	; 0x58
2000514e:	e006      	b.n	2000515e <_svfprintf_r+0x1772>
20005150:	2200      	movs	r2, #0
20005152:	2300      	movs	r3, #0
20005154:	f002 feec 	bl	20007f30 <__aeabi_dcmpeq>
20005158:	f109 39ff 	add.w	r9, r9, #4294967295
2000515c:	b9e8      	cbnz	r0, 2000519a <_svfprintf_r+0x17ae>
2000515e:	2200      	movs	r2, #0
20005160:	4ba0      	ldr	r3, [pc, #640]	; (200053e4 <_svfprintf_r+0x19f8>)
20005162:	4630      	mov	r0, r6
20005164:	4639      	mov	r1, r7
20005166:	f002 fc7b 	bl	20007a60 <__aeabi_dmul>
2000516a:	460d      	mov	r5, r1
2000516c:	4604      	mov	r4, r0
2000516e:	f002 ff27 	bl	20007fc0 <__aeabi_d2iz>
20005172:	4680      	mov	r8, r0
20005174:	f002 fc0a 	bl	2000798c <__aeabi_i2d>
20005178:	460b      	mov	r3, r1
2000517a:	4602      	mov	r2, r0
2000517c:	4629      	mov	r1, r5
2000517e:	4620      	mov	r0, r4
20005180:	f002 fab6 	bl	200076f0 <__aeabi_dsub>
20005184:	f81b 3008 	ldrb.w	r3, [fp, r8]
20005188:	f1b9 3fff 	cmp.w	r9, #4294967295
2000518c:	4655      	mov	r5, sl
2000518e:	4606      	mov	r6, r0
20005190:	460f      	mov	r7, r1
20005192:	464c      	mov	r4, r9
20005194:	f80a 3b01 	strb.w	r3, [sl], #1
20005198:	d1da      	bne.n	20005150 <_svfprintf_r+0x1764>
2000519a:	4630      	mov	r0, r6
2000519c:	4639      	mov	r1, r7
2000519e:	2200      	movs	r2, #0
200051a0:	4b91      	ldr	r3, [pc, #580]	; (200053e8 <_svfprintf_r+0x19fc>)
200051a2:	f8dd b03c 	ldr.w	fp, [sp, #60]	; 0x3c
200051a6:	9e13      	ldr	r6, [sp, #76]	; 0x4c
200051a8:	f8cd a03c 	str.w	sl, [sp, #60]	; 0x3c
200051ac:	f8cd 804c 	str.w	r8, [sp, #76]	; 0x4c
200051b0:	e9cd 0110 	strd	r0, r1, [sp, #64]	; 0x40
200051b4:	e9dd 9a1f 	ldrd	r9, sl, [sp, #124]	; 0x7c
200051b8:	f8dd 8058 	ldr.w	r8, [sp, #88]	; 0x58
200051bc:	9f21      	ldr	r7, [sp, #132]	; 0x84
200051be:	f002 fedf 	bl	20007f80 <__aeabi_dcmpgt>
200051c2:	2800      	cmp	r0, #0
200051c4:	d155      	bne.n	20005272 <_svfprintf_r+0x1886>
200051c6:	e9dd 0110 	ldrd	r0, r1, [sp, #64]	; 0x40
200051ca:	2200      	movs	r2, #0
200051cc:	4b86      	ldr	r3, [pc, #536]	; (200053e8 <_svfprintf_r+0x19fc>)
200051ce:	f002 feaf 	bl	20007f30 <__aeabi_dcmpeq>
200051d2:	b110      	cbz	r0, 200051da <_svfprintf_r+0x17ee>
200051d4:	9b13      	ldr	r3, [sp, #76]	; 0x4c
200051d6:	07db      	lsls	r3, r3, #31
200051d8:	d44b      	bmi.n	20005272 <_svfprintf_r+0x1886>
200051da:	2c00      	cmp	r4, #0
200051dc:	db08      	blt.n	200051f0 <_svfprintf_r+0x1804>
200051de:	2230      	movs	r2, #48	; 0x30
200051e0:	990f      	ldr	r1, [sp, #60]	; 0x3c
200051e2:	1c63      	adds	r3, r4, #1
200051e4:	440b      	add	r3, r1
200051e6:	f801 2b01 	strb.w	r2, [r1], #1
200051ea:	428b      	cmp	r3, r1
200051ec:	d1fb      	bne.n	200051e6 <_svfprintf_r+0x17fa>
200051ee:	910f      	str	r1, [sp, #60]	; 0x3c
200051f0:	9b0f      	ldr	r3, [sp, #60]	; 0x3c
200051f2:	9d07      	ldr	r5, [sp, #28]
200051f4:	1bdb      	subs	r3, r3, r7
200051f6:	9313      	str	r3, [sp, #76]	; 0x4c
200051f8:	9b12      	ldr	r3, [sp, #72]	; 0x48
200051fa:	9307      	str	r3, [sp, #28]
200051fc:	f7ff bb1d 	b.w	2000483a <_svfprintf_r+0xe4e>
20005200:	9508      	str	r5, [sp, #32]
20005202:	232d      	movs	r3, #45	; 0x2d
20005204:	e9dd 1214 	ldrd	r1, r2, [sp, #80]	; 0x50
20005208:	931e      	str	r3, [sp, #120]	; 0x78
2000520a:	f102 4300 	add.w	r3, r2, #2147483648	; 0x80000000
2000520e:	910c      	str	r1, [sp, #48]	; 0x30
20005210:	930f      	str	r3, [sp, #60]	; 0x3c
20005212:	e76d      	b.n	200050f0 <_svfprintf_r+0x1704>
20005214:	9b13      	ldr	r3, [sp, #76]	; 0x4c
20005216:	9a17      	ldr	r2, [sp, #92]	; 0x5c
20005218:	189a      	adds	r2, r3, r2
2000521a:	9b10      	ldr	r3, [sp, #64]	; 0x40
2000521c:	920c      	str	r2, [sp, #48]	; 0x30
2000521e:	2b00      	cmp	r3, #0
20005220:	f340 811a 	ble.w	20005458 <_svfprintf_r+0x1a6c>
20005224:	2667      	movs	r6, #103	; 0x67
20005226:	e729      	b.n	2000507c <_svfprintf_r+0x1690>
20005228:	2300      	movs	r3, #0
2000522a:	9309      	str	r3, [sp, #36]	; 0x24
2000522c:	f7fe bc2b 	b.w	20003a86 <_svfprintf_r+0x9a>
20005230:	4648      	mov	r0, r9
20005232:	4651      	mov	r1, sl
20005234:	aa2a      	add	r2, sp, #168	; 0xa8
20005236:	f001 fee7 	bl	20007008 <__ssprint_r>
2000523a:	f8ba 300c 	ldrh.w	r3, [sl, #12]
2000523e:	f7fe bdae 	b.w	20003d9e <_svfprintf_r+0x3b2>
20005242:	9b2b      	ldr	r3, [sp, #172]	; 0xac
20005244:	f7ff b95f 	b.w	20004506 <_svfprintf_r+0xb1a>
20005248:	9b09      	ldr	r3, [sp, #36]	; 0x24
2000524a:	9d07      	ldr	r5, [sp, #28]
2000524c:	18fc      	adds	r4, r7, r3
2000524e:	9b12      	ldr	r3, [sp, #72]	; 0x48
20005250:	9307      	str	r3, [sp, #28]
20005252:	2347      	movs	r3, #71	; 0x47
20005254:	9308      	str	r3, [sp, #32]
20005256:	f7ff bae4 	b.w	20004822 <_svfprintf_r+0xe36>
2000525a:	46cb      	mov	fp, r9
2000525c:	46d1      	mov	r9, sl
2000525e:	f7ff b80e 	b.w	2000427e <_svfprintf_r+0x892>
20005262:	46d1      	mov	r9, sl
20005264:	f7ff b80b 	b.w	2000427e <_svfprintf_r+0x892>
20005268:	4b60      	ldr	r3, [pc, #384]	; (200053ec <_svfprintf_r+0x1a00>)
2000526a:	9a2b      	ldr	r2, [sp, #172]	; 0xac
2000526c:	930f      	str	r3, [sp, #60]	; 0x3c
2000526e:	f7fe bfb7 	b.w	200041e0 <_svfprintf_r+0x7f4>
20005272:	9b0f      	ldr	r3, [sp, #60]	; 0x3c
20005274:	990c      	ldr	r1, [sp, #48]	; 0x30
20005276:	9528      	str	r5, [sp, #160]	; 0xa0
20005278:	f813 2c01 	ldrb.w	r2, [r3, #-1]
2000527c:	7bc9      	ldrb	r1, [r1, #15]
2000527e:	428a      	cmp	r2, r1
20005280:	f040 812a 	bne.w	200054d8 <_svfprintf_r+0x1aec>
20005284:	2030      	movs	r0, #48	; 0x30
20005286:	f803 0c01 	strb.w	r0, [r3, #-1]
2000528a:	9b28      	ldr	r3, [sp, #160]	; 0xa0
2000528c:	1e5a      	subs	r2, r3, #1
2000528e:	9228      	str	r2, [sp, #160]	; 0xa0
20005290:	f813 2c01 	ldrb.w	r2, [r3, #-1]
20005294:	4291      	cmp	r1, r2
20005296:	d0f6      	beq.n	20005286 <_svfprintf_r+0x189a>
20005298:	2a39      	cmp	r2, #57	; 0x39
2000529a:	bf0b      	itete	eq
2000529c:	9a0c      	ldreq	r2, [sp, #48]	; 0x30
2000529e:	3201      	addne	r2, #1
200052a0:	7a92      	ldrbeq	r2, [r2, #10]
200052a2:	b2d2      	uxtbne	r2, r2
200052a4:	f803 2c01 	strb.w	r2, [r3, #-1]
200052a8:	e7a2      	b.n	200051f0 <_svfprintf_r+0x1804>
200052aa:	4648      	mov	r0, r9
200052ac:	1c59      	adds	r1, r3, #1
200052ae:	f7fd ffe9 	bl	20003284 <_malloc_r>
200052b2:	4607      	mov	r7, r0
200052b4:	2800      	cmp	r0, #0
200052b6:	f000 811d 	beq.w	200054f4 <_svfprintf_r+0x1b08>
200052ba:	900d      	str	r0, [sp, #52]	; 0x34
200052bc:	e706      	b.n	200050cc <_svfprintf_r+0x16e0>
200052be:	2330      	movs	r3, #48	; 0x30
200052c0:	f88d 308c 	strb.w	r3, [sp, #140]	; 0x8c
200052c4:	2378      	movs	r3, #120	; 0x78
200052c6:	e6f5      	b.n	200050b4 <_svfprintf_r+0x16c8>
200052c8:	9b07      	ldr	r3, [sp, #28]
200052ca:	9308      	str	r3, [sp, #32]
200052cc:	f7ff b894 	b.w	200043f8 <_svfprintf_r+0xa0c>
200052d0:	464a      	mov	r2, r9
200052d2:	46d1      	mov	r9, sl
200052d4:	4692      	mov	sl, r2
200052d6:	9f09      	ldr	r7, [sp, #36]	; 0x24
200052d8:	3301      	adds	r3, #1
200052da:	9a0f      	ldr	r2, [sp, #60]	; 0x3c
200052dc:	442c      	add	r4, r5
200052de:	2b07      	cmp	r3, #7
200052e0:	e9cd 342b 	strd	r3, r4, [sp, #172]	; 0xac
200052e4:	e9c8 2500 	strd	r2, r5, [r8]
200052e8:	f77f a8b8 	ble.w	2000445c <_svfprintf_r+0xa70>
200052ec:	4651      	mov	r1, sl
200052ee:	4648      	mov	r0, r9
200052f0:	aa2a      	add	r2, sp, #168	; 0xa8
200052f2:	f001 fe89 	bl	20007008 <__ssprint_r>
200052f6:	2800      	cmp	r0, #0
200052f8:	f47e afc0 	bne.w	2000427c <_svfprintf_r+0x890>
200052fc:	e9dd 342b 	ldrd	r3, r4, [sp, #172]	; 0xac
20005300:	f10d 08b4 	add.w	r8, sp, #180	; 0xb4
20005304:	f7ff b8ac 	b.w	20004460 <_svfprintf_r+0xa74>
20005308:	2b00      	cmp	r3, #0
2000530a:	bf08      	it	eq
2000530c:	2301      	moveq	r3, #1
2000530e:	9309      	str	r3, [sp, #36]	; 0x24
20005310:	9b07      	ldr	r3, [sp, #28]
20005312:	f443 7380 	orr.w	r3, r3, #256	; 0x100
20005316:	9312      	str	r3, [sp, #72]	; 0x48
20005318:	9b15      	ldr	r3, [sp, #84]	; 0x54
2000531a:	2b00      	cmp	r3, #0
2000531c:	930c      	str	r3, [sp, #48]	; 0x30
2000531e:	f2c0 80bd 	blt.w	2000549c <_svfprintf_r+0x1ab0>
20005322:	2402      	movs	r4, #2
20005324:	9d09      	ldr	r5, [sp, #36]	; 0x24
20005326:	a828      	add	r0, sp, #160	; 0xa0
20005328:	aa25      	add	r2, sp, #148	; 0x94
2000532a:	ab24      	add	r3, sp, #144	; 0x90
2000532c:	e9cd 2003 	strd	r2, r0, [sp, #12]
20005330:	e9cd 4500 	strd	r4, r5, [sp]
20005334:	e9dd 4514 	ldrd	r4, r5, [sp, #80]	; 0x50
20005338:	9302      	str	r3, [sp, #8]
2000533a:	4622      	mov	r2, r4
2000533c:	462b      	mov	r3, r5
2000533e:	4648      	mov	r0, r9
20005340:	911e      	str	r1, [sp, #120]	; 0x78
20005342:	f000 f99d 	bl	20005680 <_dtoa_r>
20005346:	9b0c      	ldr	r3, [sp, #48]	; 0x30
20005348:	4607      	mov	r7, r0
2000534a:	930f      	str	r3, [sp, #60]	; 0x3c
2000534c:	9b1e      	ldr	r3, [sp, #120]	; 0x78
2000534e:	940c      	str	r4, [sp, #48]	; 0x30
20005350:	930d      	str	r3, [sp, #52]	; 0x34
20005352:	e64a      	b.n	20004fea <_svfprintf_r+0x15fe>
20005354:	2300      	movs	r3, #0
20005356:	930d      	str	r3, [sp, #52]	; 0x34
20005358:	e753      	b.n	20005202 <_svfprintf_r+0x1816>
2000535a:	2667      	movs	r6, #103	; 0x67
2000535c:	991a      	ldr	r1, [sp, #104]	; 0x68
2000535e:	780b      	ldrb	r3, [r1, #0]
20005360:	2bff      	cmp	r3, #255	; 0xff
20005362:	f000 80de 	beq.w	20005522 <_svfprintf_r+0x1b36>
20005366:	2400      	movs	r4, #0
20005368:	9a10      	ldr	r2, [sp, #64]	; 0x40
2000536a:	4620      	mov	r0, r4
2000536c:	e003      	b.n	20005376 <_svfprintf_r+0x198a>
2000536e:	3001      	adds	r0, #1
20005370:	3101      	adds	r1, #1
20005372:	2bff      	cmp	r3, #255	; 0xff
20005374:	d008      	beq.n	20005388 <_svfprintf_r+0x199c>
20005376:	4293      	cmp	r3, r2
20005378:	da06      	bge.n	20005388 <_svfprintf_r+0x199c>
2000537a:	1ad2      	subs	r2, r2, r3
2000537c:	784b      	ldrb	r3, [r1, #1]
2000537e:	2b00      	cmp	r3, #0
20005380:	d1f5      	bne.n	2000536e <_svfprintf_r+0x1982>
20005382:	780b      	ldrb	r3, [r1, #0]
20005384:	3401      	adds	r4, #1
20005386:	e7f4      	b.n	20005372 <_svfprintf_r+0x1986>
20005388:	911a      	str	r1, [sp, #104]	; 0x68
2000538a:	9210      	str	r2, [sp, #64]	; 0x40
2000538c:	9016      	str	r0, [sp, #88]	; 0x58
2000538e:	9412      	str	r4, [sp, #72]	; 0x48
20005390:	9a12      	ldr	r2, [sp, #72]	; 0x48
20005392:	9b16      	ldr	r3, [sp, #88]	; 0x58
20005394:	990c      	ldr	r1, [sp, #48]	; 0x30
20005396:	4413      	add	r3, r2
20005398:	9a1d      	ldr	r2, [sp, #116]	; 0x74
2000539a:	fb02 1303 	mla	r3, r2, r3, r1
2000539e:	930c      	str	r3, [sp, #48]	; 0x30
200053a0:	ea23 73e3 	bic.w	r3, r3, r3, asr #31
200053a4:	9308      	str	r3, [sp, #32]
200053a6:	f7ff bab6 	b.w	20004916 <_svfprintf_r+0xf2a>
200053aa:	9b17      	ldr	r3, [sp, #92]	; 0x5c
200053ac:	2666      	movs	r6, #102	; 0x66
200053ae:	18d3      	adds	r3, r2, r3
200053b0:	4419      	add	r1, r3
200053b2:	910c      	str	r1, [sp, #48]	; 0x30
200053b4:	e662      	b.n	2000507c <_svfprintf_r+0x1690>
200053b6:	f106 020f 	add.w	r2, r6, #15
200053ba:	2101      	movs	r1, #1
200053bc:	b2d2      	uxtb	r2, r2
200053be:	f7ff ba4f 	b.w	20004860 <_svfprintf_r+0xe74>
200053c2:	2900      	cmp	r1, #0
200053c4:	d167      	bne.n	20005496 <_svfprintf_r+0x1aaa>
200053c6:	2230      	movs	r2, #48	; 0x30
200053c8:	f88d 209a 	strb.w	r2, [sp, #154]	; 0x9a
200053cc:	f10d 029b 	add.w	r2, sp, #155	; 0x9b
200053d0:	3330      	adds	r3, #48	; 0x30
200053d2:	f802 3b01 	strb.w	r3, [r2], #1
200053d6:	ab26      	add	r3, sp, #152	; 0x98
200053d8:	1ad3      	subs	r3, r2, r3
200053da:	931b      	str	r3, [sp, #108]	; 0x6c
200053dc:	f7ff ba83 	b.w	200048e6 <_svfprintf_r+0xefa>
200053e0:	200086d0 	.word	0x200086d0
200053e4:	40300000 	.word	0x40300000
200053e8:	3fe00000 	.word	0x3fe00000
200053ec:	20008700 	.word	0x20008700
200053f0:	aa24      	add	r2, sp, #144	; 0x90
200053f2:	980c      	ldr	r0, [sp, #48]	; 0x30
200053f4:	990f      	ldr	r1, [sp, #60]	; 0x3c
200053f6:	f001 fd6d 	bl	20006ed4 <frexp>
200053fa:	2200      	movs	r2, #0
200053fc:	f04f 537f 	mov.w	r3, #1069547520	; 0x3fc00000
20005400:	f002 fb2e 	bl	20007a60 <__aeabi_dmul>
20005404:	4604      	mov	r4, r0
20005406:	460d      	mov	r5, r1
20005408:	2200      	movs	r2, #0
2000540a:	2300      	movs	r3, #0
2000540c:	e9cd 4510 	strd	r4, r5, [sp, #64]	; 0x40
20005410:	f002 fd8e 	bl	20007f30 <__aeabi_dcmpeq>
20005414:	b108      	cbz	r0, 2000541a <_svfprintf_r+0x1a2e>
20005416:	2301      	movs	r3, #1
20005418:	9324      	str	r3, [sp, #144]	; 0x90
2000541a:	4b44      	ldr	r3, [pc, #272]	; (2000552c <_svfprintf_r+0x1b40>)
2000541c:	930c      	str	r3, [sp, #48]	; 0x30
2000541e:	e684      	b.n	2000512a <_svfprintf_r+0x173e>
20005420:	2667      	movs	r6, #103	; 0x67
20005422:	e62e      	b.n	20005082 <_svfprintf_r+0x1696>
20005424:	f8ba 300c 	ldrh.w	r3, [sl, #12]
20005428:	f7fe bcb9 	b.w	20003d9e <_svfprintf_r+0x3b2>
2000542c:	9b10      	ldr	r3, [sp, #64]	; 0x40
2000542e:	930c      	str	r3, [sp, #48]	; 0x30
20005430:	e57c      	b.n	20004f2c <_svfprintf_r+0x1540>
20005432:	9b15      	ldr	r3, [sp, #84]	; 0x54
20005434:	2003      	movs	r0, #3
20005436:	2b00      	cmp	r3, #0
20005438:	bfb8      	it	lt
2000543a:	232d      	movlt	r3, #45	; 0x2d
2000543c:	f04f 0100 	mov.w	r1, #0
20005440:	bfba      	itte	lt
20005442:	461a      	movlt	r2, r3
20005444:	f88d 308b 	strblt.w	r3, [sp, #139]	; 0x8b
20005448:	f89d 208b 	ldrbge.w	r2, [sp, #139]	; 0x8b
2000544c:	4f38      	ldr	r7, [pc, #224]	; (20005530 <_svfprintf_r+0x1b44>)
2000544e:	4b39      	ldr	r3, [pc, #228]	; (20005534 <_svfprintf_r+0x1b48>)
20005450:	9008      	str	r0, [sp, #32]
20005452:	910d      	str	r1, [sp, #52]	; 0x34
20005454:	f7fe bce2 	b.w	20003e1c <_svfprintf_r+0x430>
20005458:	f1c3 0301 	rsb	r3, r3, #1
2000545c:	441a      	add	r2, r3
2000545e:	ea22 73e2 	bic.w	r3, r2, r2, asr #31
20005462:	2667      	movs	r6, #103	; 0x67
20005464:	920c      	str	r2, [sp, #48]	; 0x30
20005466:	9308      	str	r3, [sp, #32]
20005468:	e56c      	b.n	20004f44 <_svfprintf_r+0x1558>
2000546a:	2200      	movs	r2, #0
2000546c:	2300      	movs	r3, #0
2000546e:	980c      	ldr	r0, [sp, #48]	; 0x30
20005470:	990f      	ldr	r1, [sp, #60]	; 0x3c
20005472:	f002 fd5d 	bl	20007f30 <__aeabi_dcmpeq>
20005476:	2800      	cmp	r0, #0
20005478:	f47f addb 	bne.w	20005032 <_svfprintf_r+0x1646>
2000547c:	9b09      	ldr	r3, [sp, #36]	; 0x24
2000547e:	f1c3 0301 	rsb	r3, r3, #1
20005482:	9324      	str	r3, [sp, #144]	; 0x90
20005484:	e5d6      	b.n	20005034 <_svfprintf_r+0x1648>
20005486:	992b      	ldr	r1, [sp, #172]	; 0xac
20005488:	f7ff bb59 	b.w	20004b3e <_svfprintf_r+0x1152>
2000548c:	07e9      	lsls	r1, r5, #31
2000548e:	f57f aa35 	bpl.w	200048fc <_svfprintf_r+0xf10>
20005492:	f7ff ba2f 	b.w	200048f4 <_svfprintf_r+0xf08>
20005496:	f10d 029a 	add.w	r2, sp, #154	; 0x9a
2000549a:	e799      	b.n	200053d0 <_svfprintf_r+0x19e4>
2000549c:	900d      	str	r0, [sp, #52]	; 0x34
2000549e:	e6b0      	b.n	20005202 <_svfprintf_r+0x1816>
200054a0:	9a09      	ldr	r2, [sp, #36]	; 0x24
200054a2:	f005 0501 	and.w	r5, r5, #1
200054a6:	4613      	mov	r3, r2
200054a8:	432b      	orrs	r3, r5
200054aa:	d104      	bne.n	200054b6 <_svfprintf_r+0x1aca>
200054ac:	2301      	movs	r3, #1
200054ae:	2666      	movs	r6, #102	; 0x66
200054b0:	9308      	str	r3, [sp, #32]
200054b2:	930c      	str	r3, [sp, #48]	; 0x30
200054b4:	e546      	b.n	20004f44 <_svfprintf_r+0x1558>
200054b6:	9b17      	ldr	r3, [sp, #92]	; 0x5c
200054b8:	2666      	movs	r6, #102	; 0x66
200054ba:	3301      	adds	r3, #1
200054bc:	441a      	add	r2, r3
200054be:	ea22 73e2 	bic.w	r3, r2, r2, asr #31
200054c2:	920c      	str	r2, [sp, #48]	; 0x30
200054c4:	9308      	str	r3, [sp, #32]
200054c6:	e53d      	b.n	20004f44 <_svfprintf_r+0x1558>
200054c8:	4b1b      	ldr	r3, [pc, #108]	; (20005538 <_svfprintf_r+0x1b4c>)
200054ca:	930f      	str	r3, [sp, #60]	; 0x3c
200054cc:	f7ff bbe9 	b.w	20004ca2 <_svfprintf_r+0x12b6>
200054d0:	4a19      	ldr	r2, [pc, #100]	; (20005538 <_svfprintf_r+0x1b4c>)
200054d2:	9b2b      	ldr	r3, [sp, #172]	; 0xac
200054d4:	920f      	str	r2, [sp, #60]	; 0x3c
200054d6:	e4b1      	b.n	20004e3c <_svfprintf_r+0x1450>
200054d8:	9b0f      	ldr	r3, [sp, #60]	; 0x3c
200054da:	e6dd      	b.n	20005298 <_svfprintf_r+0x18ac>
200054dc:	9b0e      	ldr	r3, [sp, #56]	; 0x38
200054de:	f89b 6001 	ldrb.w	r6, [fp, #1]
200054e2:	f853 0b04 	ldr.w	r0, [r3], #4
200054e6:	4693      	mov	fp, r2
200054e8:	ea40 70e0 	orr.w	r0, r0, r0, asr #31
200054ec:	9009      	str	r0, [sp, #36]	; 0x24
200054ee:	930e      	str	r3, [sp, #56]	; 0x38
200054f0:	f7fe bac7 	b.w	20003a82 <_svfprintf_r+0x96>
200054f4:	f8ba 300c 	ldrh.w	r3, [sl, #12]
200054f8:	f043 0340 	orr.w	r3, r3, #64	; 0x40
200054fc:	f8aa 300c 	strh.w	r3, [sl, #12]
20005500:	f7fe bc4d 	b.w	20003d9e <_svfprintf_r+0x3b2>
20005504:	4a0c      	ldr	r2, [pc, #48]	; (20005538 <_svfprintf_r+0x1b4c>)
20005506:	920f      	str	r2, [sp, #60]	; 0x3c
20005508:	e6e6      	b.n	200052d8 <_svfprintf_r+0x18ec>
2000550a:	230c      	movs	r3, #12
2000550c:	f04f 32ff 	mov.w	r2, #4294967295
20005510:	f8c9 3000 	str.w	r3, [r9]
20005514:	920a      	str	r2, [sp, #40]	; 0x28
20005516:	f7fe bc49 	b.w	20003dac <_svfprintf_r+0x3c0>
2000551a:	2302      	movs	r3, #2
2000551c:	931b      	str	r3, [sp, #108]	; 0x6c
2000551e:	f7ff b9e2 	b.w	200048e6 <_svfprintf_r+0xefa>
20005522:	2300      	movs	r3, #0
20005524:	9312      	str	r3, [sp, #72]	; 0x48
20005526:	9316      	str	r3, [sp, #88]	; 0x58
20005528:	e732      	b.n	20005390 <_svfprintf_r+0x19a4>
2000552a:	bf00      	nop
2000552c:	200086bc 	.word	0x200086bc
20005530:	200086b4 	.word	0x200086b4
20005534:	200086b8 	.word	0x200086b8
20005538:	20008700 	.word	0x20008700

2000553c <register_fini>:
register_fini():
2000553c:	4b02      	ldr	r3, [pc, #8]	; (20005548 <register_fini+0xc>)
2000553e:	b113      	cbz	r3, 20005546 <register_fini+0xa>
20005540:	4802      	ldr	r0, [pc, #8]	; (2000554c <register_fini+0x10>)
20005542:	f000 b805 	b.w	20005550 <atexit>
20005546:	4770      	bx	lr
20005548:	00000000 	.word	0x00000000
2000554c:	2000650d 	.word	0x2000650d

20005550 <atexit>:
atexit():
20005550:	2300      	movs	r3, #0
20005552:	4601      	mov	r1, r0
20005554:	461a      	mov	r2, r3
20005556:	4618      	mov	r0, r3
20005558:	f001 bdd2 	b.w	20007100 <__register_exitproc>

2000555c <quorem>:
quorem():
2000555c:	e92d 4ff0 	stmdb	sp!, {r4, r5, r6, r7, r8, r9, sl, fp, lr}
20005560:	6903      	ldr	r3, [r0, #16]
20005562:	690d      	ldr	r5, [r1, #16]
20005564:	b083      	sub	sp, #12
20005566:	42ab      	cmp	r3, r5
20005568:	f2c0 8084 	blt.w	20005674 <quorem+0x118>
2000556c:	3d01      	subs	r5, #1
2000556e:	f101 0614 	add.w	r6, r1, #20
20005572:	f100 0914 	add.w	r9, r0, #20
20005576:	f856 3025 	ldr.w	r3, [r6, r5, lsl #2]
2000557a:	f859 2025 	ldr.w	r2, [r9, r5, lsl #2]
2000557e:	3301      	adds	r3, #1
20005580:	468e      	mov	lr, r1
20005582:	00a9      	lsls	r1, r5, #2
20005584:	9100      	str	r1, [sp, #0]
20005586:	429a      	cmp	r2, r3
20005588:	eb09 0185 	add.w	r1, r9, r5, lsl #2
2000558c:	4682      	mov	sl, r0
2000558e:	fbb2 f7f3 	udiv	r7, r2, r3
20005592:	eb06 0885 	add.w	r8, r6, r5, lsl #2
20005596:	9101      	str	r1, [sp, #4]
20005598:	d337      	bcc.n	2000560a <quorem+0xae>
2000559a:	2200      	movs	r2, #0
2000559c:	46b4      	mov	ip, r6
2000559e:	4614      	mov	r4, r2
200055a0:	4648      	mov	r0, r9
200055a2:	f85c 3b04 	ldr.w	r3, [ip], #4
200055a6:	6801      	ldr	r1, [r0, #0]
200055a8:	fa1f fb83 	uxth.w	fp, r3
200055ac:	fb07 220b 	mla	r2, r7, fp, r2
200055b0:	0c1b      	lsrs	r3, r3, #16
200055b2:	ea4f 4b12 	mov.w	fp, r2, lsr #16
200055b6:	fb07 bb03 	mla	fp, r7, r3, fp
200055ba:	b293      	uxth	r3, r2
200055bc:	1ae3      	subs	r3, r4, r3
200055be:	b28a      	uxth	r2, r1
200055c0:	fa1f f48b 	uxth.w	r4, fp
200055c4:	4413      	add	r3, r2
200055c6:	ebc4 4411 	rsb	r4, r4, r1, lsr #16
200055ca:	eb04 4423 	add.w	r4, r4, r3, asr #16
200055ce:	b29b      	uxth	r3, r3
200055d0:	ea43 4304 	orr.w	r3, r3, r4, lsl #16
200055d4:	45e0      	cmp	r8, ip
200055d6:	f840 3b04 	str.w	r3, [r0], #4
200055da:	ea4f 4424 	mov.w	r4, r4, asr #16
200055de:	ea4f 421b 	mov.w	r2, fp, lsr #16
200055e2:	d2de      	bcs.n	200055a2 <quorem+0x46>
200055e4:	9b00      	ldr	r3, [sp, #0]
200055e6:	f859 3003 	ldr.w	r3, [r9, r3]
200055ea:	b973      	cbnz	r3, 2000560a <quorem+0xae>
200055ec:	9b01      	ldr	r3, [sp, #4]
200055ee:	3b04      	subs	r3, #4
200055f0:	4599      	cmp	r9, r3
200055f2:	d304      	bcc.n	200055fe <quorem+0xa2>
200055f4:	e007      	b.n	20005606 <quorem+0xaa>
200055f6:	4599      	cmp	r9, r3
200055f8:	f105 35ff 	add.w	r5, r5, #4294967295
200055fc:	d203      	bcs.n	20005606 <quorem+0xaa>
200055fe:	f853 2904 	ldr.w	r2, [r3], #-4
20005602:	2a00      	cmp	r2, #0
20005604:	d0f7      	beq.n	200055f6 <quorem+0x9a>
20005606:	f8ca 5010 	str.w	r5, [sl, #16]
2000560a:	4671      	mov	r1, lr
2000560c:	4650      	mov	r0, sl
2000560e:	f001 fb53 	bl	20006cb8 <__mcmp>
20005612:	2800      	cmp	r0, #0
20005614:	db2a      	blt.n	2000566c <quorem+0x110>
20005616:	4648      	mov	r0, r9
20005618:	2300      	movs	r3, #0
2000561a:	3701      	adds	r7, #1
2000561c:	f856 1b04 	ldr.w	r1, [r6], #4
20005620:	6804      	ldr	r4, [r0, #0]
20005622:	b28a      	uxth	r2, r1
20005624:	1a9a      	subs	r2, r3, r2
20005626:	0c0b      	lsrs	r3, r1, #16
20005628:	b2a1      	uxth	r1, r4
2000562a:	440a      	add	r2, r1
2000562c:	ebc3 4314 	rsb	r3, r3, r4, lsr #16
20005630:	eb03 4322 	add.w	r3, r3, r2, asr #16
20005634:	b292      	uxth	r2, r2
20005636:	ea42 4203 	orr.w	r2, r2, r3, lsl #16
2000563a:	45b0      	cmp	r8, r6
2000563c:	f840 2b04 	str.w	r2, [r0], #4
20005640:	ea4f 4323 	mov.w	r3, r3, asr #16
20005644:	d2ea      	bcs.n	2000561c <quorem+0xc0>
20005646:	f859 2025 	ldr.w	r2, [r9, r5, lsl #2]
2000564a:	eb09 0385 	add.w	r3, r9, r5, lsl #2
2000564e:	b96a      	cbnz	r2, 2000566c <quorem+0x110>
20005650:	3b04      	subs	r3, #4
20005652:	4599      	cmp	r9, r3
20005654:	d304      	bcc.n	20005660 <quorem+0x104>
20005656:	e007      	b.n	20005668 <quorem+0x10c>
20005658:	4599      	cmp	r9, r3
2000565a:	f105 35ff 	add.w	r5, r5, #4294967295
2000565e:	d203      	bcs.n	20005668 <quorem+0x10c>
20005660:	f853 2904 	ldr.w	r2, [r3], #-4
20005664:	2a00      	cmp	r2, #0
20005666:	d0f7      	beq.n	20005658 <quorem+0xfc>
20005668:	f8ca 5010 	str.w	r5, [sl, #16]
2000566c:	4638      	mov	r0, r7
2000566e:	b003      	add	sp, #12
20005670:	e8bd 8ff0 	ldmia.w	sp!, {r4, r5, r6, r7, r8, r9, sl, fp, pc}
20005674:	2000      	movs	r0, #0
20005676:	b003      	add	sp, #12
20005678:	e8bd 8ff0 	ldmia.w	sp!, {r4, r5, r6, r7, r8, r9, sl, fp, pc}
2000567c:	0000      	movs	r0, r0
	...

20005680 <_dtoa_r>:
_dtoa_r():
20005680:	e92d 4ff0 	stmdb	sp!, {r4, r5, r6, r7, r8, r9, sl, fp, lr}
20005684:	4616      	mov	r6, r2
20005686:	461f      	mov	r7, r3
20005688:	6c01      	ldr	r1, [r0, #64]	; 0x40
2000568a:	b09b      	sub	sp, #108	; 0x6c
2000568c:	4604      	mov	r4, r0
2000568e:	e9cd 6704 	strd	r6, r7, [sp, #16]
20005692:	9d27      	ldr	r5, [sp, #156]	; 0x9c
20005694:	b141      	cbz	r1, 200056a8 <_dtoa_r+0x28>
20005696:	2301      	movs	r3, #1
20005698:	6c42      	ldr	r2, [r0, #68]	; 0x44
2000569a:	4093      	lsls	r3, r2
2000569c:	e9c1 2301 	strd	r2, r3, [r1, #4]
200056a0:	f001 f90e 	bl	200068c0 <_Bfree>
200056a4:	2300      	movs	r3, #0
200056a6:	6423      	str	r3, [r4, #64]	; 0x40
200056a8:	f1b7 0900 	subs.w	r9, r7, #0
200056ac:	bfb4      	ite	lt
200056ae:	2301      	movlt	r3, #1
200056b0:	2300      	movge	r3, #0
200056b2:	602b      	str	r3, [r5, #0]
200056b4:	4b76      	ldr	r3, [pc, #472]	; (20005890 <_dtoa_r+0x210>)
200056b6:	bfbc      	itt	lt
200056b8:	f029 4900 	biclt.w	r9, r9, #2147483648	; 0x80000000
200056bc:	f8cd 9014 	strlt.w	r9, [sp, #20]
200056c0:	ea33 0309 	bics.w	r3, r3, r9
200056c4:	f000 80ab 	beq.w	2000581e <_dtoa_r+0x19e>
200056c8:	e9dd 2304 	ldrd	r2, r3, [sp, #16]
200056cc:	4610      	mov	r0, r2
200056ce:	4619      	mov	r1, r3
200056d0:	2200      	movs	r2, #0
200056d2:	2300      	movs	r3, #0
200056d4:	e9cd 0106 	strd	r0, r1, [sp, #24]
200056d8:	f002 fc2a 	bl	20007f30 <__aeabi_dcmpeq>
200056dc:	4680      	mov	r8, r0
200056de:	b170      	cbz	r0, 200056fe <_dtoa_r+0x7e>
200056e0:	2301      	movs	r3, #1
200056e2:	9a26      	ldr	r2, [sp, #152]	; 0x98
200056e4:	6013      	str	r3, [r2, #0]
200056e6:	9b28      	ldr	r3, [sp, #160]	; 0xa0
200056e8:	2b00      	cmp	r3, #0
200056ea:	f000 82c5 	beq.w	20005c78 <_dtoa_r+0x5f8>
200056ee:	4869      	ldr	r0, [pc, #420]	; (20005894 <_dtoa_r+0x214>)
200056f0:	6018      	str	r0, [r3, #0]
200056f2:	1e43      	subs	r3, r0, #1
200056f4:	9303      	str	r3, [sp, #12]
200056f6:	9803      	ldr	r0, [sp, #12]
200056f8:	b01b      	add	sp, #108	; 0x6c
200056fa:	e8bd 8ff0 	ldmia.w	sp!, {r4, r5, r6, r7, r8, r9, sl, fp, pc}
200056fe:	aa18      	add	r2, sp, #96	; 0x60
20005700:	ab19      	add	r3, sp, #100	; 0x64
20005702:	e9cd 3200 	strd	r3, r2, [sp]
20005706:	e9dd 2306 	ldrd	r2, r3, [sp, #24]
2000570a:	4620      	mov	r0, r4
2000570c:	f001 fb8e 	bl	20006e2c <__d2b>
20005710:	ea5f 5519 	movs.w	r5, r9, lsr #20
20005714:	4682      	mov	sl, r0
20005716:	f040 8098 	bne.w	2000584a <_dtoa_r+0x1ca>
2000571a:	e9dd 8518 	ldrd	r8, r5, [sp, #96]	; 0x60
2000571e:	4445      	add	r5, r8
20005720:	f205 4032 	addw	r0, r5, #1074	; 0x432
20005724:	2820      	cmp	r0, #32
20005726:	f340 8389 	ble.w	20005e3c <_dtoa_r+0x7bc>
2000572a:	f1c0 0340 	rsb	r3, r0, #64	; 0x40
2000572e:	f205 4012 	addw	r0, r5, #1042	; 0x412
20005732:	fa09 f903 	lsl.w	r9, r9, r3
20005736:	fa26 f000 	lsr.w	r0, r6, r0
2000573a:	ea49 0000 	orr.w	r0, r9, r0
2000573e:	f002 f915 	bl	2000796c <__aeabi_ui2d>
20005742:	2201      	movs	r2, #1
20005744:	3d01      	subs	r5, #1
20005746:	9210      	str	r2, [sp, #64]	; 0x40
20005748:	f1a1 71f8 	sub.w	r1, r1, #32505856	; 0x1f00000
2000574c:	2200      	movs	r2, #0
2000574e:	4b52      	ldr	r3, [pc, #328]	; (20005898 <_dtoa_r+0x218>)
20005750:	f001 ffce 	bl	200076f0 <__aeabi_dsub>
20005754:	a348      	add	r3, pc, #288	; (adr r3, 20005878 <_dtoa_r+0x1f8>)
20005756:	e9d3 2300 	ldrd	r2, r3, [r3]
2000575a:	f002 f981 	bl	20007a60 <__aeabi_dmul>
2000575e:	a348      	add	r3, pc, #288	; (adr r3, 20005880 <_dtoa_r+0x200>)
20005760:	e9d3 2300 	ldrd	r2, r3, [r3]
20005764:	f001 ffc6 	bl	200076f4 <__adddf3>
20005768:	4606      	mov	r6, r0
2000576a:	4628      	mov	r0, r5
2000576c:	460f      	mov	r7, r1
2000576e:	f002 f90d 	bl	2000798c <__aeabi_i2d>
20005772:	a345      	add	r3, pc, #276	; (adr r3, 20005888 <_dtoa_r+0x208>)
20005774:	e9d3 2300 	ldrd	r2, r3, [r3]
20005778:	f002 f972 	bl	20007a60 <__aeabi_dmul>
2000577c:	4602      	mov	r2, r0
2000577e:	460b      	mov	r3, r1
20005780:	4630      	mov	r0, r6
20005782:	4639      	mov	r1, r7
20005784:	f001 ffb6 	bl	200076f4 <__adddf3>
20005788:	4606      	mov	r6, r0
2000578a:	460f      	mov	r7, r1
2000578c:	f002 fc18 	bl	20007fc0 <__aeabi_d2iz>
20005790:	2200      	movs	r2, #0
20005792:	4683      	mov	fp, r0
20005794:	2300      	movs	r3, #0
20005796:	4630      	mov	r0, r6
20005798:	4639      	mov	r1, r7
2000579a:	f002 fbd3 	bl	20007f44 <__aeabi_dcmplt>
2000579e:	2800      	cmp	r0, #0
200057a0:	f040 825d 	bne.w	20005c5e <_dtoa_r+0x5de>
200057a4:	f1bb 0f16 	cmp.w	fp, #22
200057a8:	f200 824b 	bhi.w	20005c42 <_dtoa_r+0x5c2>
200057ac:	e9dd 0106 	ldrd	r0, r1, [sp, #24]
200057b0:	4b3a      	ldr	r3, [pc, #232]	; (2000589c <_dtoa_r+0x21c>)
200057b2:	eb03 03cb 	add.w	r3, r3, fp, lsl #3
200057b6:	e9d3 2300 	ldrd	r2, r3, [r3]
200057ba:	f002 fbc3 	bl	20007f44 <__aeabi_dcmplt>
200057be:	2800      	cmp	r0, #0
200057c0:	d072      	beq.n	200058a8 <_dtoa_r+0x228>
200057c2:	2300      	movs	r3, #0
200057c4:	eba8 0505 	sub.w	r5, r8, r5
200057c8:	f1b5 0901 	subs.w	r9, r5, #1
200057cc:	f10b 3bff 	add.w	fp, fp, #4294967295
200057d0:	930d      	str	r3, [sp, #52]	; 0x34
200057d2:	f100 823e 	bmi.w	20005c52 <_dtoa_r+0x5d2>
200057d6:	2300      	movs	r3, #0
200057d8:	9309      	str	r3, [sp, #36]	; 0x24
200057da:	f1bb 0f00 	cmp.w	fp, #0
200057de:	da6b      	bge.n	200058b8 <_dtoa_r+0x238>
200057e0:	9b09      	ldr	r3, [sp, #36]	; 0x24
200057e2:	f8cd b020 	str.w	fp, [sp, #32]
200057e6:	eba3 030b 	sub.w	r3, r3, fp
200057ea:	9309      	str	r3, [sp, #36]	; 0x24
200057ec:	f1cb 0300 	rsb	r3, fp, #0
200057f0:	930c      	str	r3, [sp, #48]	; 0x30
200057f2:	9b24      	ldr	r3, [sp, #144]	; 0x90
200057f4:	f04f 0b00 	mov.w	fp, #0
200057f8:	2b09      	cmp	r3, #9
200057fa:	d865      	bhi.n	200058c8 <_dtoa_r+0x248>
200057fc:	2b05      	cmp	r3, #5
200057fe:	f340 831b 	ble.w	20005e38 <_dtoa_r+0x7b8>
20005802:	2500      	movs	r5, #0
20005804:	3b04      	subs	r3, #4
20005806:	9324      	str	r3, [sp, #144]	; 0x90
20005808:	9b24      	ldr	r3, [sp, #144]	; 0x90
2000580a:	3b02      	subs	r3, #2
2000580c:	2b03      	cmp	r3, #3
2000580e:	f200 8662 	bhi.w	200064d6 <_dtoa_r+0xe56>
20005812:	e8df f013 	tbh	[pc, r3, lsl #1]
20005816:	043b      	.short	0x043b
20005818:	042f0438 	.word	0x042f0438
2000581c:	040f      	.short	0x040f
2000581e:	f242 730f 	movw	r3, #9999	; 0x270f
20005822:	9a26      	ldr	r2, [sp, #152]	; 0x98
20005824:	f3c9 0913 	ubfx	r9, r9, #0, #20
20005828:	6013      	str	r3, [r2, #0]
2000582a:	ea59 0306 	orrs.w	r3, r9, r6
2000582e:	d11c      	bne.n	2000586a <_dtoa_r+0x1ea>
20005830:	9b28      	ldr	r3, [sp, #160]	; 0xa0
20005832:	2b00      	cmp	r3, #0
20005834:	f000 8646 	beq.w	200064c4 <_dtoa_r+0xe44>
20005838:	4b19      	ldr	r3, [pc, #100]	; (200058a0 <_dtoa_r+0x220>)
2000583a:	9303      	str	r3, [sp, #12]
2000583c:	3308      	adds	r3, #8
2000583e:	9a28      	ldr	r2, [sp, #160]	; 0xa0
20005840:	9803      	ldr	r0, [sp, #12]
20005842:	6013      	str	r3, [r2, #0]
20005844:	b01b      	add	sp, #108	; 0x6c
20005846:	e8bd 8ff0 	ldmia.w	sp!, {r4, r5, r6, r7, r8, r9, sl, fp, pc}
2000584a:	e9dd 1206 	ldrd	r1, r2, [sp, #24]
2000584e:	f3c2 0313 	ubfx	r3, r2, #0, #20
20005852:	4608      	mov	r0, r1
20005854:	f043 517f 	orr.w	r1, r3, #1069547520	; 0x3fc00000
20005858:	f8cd 8040 	str.w	r8, [sp, #64]	; 0x40
2000585c:	f2a5 35ff 	subw	r5, r5, #1023	; 0x3ff
20005860:	f8dd 8060 	ldr.w	r8, [sp, #96]	; 0x60
20005864:	f441 1140 	orr.w	r1, r1, #3145728	; 0x300000
20005868:	e770      	b.n	2000574c <_dtoa_r+0xcc>
2000586a:	9b28      	ldr	r3, [sp, #160]	; 0xa0
2000586c:	2b00      	cmp	r3, #0
2000586e:	f040 83d1 	bne.w	20006014 <_dtoa_r+0x994>
20005872:	4b0c      	ldr	r3, [pc, #48]	; (200058a4 <_dtoa_r+0x224>)
20005874:	9303      	str	r3, [sp, #12]
20005876:	e73e      	b.n	200056f6 <_dtoa_r+0x76>
20005878:	636f4361 	.word	0x636f4361
2000587c:	3fd287a7 	.word	0x3fd287a7
20005880:	8b60c8b3 	.word	0x8b60c8b3
20005884:	3fc68a28 	.word	0x3fc68a28
20005888:	509f79fb 	.word	0x509f79fb
2000588c:	3fd34413 	.word	0x3fd34413
20005890:	7ff00000 	.word	0x7ff00000
20005894:	200086ed 	.word	0x200086ed
20005898:	3ff80000 	.word	0x3ff80000
2000589c:	20008748 	.word	0x20008748
200058a0:	20008714 	.word	0x20008714
200058a4:	20008710 	.word	0x20008710
200058a8:	eba8 0505 	sub.w	r5, r8, r5
200058ac:	f1b5 0901 	subs.w	r9, r5, #1
200058b0:	f100 8496 	bmi.w	200061e0 <_dtoa_r+0xb60>
200058b4:	900d      	str	r0, [sp, #52]	; 0x34
200058b6:	9009      	str	r0, [sp, #36]	; 0x24
200058b8:	2300      	movs	r3, #0
200058ba:	930c      	str	r3, [sp, #48]	; 0x30
200058bc:	9b24      	ldr	r3, [sp, #144]	; 0x90
200058be:	44d9      	add	r9, fp
200058c0:	2b09      	cmp	r3, #9
200058c2:	f8cd b020 	str.w	fp, [sp, #32]
200058c6:	d999      	bls.n	200057fc <_dtoa_r+0x17c>
200058c8:	f04f 36ff 	mov.w	r6, #4294967295
200058cc:	2501      	movs	r5, #1
200058ce:	2300      	movs	r3, #0
200058d0:	e9cd 650a 	strd	r6, r5, [sp, #40]	; 0x28
200058d4:	9324      	str	r3, [sp, #144]	; 0x90
200058d6:	9325      	str	r3, [sp, #148]	; 0x94
200058d8:	2100      	movs	r1, #0
200058da:	9611      	str	r6, [sp, #68]	; 0x44
200058dc:	6461      	str	r1, [r4, #68]	; 0x44
200058de:	4620      	mov	r0, r4
200058e0:	f000 ffc8 	bl	20006874 <_Balloc>
200058e4:	2e0e      	cmp	r6, #14
200058e6:	9003      	str	r0, [sp, #12]
200058e8:	6420      	str	r0, [r4, #64]	; 0x40
200058ea:	f200 80f2 	bhi.w	20005ad2 <_dtoa_r+0x452>
200058ee:	2d00      	cmp	r5, #0
200058f0:	f000 80ef 	beq.w	20005ad2 <_dtoa_r+0x452>
200058f4:	9908      	ldr	r1, [sp, #32]
200058f6:	2900      	cmp	r1, #0
200058f8:	f340 8440 	ble.w	2000617c <_dtoa_r+0xafc>
200058fc:	4bb9      	ldr	r3, [pc, #740]	; (20005be4 <_dtoa_r+0x564>)
200058fe:	f001 020f 	and.w	r2, r1, #15
20005902:	eb03 03c2 	add.w	r3, r3, r2, lsl #3
20005906:	05ca      	lsls	r2, r1, #23
20005908:	ea4f 1521 	mov.w	r5, r1, asr #4
2000590c:	e9d3 6700 	ldrd	r6, r7, [r3]
20005910:	f140 83db 	bpl.w	200060ca <_dtoa_r+0xa4a>
20005914:	e9dd 0106 	ldrd	r0, r1, [sp, #24]
20005918:	4bb3      	ldr	r3, [pc, #716]	; (20005be8 <_dtoa_r+0x568>)
2000591a:	f005 050f 	and.w	r5, r5, #15
2000591e:	e9d3 2308 	ldrd	r2, r3, [r3, #32]
20005922:	f002 f9c7 	bl	20007cb4 <__aeabi_ddiv>
20005926:	2303      	movs	r3, #3
20005928:	e9cd 0112 	strd	r0, r1, [sp, #72]	; 0x48
2000592c:	930e      	str	r3, [sp, #56]	; 0x38
2000592e:	b1a5      	cbz	r5, 2000595a <_dtoa_r+0x2da>
20005930:	9414      	str	r4, [sp, #80]	; 0x50
20005932:	f8df 82b4 	ldr.w	r8, [pc, #692]	; 20005be8 <_dtoa_r+0x568>
20005936:	9c0e      	ldr	r4, [sp, #56]	; 0x38
20005938:	07eb      	lsls	r3, r5, #31
2000593a:	d508      	bpl.n	2000594e <_dtoa_r+0x2ce>
2000593c:	e9d8 2300 	ldrd	r2, r3, [r8]
20005940:	4630      	mov	r0, r6
20005942:	4639      	mov	r1, r7
20005944:	f002 f88c 	bl	20007a60 <__aeabi_dmul>
20005948:	4606      	mov	r6, r0
2000594a:	460f      	mov	r7, r1
2000594c:	3401      	adds	r4, #1
2000594e:	106d      	asrs	r5, r5, #1
20005950:	f108 0808 	add.w	r8, r8, #8
20005954:	d1f0      	bne.n	20005938 <_dtoa_r+0x2b8>
20005956:	940e      	str	r4, [sp, #56]	; 0x38
20005958:	9c14      	ldr	r4, [sp, #80]	; 0x50
2000595a:	463b      	mov	r3, r7
2000595c:	e9dd 0112 	ldrd	r0, r1, [sp, #72]	; 0x48
20005960:	4632      	mov	r2, r6
20005962:	f002 f9a7 	bl	20007cb4 <__aeabi_ddiv>
20005966:	4607      	mov	r7, r0
20005968:	4688      	mov	r8, r1
2000596a:	9b0d      	ldr	r3, [sp, #52]	; 0x34
2000596c:	b143      	cbz	r3, 20005980 <_dtoa_r+0x300>
2000596e:	2200      	movs	r2, #0
20005970:	4638      	mov	r0, r7
20005972:	4641      	mov	r1, r8
20005974:	4b9d      	ldr	r3, [pc, #628]	; (20005bec <_dtoa_r+0x56c>)
20005976:	f002 fae5 	bl	20007f44 <__aeabi_dcmplt>
2000597a:	2800      	cmp	r0, #0
2000597c:	f040 852e 	bne.w	200063dc <_dtoa_r+0xd5c>
20005980:	980e      	ldr	r0, [sp, #56]	; 0x38
20005982:	f002 f803 	bl	2000798c <__aeabi_i2d>
20005986:	463a      	mov	r2, r7
20005988:	4643      	mov	r3, r8
2000598a:	f002 f869 	bl	20007a60 <__aeabi_dmul>
2000598e:	4b98      	ldr	r3, [pc, #608]	; (20005bf0 <_dtoa_r+0x570>)
20005990:	2200      	movs	r2, #0
20005992:	f001 feaf 	bl	200076f4 <__adddf3>
20005996:	f1a1 7350 	sub.w	r3, r1, #54525952	; 0x3400000
2000599a:	e9cd 010e 	strd	r0, r1, [sp, #56]	; 0x38
2000599e:	930f      	str	r3, [sp, #60]	; 0x3c
200059a0:	9b0a      	ldr	r3, [sp, #40]	; 0x28
200059a2:	2b00      	cmp	r3, #0
200059a4:	f000 83cc 	beq.w	20006140 <_dtoa_r+0xac0>
200059a8:	9b08      	ldr	r3, [sp, #32]
200059aa:	9314      	str	r3, [sp, #80]	; 0x50
200059ac:	9b0a      	ldr	r3, [sp, #40]	; 0x28
200059ae:	9312      	str	r3, [sp, #72]	; 0x48
200059b0:	9b0b      	ldr	r3, [sp, #44]	; 0x2c
200059b2:	2b00      	cmp	r3, #0
200059b4:	f000 8496 	beq.w	200062e4 <_dtoa_r+0xc64>
200059b8:	9a12      	ldr	r2, [sp, #72]	; 0x48
200059ba:	4b8a      	ldr	r3, [pc, #552]	; (20005be4 <_dtoa_r+0x564>)
200059bc:	2000      	movs	r0, #0
200059be:	eb03 03c2 	add.w	r3, r3, r2, lsl #3
200059c2:	e953 2302 	ldrd	r2, r3, [r3, #-8]
200059c6:	498b      	ldr	r1, [pc, #556]	; (20005bf4 <_dtoa_r+0x574>)
200059c8:	f002 f974 	bl	20007cb4 <__aeabi_ddiv>
200059cc:	e9dd 230e 	ldrd	r2, r3, [sp, #56]	; 0x38
200059d0:	f001 fe8e 	bl	200076f0 <__aeabi_dsub>
200059d4:	4602      	mov	r2, r0
200059d6:	460b      	mov	r3, r1
200059d8:	4638      	mov	r0, r7
200059da:	4641      	mov	r1, r8
200059dc:	e9cd 230e 	strd	r2, r3, [sp, #56]	; 0x38
200059e0:	f002 faee 	bl	20007fc0 <__aeabi_d2iz>
200059e4:	9015      	str	r0, [sp, #84]	; 0x54
200059e6:	f001 ffd1 	bl	2000798c <__aeabi_i2d>
200059ea:	4602      	mov	r2, r0
200059ec:	460b      	mov	r3, r1
200059ee:	4638      	mov	r0, r7
200059f0:	4641      	mov	r1, r8
200059f2:	f001 fe7d 	bl	200076f0 <__aeabi_dsub>
200059f6:	9b15      	ldr	r3, [sp, #84]	; 0x54
200059f8:	9d03      	ldr	r5, [sp, #12]
200059fa:	3330      	adds	r3, #48	; 0x30
200059fc:	4606      	mov	r6, r0
200059fe:	460f      	mov	r7, r1
20005a00:	4602      	mov	r2, r0
20005a02:	f805 3b01 	strb.w	r3, [r5], #1
20005a06:	460b      	mov	r3, r1
20005a08:	e9dd 010e 	ldrd	r0, r1, [sp, #56]	; 0x38
20005a0c:	f002 fab8 	bl	20007f80 <__aeabi_dcmpgt>
20005a10:	2800      	cmp	r0, #0
20005a12:	f040 8524 	bne.w	2000645e <_dtoa_r+0xdde>
20005a16:	2300      	movs	r3, #0
20005a18:	e9cd b916 	strd	fp, r9, [sp, #88]	; 0x58
20005a1c:	f8cd a054 	str.w	sl, [sp, #84]	; 0x54
20005a20:	4698      	mov	r8, r3
20005a22:	e9dd ab0e 	ldrd	sl, fp, [sp, #56]	; 0x38
20005a26:	f8dd 9048 	ldr.w	r9, [sp, #72]	; 0x48
20005a2a:	940e      	str	r4, [sp, #56]	; 0x38
20005a2c:	e028      	b.n	20005a80 <_dtoa_r+0x400>
20005a2e:	45c8      	cmp	r8, r9
20005a30:	da4a      	bge.n	20005ac8 <_dtoa_r+0x448>
20005a32:	4650      	mov	r0, sl
20005a34:	4659      	mov	r1, fp
20005a36:	2200      	movs	r2, #0
20005a38:	4b6f      	ldr	r3, [pc, #444]	; (20005bf8 <_dtoa_r+0x578>)
20005a3a:	f002 f811 	bl	20007a60 <__aeabi_dmul>
20005a3e:	2200      	movs	r2, #0
20005a40:	4b6d      	ldr	r3, [pc, #436]	; (20005bf8 <_dtoa_r+0x578>)
20005a42:	4682      	mov	sl, r0
20005a44:	468b      	mov	fp, r1
20005a46:	4630      	mov	r0, r6
20005a48:	4639      	mov	r1, r7
20005a4a:	f002 f809 	bl	20007a60 <__aeabi_dmul>
20005a4e:	460f      	mov	r7, r1
20005a50:	4606      	mov	r6, r0
20005a52:	f002 fab5 	bl	20007fc0 <__aeabi_d2iz>
20005a56:	4604      	mov	r4, r0
20005a58:	f001 ff98 	bl	2000798c <__aeabi_i2d>
20005a5c:	4602      	mov	r2, r0
20005a5e:	460b      	mov	r3, r1
20005a60:	4630      	mov	r0, r6
20005a62:	4639      	mov	r1, r7
20005a64:	f001 fe44 	bl	200076f0 <__aeabi_dsub>
20005a68:	3430      	adds	r4, #48	; 0x30
20005a6a:	4652      	mov	r2, sl
20005a6c:	465b      	mov	r3, fp
20005a6e:	f805 4b01 	strb.w	r4, [r5], #1
20005a72:	4606      	mov	r6, r0
20005a74:	460f      	mov	r7, r1
20005a76:	f002 fa65 	bl	20007f44 <__aeabi_dcmplt>
20005a7a:	2800      	cmp	r0, #0
20005a7c:	f040 84ec 	bne.w	20006458 <_dtoa_r+0xdd8>
20005a80:	4632      	mov	r2, r6
20005a82:	463b      	mov	r3, r7
20005a84:	2000      	movs	r0, #0
20005a86:	4959      	ldr	r1, [pc, #356]	; (20005bec <_dtoa_r+0x56c>)
20005a88:	f001 fe32 	bl	200076f0 <__aeabi_dsub>
20005a8c:	4652      	mov	r2, sl
20005a8e:	465b      	mov	r3, fp
20005a90:	f002 fa58 	bl	20007f44 <__aeabi_dcmplt>
20005a94:	f108 0801 	add.w	r8, r8, #1
20005a98:	2800      	cmp	r0, #0
20005a9a:	d0c8      	beq.n	20005a2e <_dtoa_r+0x3ae>
20005a9c:	9b14      	ldr	r3, [sp, #80]	; 0x50
20005a9e:	f8dd a054 	ldr.w	sl, [sp, #84]	; 0x54
20005aa2:	9c0e      	ldr	r4, [sp, #56]	; 0x38
20005aa4:	9a03      	ldr	r2, [sp, #12]
20005aa6:	9308      	str	r3, [sp, #32]
20005aa8:	e002      	b.n	20005ab0 <_dtoa_r+0x430>
20005aaa:	4295      	cmp	r5, r2
20005aac:	f000 84be 	beq.w	2000642c <_dtoa_r+0xdac>
20005ab0:	46a9      	mov	r9, r5
20005ab2:	f815 3d01 	ldrb.w	r3, [r5, #-1]!
20005ab6:	2b39      	cmp	r3, #57	; 0x39
20005ab8:	d0f7      	beq.n	20005aaa <_dtoa_r+0x42a>
20005aba:	3301      	adds	r3, #1
20005abc:	b2db      	uxtb	r3, r3
20005abe:	702b      	strb	r3, [r5, #0]
20005ac0:	9b08      	ldr	r3, [sp, #32]
20005ac2:	3301      	adds	r3, #1
20005ac4:	9308      	str	r3, [sp, #32]
20005ac6:	e1a0      	b.n	20005e0a <_dtoa_r+0x78a>
20005ac8:	f8dd a054 	ldr.w	sl, [sp, #84]	; 0x54
20005acc:	9c0e      	ldr	r4, [sp, #56]	; 0x38
20005ace:	e9dd b916 	ldrd	fp, r9, [sp, #88]	; 0x58
20005ad2:	9b19      	ldr	r3, [sp, #100]	; 0x64
20005ad4:	2b00      	cmp	r3, #0
20005ad6:	f2c0 8093 	blt.w	20005c00 <_dtoa_r+0x580>
20005ada:	9a08      	ldr	r2, [sp, #32]
20005adc:	2a0e      	cmp	r2, #14
20005ade:	f300 808f 	bgt.w	20005c00 <_dtoa_r+0x580>
20005ae2:	4b40      	ldr	r3, [pc, #256]	; (20005be4 <_dtoa_r+0x564>)
20005ae4:	eb03 03c2 	add.w	r3, r3, r2, lsl #3
20005ae8:	e9d3 2300 	ldrd	r2, r3, [r3]
20005aec:	e9cd 2304 	strd	r2, r3, [sp, #16]
20005af0:	9b25      	ldr	r3, [sp, #148]	; 0x94
20005af2:	2b00      	cmp	r3, #0
20005af4:	da1a      	bge.n	20005b2c <_dtoa_r+0x4ac>
20005af6:	9b0a      	ldr	r3, [sp, #40]	; 0x28
20005af8:	2b00      	cmp	r3, #0
20005afa:	dc17      	bgt.n	20005b2c <_dtoa_r+0x4ac>
20005afc:	f040 84a7 	bne.w	2000644e <_dtoa_r+0xdce>
20005b00:	e9dd 0104 	ldrd	r0, r1, [sp, #16]
20005b04:	2200      	movs	r2, #0
20005b06:	4b3d      	ldr	r3, [pc, #244]	; (20005bfc <_dtoa_r+0x57c>)
20005b08:	f001 ffaa 	bl	20007a60 <__aeabi_dmul>
20005b0c:	4602      	mov	r2, r0
20005b0e:	460b      	mov	r3, r1
20005b10:	e9dd 0106 	ldrd	r0, r1, [sp, #24]
20005b14:	f002 fa20 	bl	20007f58 <__aeabi_dcmple>
20005b18:	f8dd 8028 	ldr.w	r8, [sp, #40]	; 0x28
20005b1c:	4645      	mov	r5, r8
20005b1e:	2800      	cmp	r0, #0
20005b20:	f000 8241 	beq.w	20005fa6 <_dtoa_r+0x926>
20005b24:	9b25      	ldr	r3, [sp, #148]	; 0x94
20005b26:	9f03      	ldr	r7, [sp, #12]
20005b28:	43de      	mvns	r6, r3
20005b2a:	e244      	b.n	20005fb6 <_dtoa_r+0x936>
20005b2c:	e9dd 6704 	ldrd	r6, r7, [sp, #16]
20005b30:	e9dd 0106 	ldrd	r0, r1, [sp, #24]
20005b34:	4632      	mov	r2, r6
20005b36:	463b      	mov	r3, r7
20005b38:	f002 f8bc 	bl	20007cb4 <__aeabi_ddiv>
20005b3c:	f002 fa40 	bl	20007fc0 <__aeabi_d2iz>
20005b40:	4680      	mov	r8, r0
20005b42:	f001 ff23 	bl	2000798c <__aeabi_i2d>
20005b46:	4632      	mov	r2, r6
20005b48:	463b      	mov	r3, r7
20005b4a:	f001 ff89 	bl	20007a60 <__aeabi_dmul>
20005b4e:	460b      	mov	r3, r1
20005b50:	4602      	mov	r2, r0
20005b52:	e9dd 0106 	ldrd	r0, r1, [sp, #24]
20005b56:	f001 fdcb 	bl	200076f0 <__aeabi_dsub>
20005b5a:	9d03      	ldr	r5, [sp, #12]
20005b5c:	f108 0330 	add.w	r3, r8, #48	; 0x30
20005b60:	f805 3b01 	strb.w	r3, [r5], #1
20005b64:	9b0a      	ldr	r3, [sp, #40]	; 0x28
20005b66:	2b01      	cmp	r3, #1
20005b68:	f000 8371 	beq.w	2000624e <_dtoa_r+0xbce>
20005b6c:	f8cd a018 	str.w	sl, [sp, #24]
20005b70:	f04f 0901 	mov.w	r9, #1
20005b74:	46aa      	mov	sl, r5
20005b76:	469b      	mov	fp, r3
20005b78:	9409      	str	r4, [sp, #36]	; 0x24
20005b7a:	e01b      	b.n	20005bb4 <_dtoa_r+0x534>
20005b7c:	4632      	mov	r2, r6
20005b7e:	463b      	mov	r3, r7
20005b80:	4620      	mov	r0, r4
20005b82:	4629      	mov	r1, r5
20005b84:	f002 f896 	bl	20007cb4 <__aeabi_ddiv>
20005b88:	f002 fa1a 	bl	20007fc0 <__aeabi_d2iz>
20005b8c:	4680      	mov	r8, r0
20005b8e:	f001 fefd 	bl	2000798c <__aeabi_i2d>
20005b92:	4632      	mov	r2, r6
20005b94:	463b      	mov	r3, r7
20005b96:	f001 ff63 	bl	20007a60 <__aeabi_dmul>
20005b9a:	460b      	mov	r3, r1
20005b9c:	4602      	mov	r2, r0
20005b9e:	4629      	mov	r1, r5
20005ba0:	4620      	mov	r0, r4
20005ba2:	f001 fda5 	bl	200076f0 <__aeabi_dsub>
20005ba6:	f108 0330 	add.w	r3, r8, #48	; 0x30
20005baa:	45d9      	cmp	r9, fp
20005bac:	f80a 3b01 	strb.w	r3, [sl], #1
20005bb0:	f000 8349 	beq.w	20006246 <_dtoa_r+0xbc6>
20005bb4:	2200      	movs	r2, #0
20005bb6:	4b10      	ldr	r3, [pc, #64]	; (20005bf8 <_dtoa_r+0x578>)
20005bb8:	f001 ff52 	bl	20007a60 <__aeabi_dmul>
20005bbc:	2200      	movs	r2, #0
20005bbe:	2300      	movs	r3, #0
20005bc0:	4604      	mov	r4, r0
20005bc2:	460d      	mov	r5, r1
20005bc4:	f002 f9b4 	bl	20007f30 <__aeabi_dcmpeq>
20005bc8:	f109 0901 	add.w	r9, r9, #1
20005bcc:	2800      	cmp	r0, #0
20005bce:	d0d5      	beq.n	20005b7c <_dtoa_r+0x4fc>
20005bd0:	4655      	mov	r5, sl
20005bd2:	9c09      	ldr	r4, [sp, #36]	; 0x24
20005bd4:	f8dd a018 	ldr.w	sl, [sp, #24]
20005bd8:	9b08      	ldr	r3, [sp, #32]
20005bda:	46a9      	mov	r9, r5
20005bdc:	3301      	adds	r3, #1
20005bde:	9308      	str	r3, [sp, #32]
20005be0:	e113      	b.n	20005e0a <_dtoa_r+0x78a>
20005be2:	bf00      	nop
20005be4:	20008748 	.word	0x20008748
20005be8:	20008720 	.word	0x20008720
20005bec:	3ff00000 	.word	0x3ff00000
20005bf0:	401c0000 	.word	0x401c0000
20005bf4:	3fe00000 	.word	0x3fe00000
20005bf8:	40240000 	.word	0x40240000
20005bfc:	40140000 	.word	0x40140000
20005c00:	9a0b      	ldr	r2, [sp, #44]	; 0x2c
20005c02:	2a00      	cmp	r2, #0
20005c04:	d03e      	beq.n	20005c84 <_dtoa_r+0x604>
20005c06:	9a24      	ldr	r2, [sp, #144]	; 0x90
20005c08:	2a01      	cmp	r2, #1
20005c0a:	f340 827c 	ble.w	20006106 <_dtoa_r+0xa86>
20005c0e:	9b0a      	ldr	r3, [sp, #40]	; 0x28
20005c10:	1e5f      	subs	r7, r3, #1
20005c12:	9b0c      	ldr	r3, [sp, #48]	; 0x30
20005c14:	42bb      	cmp	r3, r7
20005c16:	f280 8256 	bge.w	200060c6 <_dtoa_r+0xa46>
20005c1a:	9b0c      	ldr	r3, [sp, #48]	; 0x30
20005c1c:	970c      	str	r7, [sp, #48]	; 0x30
20005c1e:	1afb      	subs	r3, r7, r3
20005c20:	2700      	movs	r7, #0
20005c22:	449b      	add	fp, r3
20005c24:	9b0a      	ldr	r3, [sp, #40]	; 0x28
20005c26:	2b00      	cmp	r3, #0
20005c28:	f2c0 833f 	blt.w	200062aa <_dtoa_r+0xc2a>
20005c2c:	9a09      	ldr	r2, [sp, #36]	; 0x24
20005c2e:	4499      	add	r9, r3
20005c30:	4616      	mov	r6, r2
20005c32:	441a      	add	r2, r3
20005c34:	9209      	str	r2, [sp, #36]	; 0x24
20005c36:	2101      	movs	r1, #1
20005c38:	4620      	mov	r0, r4
20005c3a:	f000 fed9 	bl	200069f0 <__i2b>
20005c3e:	4605      	mov	r5, r0
20005c40:	e023      	b.n	20005c8a <_dtoa_r+0x60a>
20005c42:	2301      	movs	r3, #1
20005c44:	eba8 0505 	sub.w	r5, r8, r5
20005c48:	f1b5 0901 	subs.w	r9, r5, #1
20005c4c:	930d      	str	r3, [sp, #52]	; 0x34
20005c4e:	f57f adc2 	bpl.w	200057d6 <_dtoa_r+0x156>
20005c52:	f1c5 0301 	rsb	r3, r5, #1
20005c56:	f04f 0900 	mov.w	r9, #0
20005c5a:	9309      	str	r3, [sp, #36]	; 0x24
20005c5c:	e5bd      	b.n	200057da <_dtoa_r+0x15a>
20005c5e:	4658      	mov	r0, fp
20005c60:	f001 fe94 	bl	2000798c <__aeabi_i2d>
20005c64:	4632      	mov	r2, r6
20005c66:	463b      	mov	r3, r7
20005c68:	f002 f962 	bl	20007f30 <__aeabi_dcmpeq>
20005c6c:	2800      	cmp	r0, #0
20005c6e:	f47f ad99 	bne.w	200057a4 <_dtoa_r+0x124>
20005c72:	f10b 3bff 	add.w	fp, fp, #4294967295
20005c76:	e595      	b.n	200057a4 <_dtoa_r+0x124>
20005c78:	4bbf      	ldr	r3, [pc, #764]	; (20005f78 <_dtoa_r+0x8f8>)
20005c7a:	9303      	str	r3, [sp, #12]
20005c7c:	9803      	ldr	r0, [sp, #12]
20005c7e:	b01b      	add	sp, #108	; 0x6c
20005c80:	e8bd 8ff0 	ldmia.w	sp!, {r4, r5, r6, r7, r8, r9, sl, fp, pc}
20005c84:	9f0c      	ldr	r7, [sp, #48]	; 0x30
20005c86:	9e09      	ldr	r6, [sp, #36]	; 0x24
20005c88:	9d0b      	ldr	r5, [sp, #44]	; 0x2c
20005c8a:	2e00      	cmp	r6, #0
20005c8c:	dd0c      	ble.n	20005ca8 <_dtoa_r+0x628>
20005c8e:	f1b9 0f00 	cmp.w	r9, #0
20005c92:	dd09      	ble.n	20005ca8 <_dtoa_r+0x628>
20005c94:	454e      	cmp	r6, r9
20005c96:	4633      	mov	r3, r6
20005c98:	bfa8      	it	ge
20005c9a:	464b      	movge	r3, r9
20005c9c:	9a09      	ldr	r2, [sp, #36]	; 0x24
20005c9e:	1af6      	subs	r6, r6, r3
20005ca0:	1ad2      	subs	r2, r2, r3
20005ca2:	9209      	str	r2, [sp, #36]	; 0x24
20005ca4:	eba9 0903 	sub.w	r9, r9, r3
20005ca8:	9b0c      	ldr	r3, [sp, #48]	; 0x30
20005caa:	b1d3      	cbz	r3, 20005ce2 <_dtoa_r+0x662>
20005cac:	9b0b      	ldr	r3, [sp, #44]	; 0x2c
20005cae:	2b00      	cmp	r3, #0
20005cb0:	f000 81a9 	beq.w	20006006 <_dtoa_r+0x986>
20005cb4:	2f00      	cmp	r7, #0
20005cb6:	dd10      	ble.n	20005cda <_dtoa_r+0x65a>
20005cb8:	4629      	mov	r1, r5
20005cba:	463a      	mov	r2, r7
20005cbc:	4620      	mov	r0, r4
20005cbe:	f000 ff43 	bl	20006b48 <__pow5mult>
20005cc2:	4652      	mov	r2, sl
20005cc4:	4601      	mov	r1, r0
20005cc6:	4605      	mov	r5, r0
20005cc8:	4620      	mov	r0, r4
20005cca:	f000 fe9b 	bl	20006a04 <__multiply>
20005cce:	4603      	mov	r3, r0
20005cd0:	4651      	mov	r1, sl
20005cd2:	4620      	mov	r0, r4
20005cd4:	469a      	mov	sl, r3
20005cd6:	f000 fdf3 	bl	200068c0 <_Bfree>
20005cda:	9b0c      	ldr	r3, [sp, #48]	; 0x30
20005cdc:	1bda      	subs	r2, r3, r7
20005cde:	f040 8193 	bne.w	20006008 <_dtoa_r+0x988>
20005ce2:	2101      	movs	r1, #1
20005ce4:	4620      	mov	r0, r4
20005ce6:	f000 fe83 	bl	200069f0 <__i2b>
20005cea:	f1bb 0f00 	cmp.w	fp, #0
20005cee:	4680      	mov	r8, r0
20005cf0:	f300 80a9 	bgt.w	20005e46 <_dtoa_r+0x7c6>
20005cf4:	9b24      	ldr	r3, [sp, #144]	; 0x90
20005cf6:	2b01      	cmp	r3, #1
20005cf8:	f340 8190 	ble.w	2000601c <_dtoa_r+0x99c>
20005cfc:	2700      	movs	r7, #0
20005cfe:	2001      	movs	r0, #1
20005d00:	f1bb 0f00 	cmp.w	fp, #0
20005d04:	f040 80aa 	bne.w	20005e5c <_dtoa_r+0x7dc>
20005d08:	4448      	add	r0, r9
20005d0a:	f010 001f 	ands.w	r0, r0, #31
20005d0e:	f000 8091 	beq.w	20005e34 <_dtoa_r+0x7b4>
20005d12:	f1c0 0320 	rsb	r3, r0, #32
20005d16:	2b04      	cmp	r3, #4
20005d18:	f340 83d8 	ble.w	200064cc <_dtoa_r+0xe4c>
20005d1c:	f1c0 001c 	rsb	r0, r0, #28
20005d20:	9b09      	ldr	r3, [sp, #36]	; 0x24
20005d22:	4406      	add	r6, r0
20005d24:	4403      	add	r3, r0
20005d26:	9309      	str	r3, [sp, #36]	; 0x24
20005d28:	4481      	add	r9, r0
20005d2a:	9b09      	ldr	r3, [sp, #36]	; 0x24
20005d2c:	2b00      	cmp	r3, #0
20005d2e:	dd05      	ble.n	20005d3c <_dtoa_r+0x6bc>
20005d30:	4651      	mov	r1, sl
20005d32:	461a      	mov	r2, r3
20005d34:	4620      	mov	r0, r4
20005d36:	f000 ff57 	bl	20006be8 <__lshift>
20005d3a:	4682      	mov	sl, r0
20005d3c:	f1b9 0f00 	cmp.w	r9, #0
20005d40:	dd05      	ble.n	20005d4e <_dtoa_r+0x6ce>
20005d42:	4641      	mov	r1, r8
20005d44:	464a      	mov	r2, r9
20005d46:	4620      	mov	r0, r4
20005d48:	f000 ff4e 	bl	20006be8 <__lshift>
20005d4c:	4680      	mov	r8, r0
20005d4e:	9b0d      	ldr	r3, [sp, #52]	; 0x34
20005d50:	2b00      	cmp	r3, #0
20005d52:	f040 813d 	bne.w	20005fd0 <_dtoa_r+0x950>
20005d56:	9b0a      	ldr	r3, [sp, #40]	; 0x28
20005d58:	2b00      	cmp	r3, #0
20005d5a:	f340 810f 	ble.w	20005f7c <_dtoa_r+0x8fc>
20005d5e:	9b0b      	ldr	r3, [sp, #44]	; 0x2c
20005d60:	2b00      	cmp	r3, #0
20005d62:	f040 808d 	bne.w	20005e80 <_dtoa_r+0x800>
20005d66:	9b08      	ldr	r3, [sp, #32]
20005d68:	3301      	adds	r3, #1
20005d6a:	9308      	str	r3, [sp, #32]
20005d6c:	2601      	movs	r6, #1
20005d6e:	9f03      	ldr	r7, [sp, #12]
20005d70:	f8dd 9028 	ldr.w	r9, [sp, #40]	; 0x28
20005d74:	e007      	b.n	20005d86 <_dtoa_r+0x706>
20005d76:	4651      	mov	r1, sl
20005d78:	2300      	movs	r3, #0
20005d7a:	220a      	movs	r2, #10
20005d7c:	4620      	mov	r0, r4
20005d7e:	f000 fda9 	bl	200068d4 <__multadd>
20005d82:	4682      	mov	sl, r0
20005d84:	3601      	adds	r6, #1
20005d86:	4641      	mov	r1, r8
20005d88:	4650      	mov	r0, sl
20005d8a:	f7ff fbe7 	bl	2000555c <quorem>
20005d8e:	454e      	cmp	r6, r9
20005d90:	f100 0330 	add.w	r3, r0, #48	; 0x30
20005d94:	f807 3b01 	strb.w	r3, [r7], #1
20005d98:	dbed      	blt.n	20005d76 <_dtoa_r+0x6f6>
20005d9a:	9a0a      	ldr	r2, [sp, #40]	; 0x28
20005d9c:	2600      	movs	r6, #0
20005d9e:	2a00      	cmp	r2, #0
20005da0:	bfcc      	ite	gt
20005da2:	4693      	movgt	fp, r2
20005da4:	f04f 0b01 	movle.w	fp, #1
20005da8:	9a03      	ldr	r2, [sp, #12]
20005daa:	4493      	add	fp, r2
20005dac:	4651      	mov	r1, sl
20005dae:	2201      	movs	r2, #1
20005db0:	4620      	mov	r0, r4
20005db2:	9304      	str	r3, [sp, #16]
20005db4:	f000 ff18 	bl	20006be8 <__lshift>
20005db8:	4641      	mov	r1, r8
20005dba:	4682      	mov	sl, r0
20005dbc:	f000 ff7c 	bl	20006cb8 <__mcmp>
20005dc0:	2800      	cmp	r0, #0
20005dc2:	f340 818e 	ble.w	200060e2 <_dtoa_r+0xa62>
20005dc6:	f81b 3c01 	ldrb.w	r3, [fp, #-1]
20005dca:	9a03      	ldr	r2, [sp, #12]
20005dcc:	f10b 3bff 	add.w	fp, fp, #4294967295
20005dd0:	e004      	b.n	20005ddc <_dtoa_r+0x75c>
20005dd2:	455a      	cmp	r2, fp
20005dd4:	f000 8190 	beq.w	200060f8 <_dtoa_r+0xa78>
20005dd8:	f81b 3d01 	ldrb.w	r3, [fp, #-1]!
20005ddc:	2b39      	cmp	r3, #57	; 0x39
20005dde:	f10b 0901 	add.w	r9, fp, #1
20005de2:	d0f6      	beq.n	20005dd2 <_dtoa_r+0x752>
20005de4:	3301      	adds	r3, #1
20005de6:	f88b 3000 	strb.w	r3, [fp]
20005dea:	4641      	mov	r1, r8
20005dec:	4620      	mov	r0, r4
20005dee:	f000 fd67 	bl	200068c0 <_Bfree>
20005df2:	b155      	cbz	r5, 20005e0a <_dtoa_r+0x78a>
20005df4:	b12e      	cbz	r6, 20005e02 <_dtoa_r+0x782>
20005df6:	42ae      	cmp	r6, r5
20005df8:	d003      	beq.n	20005e02 <_dtoa_r+0x782>
20005dfa:	4631      	mov	r1, r6
20005dfc:	4620      	mov	r0, r4
20005dfe:	f000 fd5f 	bl	200068c0 <_Bfree>
20005e02:	4629      	mov	r1, r5
20005e04:	4620      	mov	r0, r4
20005e06:	f000 fd5b 	bl	200068c0 <_Bfree>
20005e0a:	4651      	mov	r1, sl
20005e0c:	4620      	mov	r0, r4
20005e0e:	f000 fd57 	bl	200068c0 <_Bfree>
20005e12:	2300      	movs	r3, #0
20005e14:	f889 3000 	strb.w	r3, [r9]
20005e18:	9b26      	ldr	r3, [sp, #152]	; 0x98
20005e1a:	461a      	mov	r2, r3
20005e1c:	9b08      	ldr	r3, [sp, #32]
20005e1e:	6013      	str	r3, [r2, #0]
20005e20:	9b28      	ldr	r3, [sp, #160]	; 0xa0
20005e22:	2b00      	cmp	r3, #0
20005e24:	f43f ac67 	beq.w	200056f6 <_dtoa_r+0x76>
20005e28:	9803      	ldr	r0, [sp, #12]
20005e2a:	f8c3 9000 	str.w	r9, [r3]
20005e2e:	b01b      	add	sp, #108	; 0x6c
20005e30:	e8bd 8ff0 	ldmia.w	sp!, {r4, r5, r6, r7, r8, r9, sl, fp, pc}
20005e34:	201c      	movs	r0, #28
20005e36:	e773      	b.n	20005d20 <_dtoa_r+0x6a0>
20005e38:	2501      	movs	r5, #1
20005e3a:	e4e5      	b.n	20005808 <_dtoa_r+0x188>
20005e3c:	f1c0 0020 	rsb	r0, r0, #32
20005e40:	fa06 f000 	lsl.w	r0, r6, r0
20005e44:	e47b      	b.n	2000573e <_dtoa_r+0xbe>
20005e46:	4601      	mov	r1, r0
20005e48:	465a      	mov	r2, fp
20005e4a:	4620      	mov	r0, r4
20005e4c:	f000 fe7c 	bl	20006b48 <__pow5mult>
20005e50:	9b24      	ldr	r3, [sp, #144]	; 0x90
20005e52:	4680      	mov	r8, r0
20005e54:	2b01      	cmp	r3, #1
20005e56:	f340 81c5 	ble.w	200061e4 <_dtoa_r+0xb64>
20005e5a:	2700      	movs	r7, #0
20005e5c:	f8d8 3010 	ldr.w	r3, [r8, #16]
20005e60:	eb08 0383 	add.w	r3, r8, r3, lsl #2
20005e64:	6918      	ldr	r0, [r3, #16]
20005e66:	f000 fd73 	bl	20006950 <__hi0bits>
20005e6a:	f1c0 0020 	rsb	r0, r0, #32
20005e6e:	e74b      	b.n	20005d08 <_dtoa_r+0x688>
20005e70:	9b24      	ldr	r3, [sp, #144]	; 0x90
20005e72:	2b02      	cmp	r3, #2
20005e74:	f300 831d 	bgt.w	200064b2 <_dtoa_r+0xe32>
20005e78:	9b11      	ldr	r3, [sp, #68]	; 0x44
20005e7a:	f8cd 9020 	str.w	r9, [sp, #32]
20005e7e:	930a      	str	r3, [sp, #40]	; 0x28
20005e80:	9b08      	ldr	r3, [sp, #32]
20005e82:	3301      	adds	r3, #1
20005e84:	9308      	str	r3, [sp, #32]
20005e86:	2e00      	cmp	r6, #0
20005e88:	f300 8116 	bgt.w	200060b8 <_dtoa_r+0xa38>
20005e8c:	2f00      	cmp	r7, #0
20005e8e:	f040 81f8 	bne.w	20006282 <_dtoa_r+0xc02>
20005e92:	462f      	mov	r7, r5
20005e94:	9903      	ldr	r1, [sp, #12]
20005e96:	9b04      	ldr	r3, [sp, #16]
20005e98:	460e      	mov	r6, r1
20005e9a:	f003 0201 	and.w	r2, r3, #1
20005e9e:	1e4b      	subs	r3, r1, #1
20005ea0:	9924      	ldr	r1, [sp, #144]	; 0x90
20005ea2:	920c      	str	r2, [sp, #48]	; 0x30
20005ea4:	430a      	orrs	r2, r1
20005ea6:	920b      	str	r2, [sp, #44]	; 0x2c
20005ea8:	9a0a      	ldr	r2, [sp, #40]	; 0x28
20005eaa:	441a      	add	r2, r3
20005eac:	920a      	str	r2, [sp, #40]	; 0x28
20005eae:	4641      	mov	r1, r8
20005eb0:	4650      	mov	r0, sl
20005eb2:	f7ff fb53 	bl	2000555c <quorem>
20005eb6:	4629      	mov	r1, r5
20005eb8:	4683      	mov	fp, r0
20005eba:	4650      	mov	r0, sl
20005ebc:	f000 fefc 	bl	20006cb8 <__mcmp>
20005ec0:	463a      	mov	r2, r7
20005ec2:	4641      	mov	r1, r8
20005ec4:	4681      	mov	r9, r0
20005ec6:	4620      	mov	r0, r4
20005ec8:	f000 ff14 	bl	20006cf4 <__mdiff>
20005ecc:	68c2      	ldr	r2, [r0, #12]
20005ece:	4601      	mov	r1, r0
20005ed0:	f10b 0330 	add.w	r3, fp, #48	; 0x30
20005ed4:	2a00      	cmp	r2, #0
20005ed6:	d142      	bne.n	20005f5e <_dtoa_r+0x8de>
20005ed8:	9006      	str	r0, [sp, #24]
20005eda:	4650      	mov	r0, sl
20005edc:	9309      	str	r3, [sp, #36]	; 0x24
20005ede:	f000 feeb 	bl	20006cb8 <__mcmp>
20005ee2:	9906      	ldr	r1, [sp, #24]
20005ee4:	9004      	str	r0, [sp, #16]
20005ee6:	4620      	mov	r0, r4
20005ee8:	f000 fcea 	bl	200068c0 <_Bfree>
20005eec:	9a04      	ldr	r2, [sp, #16]
20005eee:	9b09      	ldr	r3, [sp, #36]	; 0x24
20005ef0:	b91a      	cbnz	r2, 20005efa <_dtoa_r+0x87a>
20005ef2:	990b      	ldr	r1, [sp, #44]	; 0x2c
20005ef4:	2900      	cmp	r1, #0
20005ef6:	f000 82c2 	beq.w	2000647e <_dtoa_r+0xdfe>
20005efa:	f1b9 0f00 	cmp.w	r9, #0
20005efe:	f2c0 8187 	blt.w	20006210 <_dtoa_r+0xb90>
20005f02:	9924      	ldr	r1, [sp, #144]	; 0x90
20005f04:	ea41 0909 	orr.w	r9, r1, r9
20005f08:	990c      	ldr	r1, [sp, #48]	; 0x30
20005f0a:	ea51 0109 	orrs.w	r1, r1, r9
20005f0e:	f000 817f 	beq.w	20006210 <_dtoa_r+0xb90>
20005f12:	2a00      	cmp	r2, #0
20005f14:	f300 81cd 	bgt.w	200062b2 <_dtoa_r+0xc32>
20005f18:	9a0a      	ldr	r2, [sp, #40]	; 0x28
20005f1a:	f106 0901 	add.w	r9, r6, #1
20005f1e:	42b2      	cmp	r2, r6
20005f20:	46cb      	mov	fp, r9
20005f22:	7033      	strb	r3, [r6, #0]
20005f24:	f000 81cf 	beq.w	200062c6 <_dtoa_r+0xc46>
20005f28:	4651      	mov	r1, sl
20005f2a:	2300      	movs	r3, #0
20005f2c:	220a      	movs	r2, #10
20005f2e:	4620      	mov	r0, r4
20005f30:	f000 fcd0 	bl	200068d4 <__multadd>
20005f34:	42bd      	cmp	r5, r7
20005f36:	4682      	mov	sl, r0
20005f38:	4629      	mov	r1, r5
20005f3a:	f04f 0300 	mov.w	r3, #0
20005f3e:	f04f 020a 	mov.w	r2, #10
20005f42:	4620      	mov	r0, r4
20005f44:	d012      	beq.n	20005f6c <_dtoa_r+0x8ec>
20005f46:	f000 fcc5 	bl	200068d4 <__multadd>
20005f4a:	4639      	mov	r1, r7
20005f4c:	4605      	mov	r5, r0
20005f4e:	2300      	movs	r3, #0
20005f50:	220a      	movs	r2, #10
20005f52:	4620      	mov	r0, r4
20005f54:	f000 fcbe 	bl	200068d4 <__multadd>
20005f58:	464e      	mov	r6, r9
20005f5a:	4607      	mov	r7, r0
20005f5c:	e7a7      	b.n	20005eae <_dtoa_r+0x82e>
20005f5e:	4620      	mov	r0, r4
20005f60:	9304      	str	r3, [sp, #16]
20005f62:	f000 fcad 	bl	200068c0 <_Bfree>
20005f66:	2201      	movs	r2, #1
20005f68:	9b04      	ldr	r3, [sp, #16]
20005f6a:	e7c6      	b.n	20005efa <_dtoa_r+0x87a>
20005f6c:	f000 fcb2 	bl	200068d4 <__multadd>
20005f70:	464e      	mov	r6, r9
20005f72:	4605      	mov	r5, r0
20005f74:	4607      	mov	r7, r0
20005f76:	e79a      	b.n	20005eae <_dtoa_r+0x82e>
20005f78:	200086ec 	.word	0x200086ec
20005f7c:	9b24      	ldr	r3, [sp, #144]	; 0x90
20005f7e:	2b02      	cmp	r3, #2
20005f80:	f340 8087 	ble.w	20006092 <_dtoa_r+0xa12>
20005f84:	9b0a      	ldr	r3, [sp, #40]	; 0x28
20005f86:	2b00      	cmp	r3, #0
20005f88:	f47f adcc 	bne.w	20005b24 <_dtoa_r+0x4a4>
20005f8c:	4641      	mov	r1, r8
20005f8e:	2205      	movs	r2, #5
20005f90:	4620      	mov	r0, r4
20005f92:	f000 fc9f 	bl	200068d4 <__multadd>
20005f96:	4680      	mov	r8, r0
20005f98:	4650      	mov	r0, sl
20005f9a:	4641      	mov	r1, r8
20005f9c:	f000 fe8c 	bl	20006cb8 <__mcmp>
20005fa0:	2800      	cmp	r0, #0
20005fa2:	f77f adbf 	ble.w	20005b24 <_dtoa_r+0x4a4>
20005fa6:	9f03      	ldr	r7, [sp, #12]
20005fa8:	2231      	movs	r2, #49	; 0x31
20005faa:	463b      	mov	r3, r7
20005fac:	9e08      	ldr	r6, [sp, #32]
20005fae:	f803 2b01 	strb.w	r2, [r3], #1
20005fb2:	3601      	adds	r6, #1
20005fb4:	9303      	str	r3, [sp, #12]
20005fb6:	4641      	mov	r1, r8
20005fb8:	4620      	mov	r0, r4
20005fba:	f000 fc81 	bl	200068c0 <_Bfree>
20005fbe:	1c73      	adds	r3, r6, #1
20005fc0:	f8dd 900c 	ldr.w	r9, [sp, #12]
20005fc4:	9308      	str	r3, [sp, #32]
20005fc6:	9703      	str	r7, [sp, #12]
20005fc8:	2d00      	cmp	r5, #0
20005fca:	f47f af1a 	bne.w	20005e02 <_dtoa_r+0x782>
20005fce:	e71c      	b.n	20005e0a <_dtoa_r+0x78a>
20005fd0:	4641      	mov	r1, r8
20005fd2:	4650      	mov	r0, sl
20005fd4:	f000 fe70 	bl	20006cb8 <__mcmp>
20005fd8:	2800      	cmp	r0, #0
20005fda:	f6bf aebc 	bge.w	20005d56 <_dtoa_r+0x6d6>
20005fde:	4651      	mov	r1, sl
20005fe0:	2300      	movs	r3, #0
20005fe2:	220a      	movs	r2, #10
20005fe4:	4620      	mov	r0, r4
20005fe6:	f000 fc75 	bl	200068d4 <__multadd>
20005fea:	9b08      	ldr	r3, [sp, #32]
20005fec:	4682      	mov	sl, r0
20005fee:	f103 39ff 	add.w	r9, r3, #4294967295
20005ff2:	9b0b      	ldr	r3, [sp, #44]	; 0x2c
20005ff4:	2b00      	cmp	r3, #0
20005ff6:	f040 8249 	bne.w	2000648c <_dtoa_r+0xe0c>
20005ffa:	9b11      	ldr	r3, [sp, #68]	; 0x44
20005ffc:	2b00      	cmp	r3, #0
20005ffe:	f340 8252 	ble.w	200064a6 <_dtoa_r+0xe26>
20006002:	930a      	str	r3, [sp, #40]	; 0x28
20006004:	e6b2      	b.n	20005d6c <_dtoa_r+0x6ec>
20006006:	9a0c      	ldr	r2, [sp, #48]	; 0x30
20006008:	4651      	mov	r1, sl
2000600a:	4620      	mov	r0, r4
2000600c:	f000 fd9c 	bl	20006b48 <__pow5mult>
20006010:	4682      	mov	sl, r0
20006012:	e666      	b.n	20005ce2 <_dtoa_r+0x662>
20006014:	4bad      	ldr	r3, [pc, #692]	; (200062cc <_dtoa_r+0xc4c>)
20006016:	9303      	str	r3, [sp, #12]
20006018:	3303      	adds	r3, #3
2000601a:	e410      	b.n	2000583e <_dtoa_r+0x1be>
2000601c:	e9dd 1204 	ldrd	r1, r2, [sp, #16]
20006020:	2900      	cmp	r1, #0
20006022:	f47f ae6b 	bne.w	20005cfc <_dtoa_r+0x67c>
20006026:	f3c2 0313 	ubfx	r3, r2, #0, #20
2000602a:	2b00      	cmp	r3, #0
2000602c:	f000 80e4 	beq.w	200061f8 <_dtoa_r+0xb78>
20006030:	9f04      	ldr	r7, [sp, #16]
20006032:	e664      	b.n	20005cfe <_dtoa_r+0x67e>
20006034:	2301      	movs	r3, #1
20006036:	930b      	str	r3, [sp, #44]	; 0x2c
20006038:	9b25      	ldr	r3, [sp, #148]	; 0x94
2000603a:	9a08      	ldr	r2, [sp, #32]
2000603c:	4413      	add	r3, r2
2000603e:	9311      	str	r3, [sp, #68]	; 0x44
20006040:	3301      	adds	r3, #1
20006042:	2b01      	cmp	r3, #1
20006044:	461e      	mov	r6, r3
20006046:	bfb8      	it	lt
20006048:	2601      	movlt	r6, #1
2000604a:	930a      	str	r3, [sp, #40]	; 0x28
2000604c:	2100      	movs	r1, #0
2000604e:	2e17      	cmp	r6, #23
20006050:	bfd8      	it	le
20006052:	9e0a      	ldrle	r6, [sp, #40]	; 0x28
20006054:	6461      	str	r1, [r4, #68]	; 0x44
20006056:	f77f ac42 	ble.w	200058de <_dtoa_r+0x25e>
2000605a:	2201      	movs	r2, #1
2000605c:	2304      	movs	r3, #4
2000605e:	005b      	lsls	r3, r3, #1
20006060:	f103 0014 	add.w	r0, r3, #20
20006064:	42b0      	cmp	r0, r6
20006066:	4611      	mov	r1, r2
20006068:	f102 0201 	add.w	r2, r2, #1
2000606c:	d9f7      	bls.n	2000605e <_dtoa_r+0x9de>
2000606e:	9e0a      	ldr	r6, [sp, #40]	; 0x28
20006070:	6461      	str	r1, [r4, #68]	; 0x44
20006072:	e434      	b.n	200058de <_dtoa_r+0x25e>
20006074:	2301      	movs	r3, #1
20006076:	930b      	str	r3, [sp, #44]	; 0x2c
20006078:	9b25      	ldr	r3, [sp, #148]	; 0x94
2000607a:	2b00      	cmp	r3, #0
2000607c:	dd2c      	ble.n	200060d8 <_dtoa_r+0xa58>
2000607e:	461e      	mov	r6, r3
20006080:	9311      	str	r3, [sp, #68]	; 0x44
20006082:	930a      	str	r3, [sp, #40]	; 0x28
20006084:	e7e2      	b.n	2000604c <_dtoa_r+0x9cc>
20006086:	2300      	movs	r3, #0
20006088:	930b      	str	r3, [sp, #44]	; 0x2c
2000608a:	e7d5      	b.n	20006038 <_dtoa_r+0x9b8>
2000608c:	2300      	movs	r3, #0
2000608e:	930b      	str	r3, [sp, #44]	; 0x2c
20006090:	e7f2      	b.n	20006078 <_dtoa_r+0x9f8>
20006092:	9b0b      	ldr	r3, [sp, #44]	; 0x2c
20006094:	2b00      	cmp	r3, #0
20006096:	f47f aef3 	bne.w	20005e80 <_dtoa_r+0x800>
2000609a:	4641      	mov	r1, r8
2000609c:	4650      	mov	r0, sl
2000609e:	f7ff fa5d 	bl	2000555c <quorem>
200060a2:	9a08      	ldr	r2, [sp, #32]
200060a4:	f8dd b00c 	ldr.w	fp, [sp, #12]
200060a8:	f100 0330 	add.w	r3, r0, #48	; 0x30
200060ac:	3201      	adds	r2, #1
200060ae:	2600      	movs	r6, #0
200060b0:	9208      	str	r2, [sp, #32]
200060b2:	f80b 3b01 	strb.w	r3, [fp], #1
200060b6:	e679      	b.n	20005dac <_dtoa_r+0x72c>
200060b8:	4629      	mov	r1, r5
200060ba:	4632      	mov	r2, r6
200060bc:	4620      	mov	r0, r4
200060be:	f000 fd93 	bl	20006be8 <__lshift>
200060c2:	4605      	mov	r5, r0
200060c4:	e6e2      	b.n	20005e8c <_dtoa_r+0x80c>
200060c6:	1bdf      	subs	r7, r3, r7
200060c8:	e5ac      	b.n	20005c24 <_dtoa_r+0x5a4>
200060ca:	e9dd 2306 	ldrd	r2, r3, [sp, #24]
200060ce:	e9cd 2312 	strd	r2, r3, [sp, #72]	; 0x48
200060d2:	2302      	movs	r3, #2
200060d4:	930e      	str	r3, [sp, #56]	; 0x38
200060d6:	e42a      	b.n	2000592e <_dtoa_r+0x2ae>
200060d8:	2601      	movs	r6, #1
200060da:	9625      	str	r6, [sp, #148]	; 0x94
200060dc:	960a      	str	r6, [sp, #40]	; 0x28
200060de:	f7ff bbfb 	b.w	200058d8 <_dtoa_r+0x258>
200060e2:	d103      	bne.n	200060ec <_dtoa_r+0xa6c>
200060e4:	9b04      	ldr	r3, [sp, #16]
200060e6:	07db      	lsls	r3, r3, #31
200060e8:	f53f ae6d 	bmi.w	20005dc6 <_dtoa_r+0x746>
200060ec:	46d9      	mov	r9, fp
200060ee:	f81b 3d01 	ldrb.w	r3, [fp, #-1]!
200060f2:	2b30      	cmp	r3, #48	; 0x30
200060f4:	d0fa      	beq.n	200060ec <_dtoa_r+0xa6c>
200060f6:	e678      	b.n	20005dea <_dtoa_r+0x76a>
200060f8:	2331      	movs	r3, #49	; 0x31
200060fa:	9a08      	ldr	r2, [sp, #32]
200060fc:	3201      	adds	r2, #1
200060fe:	9208      	str	r2, [sp, #32]
20006100:	9a03      	ldr	r2, [sp, #12]
20006102:	7013      	strb	r3, [r2, #0]
20006104:	e671      	b.n	20005dea <_dtoa_r+0x76a>
20006106:	9a10      	ldr	r2, [sp, #64]	; 0x40
20006108:	2a00      	cmp	r2, #0
2000610a:	f000 8157 	beq.w	200063bc <_dtoa_r+0xd3c>
2000610e:	9a09      	ldr	r2, [sp, #36]	; 0x24
20006110:	f203 4333 	addw	r3, r3, #1075	; 0x433
20006114:	4616      	mov	r6, r2
20006116:	441a      	add	r2, r3
20006118:	9f0c      	ldr	r7, [sp, #48]	; 0x30
2000611a:	4499      	add	r9, r3
2000611c:	9209      	str	r2, [sp, #36]	; 0x24
2000611e:	e58a      	b.n	20005c36 <_dtoa_r+0x5b6>
20006120:	980e      	ldr	r0, [sp, #56]	; 0x38
20006122:	f001 fc33 	bl	2000798c <__aeabi_i2d>
20006126:	463a      	mov	r2, r7
20006128:	4643      	mov	r3, r8
2000612a:	f001 fc99 	bl	20007a60 <__aeabi_dmul>
2000612e:	4b68      	ldr	r3, [pc, #416]	; (200062d0 <_dtoa_r+0xc50>)
20006130:	2200      	movs	r2, #0
20006132:	f001 fadf 	bl	200076f4 <__adddf3>
20006136:	f1a1 7350 	sub.w	r3, r1, #54525952	; 0x3400000
2000613a:	e9cd 010e 	strd	r0, r1, [sp, #56]	; 0x38
2000613e:	930f      	str	r3, [sp, #60]	; 0x3c
20006140:	4638      	mov	r0, r7
20006142:	4641      	mov	r1, r8
20006144:	2200      	movs	r2, #0
20006146:	4b63      	ldr	r3, [pc, #396]	; (200062d4 <_dtoa_r+0xc54>)
20006148:	f001 fad2 	bl	200076f0 <__aeabi_dsub>
2000614c:	e9dd 230e 	ldrd	r2, r3, [sp, #56]	; 0x38
20006150:	4606      	mov	r6, r0
20006152:	460f      	mov	r7, r1
20006154:	f001 ff14 	bl	20007f80 <__aeabi_dcmpgt>
20006158:	4680      	mov	r8, r0
2000615a:	2800      	cmp	r0, #0
2000615c:	f040 8173 	bne.w	20006446 <_dtoa_r+0xdc6>
20006160:	e9dd 010e 	ldrd	r0, r1, [sp, #56]	; 0x38
20006164:	4602      	mov	r2, r0
20006166:	f101 4300 	add.w	r3, r1, #2147483648	; 0x80000000
2000616a:	4630      	mov	r0, r6
2000616c:	4639      	mov	r1, r7
2000616e:	f001 fee9 	bl	20007f44 <__aeabi_dcmplt>
20006172:	2800      	cmp	r0, #0
20006174:	f43f acad 	beq.w	20005ad2 <_dtoa_r+0x452>
20006178:	4645      	mov	r5, r8
2000617a:	e4d3      	b.n	20005b24 <_dtoa_r+0x4a4>
2000617c:	f000 8128 	beq.w	200063d0 <_dtoa_r+0xd50>
20006180:	e9dd 0106 	ldrd	r0, r1, [sp, #24]
20006184:	9b08      	ldr	r3, [sp, #32]
20006186:	425d      	negs	r5, r3
20006188:	4b53      	ldr	r3, [pc, #332]	; (200062d8 <_dtoa_r+0xc58>)
2000618a:	f005 020f 	and.w	r2, r5, #15
2000618e:	eb03 03c2 	add.w	r3, r3, r2, lsl #3
20006192:	e9d3 2300 	ldrd	r2, r3, [r3]
20006196:	f001 fc63 	bl	20007a60 <__aeabi_dmul>
2000619a:	112d      	asrs	r5, r5, #4
2000619c:	4607      	mov	r7, r0
2000619e:	4688      	mov	r8, r1
200061a0:	f000 818c 	beq.w	200064bc <_dtoa_r+0xe3c>
200061a4:	2202      	movs	r2, #2
200061a6:	e9cd 7812 	strd	r7, r8, [sp, #72]	; 0x48
200061aa:	2300      	movs	r3, #0
200061ac:	46a0      	mov	r8, r4
200061ae:	4614      	mov	r4, r2
200061b0:	4e4a      	ldr	r6, [pc, #296]	; (200062dc <_dtoa_r+0xc5c>)
200061b2:	07ef      	lsls	r7, r5, #31
200061b4:	d505      	bpl.n	200061c2 <_dtoa_r+0xb42>
200061b6:	e9d6 2300 	ldrd	r2, r3, [r6]
200061ba:	f001 fc51 	bl	20007a60 <__aeabi_dmul>
200061be:	2301      	movs	r3, #1
200061c0:	441c      	add	r4, r3
200061c2:	106d      	asrs	r5, r5, #1
200061c4:	f106 0608 	add.w	r6, r6, #8
200061c8:	d1f3      	bne.n	200061b2 <_dtoa_r+0xb32>
200061ca:	940e      	str	r4, [sp, #56]	; 0x38
200061cc:	4644      	mov	r4, r8
200061ce:	e9dd 7812 	ldrd	r7, r8, [sp, #72]	; 0x48
200061d2:	2b00      	cmp	r3, #0
200061d4:	f43f abc9 	beq.w	2000596a <_dtoa_r+0x2ea>
200061d8:	4607      	mov	r7, r0
200061da:	4688      	mov	r8, r1
200061dc:	f7ff bbc5 	b.w	2000596a <_dtoa_r+0x2ea>
200061e0:	900d      	str	r0, [sp, #52]	; 0x34
200061e2:	e536      	b.n	20005c52 <_dtoa_r+0x5d2>
200061e4:	e9dd 1204 	ldrd	r1, r2, [sp, #16]
200061e8:	2900      	cmp	r1, #0
200061ea:	f47f ae36 	bne.w	20005e5a <_dtoa_r+0x7da>
200061ee:	f3c2 0313 	ubfx	r3, r2, #0, #20
200061f2:	2b00      	cmp	r3, #0
200061f4:	f47f ae31 	bne.w	20005e5a <_dtoa_r+0x7da>
200061f8:	4f39      	ldr	r7, [pc, #228]	; (200062e0 <_dtoa_r+0xc60>)
200061fa:	4017      	ands	r7, r2
200061fc:	2f00      	cmp	r7, #0
200061fe:	f43f ad7e 	beq.w	20005cfe <_dtoa_r+0x67e>
20006202:	9b09      	ldr	r3, [sp, #36]	; 0x24
20006204:	2701      	movs	r7, #1
20006206:	3301      	adds	r3, #1
20006208:	9309      	str	r3, [sp, #36]	; 0x24
2000620a:	f109 0901 	add.w	r9, r9, #1
2000620e:	e576      	b.n	20005cfe <_dtoa_r+0x67e>
20006210:	2a00      	cmp	r2, #0
20006212:	dd12      	ble.n	2000623a <_dtoa_r+0xbba>
20006214:	4651      	mov	r1, sl
20006216:	2201      	movs	r2, #1
20006218:	4620      	mov	r0, r4
2000621a:	9304      	str	r3, [sp, #16]
2000621c:	f000 fce4 	bl	20006be8 <__lshift>
20006220:	4641      	mov	r1, r8
20006222:	4682      	mov	sl, r0
20006224:	f000 fd48 	bl	20006cb8 <__mcmp>
20006228:	2800      	cmp	r0, #0
2000622a:	9b04      	ldr	r3, [sp, #16]
2000622c:	f340 8121 	ble.w	20006472 <_dtoa_r+0xdf2>
20006230:	2b39      	cmp	r3, #57	; 0x39
20006232:	f000 8101 	beq.w	20006438 <_dtoa_r+0xdb8>
20006236:	f10b 0331 	add.w	r3, fp, #49	; 0x31
2000623a:	46b1      	mov	r9, r6
2000623c:	462e      	mov	r6, r5
2000623e:	f809 3b01 	strb.w	r3, [r9], #1
20006242:	463d      	mov	r5, r7
20006244:	e5d1      	b.n	20005dea <_dtoa_r+0x76a>
20006246:	4655      	mov	r5, sl
20006248:	9c09      	ldr	r4, [sp, #36]	; 0x24
2000624a:	f8dd a018 	ldr.w	sl, [sp, #24]
2000624e:	4602      	mov	r2, r0
20006250:	460b      	mov	r3, r1
20006252:	f001 fa4f 	bl	200076f4 <__adddf3>
20006256:	e9dd 2304 	ldrd	r2, r3, [sp, #16]
2000625a:	4606      	mov	r6, r0
2000625c:	460f      	mov	r7, r1
2000625e:	f001 fe8f 	bl	20007f80 <__aeabi_dcmpgt>
20006262:	b960      	cbnz	r0, 2000627e <_dtoa_r+0xbfe>
20006264:	e9dd 2304 	ldrd	r2, r3, [sp, #16]
20006268:	4630      	mov	r0, r6
2000626a:	4639      	mov	r1, r7
2000626c:	f001 fe60 	bl	20007f30 <__aeabi_dcmpeq>
20006270:	2800      	cmp	r0, #0
20006272:	f43f acb1 	beq.w	20005bd8 <_dtoa_r+0x558>
20006276:	f018 0f01 	tst.w	r8, #1
2000627a:	f43f acad 	beq.w	20005bd8 <_dtoa_r+0x558>
2000627e:	9a03      	ldr	r2, [sp, #12]
20006280:	e416      	b.n	20005ab0 <_dtoa_r+0x430>
20006282:	6869      	ldr	r1, [r5, #4]
20006284:	4620      	mov	r0, r4
20006286:	f000 faf5 	bl	20006874 <_Balloc>
2000628a:	4606      	mov	r6, r0
2000628c:	692b      	ldr	r3, [r5, #16]
2000628e:	f105 010c 	add.w	r1, r5, #12
20006292:	3302      	adds	r3, #2
20006294:	009a      	lsls	r2, r3, #2
20006296:	300c      	adds	r0, #12
20006298:	f7fd faa2 	bl	200037e0 <memcpy>
2000629c:	4631      	mov	r1, r6
2000629e:	2201      	movs	r2, #1
200062a0:	4620      	mov	r0, r4
200062a2:	f000 fca1 	bl	20006be8 <__lshift>
200062a6:	4607      	mov	r7, r0
200062a8:	e5f4      	b.n	20005e94 <_dtoa_r+0x814>
200062aa:	e9dd 3209 	ldrd	r3, r2, [sp, #36]	; 0x24
200062ae:	1a9e      	subs	r6, r3, r2
200062b0:	e4c1      	b.n	20005c36 <_dtoa_r+0x5b6>
200062b2:	2b39      	cmp	r3, #57	; 0x39
200062b4:	f000 80c0 	beq.w	20006438 <_dtoa_r+0xdb8>
200062b8:	46b1      	mov	r9, r6
200062ba:	3301      	adds	r3, #1
200062bc:	462e      	mov	r6, r5
200062be:	f809 3b01 	strb.w	r3, [r9], #1
200062c2:	463d      	mov	r5, r7
200062c4:	e591      	b.n	20005dea <_dtoa_r+0x76a>
200062c6:	462e      	mov	r6, r5
200062c8:	463d      	mov	r5, r7
200062ca:	e56f      	b.n	20005dac <_dtoa_r+0x72c>
200062cc:	20008710 	.word	0x20008710
200062d0:	401c0000 	.word	0x401c0000
200062d4:	40140000 	.word	0x40140000
200062d8:	20008748 	.word	0x20008748
200062dc:	20008720 	.word	0x20008720
200062e0:	7ff00000 	.word	0x7ff00000
200062e4:	9812      	ldr	r0, [sp, #72]	; 0x48
200062e6:	4984      	ldr	r1, [pc, #528]	; (200064f8 <_dtoa_r+0xe78>)
200062e8:	e9dd 230e 	ldrd	r2, r3, [sp, #56]	; 0x38
200062ec:	eb01 01c0 	add.w	r1, r1, r0, lsl #3
200062f0:	e951 0102 	ldrd	r0, r1, [r1, #-8]
200062f4:	f001 fbb4 	bl	20007a60 <__aeabi_dmul>
200062f8:	4602      	mov	r2, r0
200062fa:	460b      	mov	r3, r1
200062fc:	4638      	mov	r0, r7
200062fe:	4641      	mov	r1, r8
20006300:	e9cd 230e 	strd	r2, r3, [sp, #56]	; 0x38
20006304:	f001 fe5c 	bl	20007fc0 <__aeabi_d2iz>
20006308:	4606      	mov	r6, r0
2000630a:	f001 fb3f 	bl	2000798c <__aeabi_i2d>
2000630e:	460b      	mov	r3, r1
20006310:	4602      	mov	r2, r0
20006312:	4641      	mov	r1, r8
20006314:	4638      	mov	r0, r7
20006316:	f001 f9eb 	bl	200076f0 <__aeabi_dsub>
2000631a:	f106 0330 	add.w	r3, r6, #48	; 0x30
2000631e:	4606      	mov	r6, r0
20006320:	9812      	ldr	r0, [sp, #72]	; 0x48
20006322:	9d03      	ldr	r5, [sp, #12]
20006324:	2801      	cmp	r0, #1
20006326:	460f      	mov	r7, r1
20006328:	f805 3b01 	strb.w	r3, [r5], #1
2000632c:	d022      	beq.n	20006374 <_dtoa_r+0xcf4>
2000632e:	9b12      	ldr	r3, [sp, #72]	; 0x48
20006330:	9a03      	ldr	r2, [sp, #12]
20006332:	f8cd b048 	str.w	fp, [sp, #72]	; 0x48
20006336:	4413      	add	r3, r2
20006338:	4698      	mov	r8, r3
2000633a:	2200      	movs	r2, #0
2000633c:	4b6f      	ldr	r3, [pc, #444]	; (200064fc <_dtoa_r+0xe7c>)
2000633e:	4630      	mov	r0, r6
20006340:	4639      	mov	r1, r7
20006342:	f001 fb8d 	bl	20007a60 <__aeabi_dmul>
20006346:	460f      	mov	r7, r1
20006348:	4606      	mov	r6, r0
2000634a:	f001 fe39 	bl	20007fc0 <__aeabi_d2iz>
2000634e:	4683      	mov	fp, r0
20006350:	f001 fb1c 	bl	2000798c <__aeabi_i2d>
20006354:	4602      	mov	r2, r0
20006356:	460b      	mov	r3, r1
20006358:	4630      	mov	r0, r6
2000635a:	4639      	mov	r1, r7
2000635c:	f001 f9c8 	bl	200076f0 <__aeabi_dsub>
20006360:	f10b 0b30 	add.w	fp, fp, #48	; 0x30
20006364:	f805 bb01 	strb.w	fp, [r5], #1
20006368:	4545      	cmp	r5, r8
2000636a:	4606      	mov	r6, r0
2000636c:	460f      	mov	r7, r1
2000636e:	d1e4      	bne.n	2000633a <_dtoa_r+0xcba>
20006370:	f8dd b048 	ldr.w	fp, [sp, #72]	; 0x48
20006374:	2200      	movs	r2, #0
20006376:	e9dd 010e 	ldrd	r0, r1, [sp, #56]	; 0x38
2000637a:	4b61      	ldr	r3, [pc, #388]	; (20006500 <_dtoa_r+0xe80>)
2000637c:	f001 f9ba 	bl	200076f4 <__adddf3>
20006380:	4632      	mov	r2, r6
20006382:	463b      	mov	r3, r7
20006384:	f001 fdde 	bl	20007f44 <__aeabi_dcmplt>
20006388:	2800      	cmp	r0, #0
2000638a:	d16d      	bne.n	20006468 <_dtoa_r+0xde8>
2000638c:	e9dd 230e 	ldrd	r2, r3, [sp, #56]	; 0x38
20006390:	2000      	movs	r0, #0
20006392:	495b      	ldr	r1, [pc, #364]	; (20006500 <_dtoa_r+0xe80>)
20006394:	f001 f9ac 	bl	200076f0 <__aeabi_dsub>
20006398:	4632      	mov	r2, r6
2000639a:	463b      	mov	r3, r7
2000639c:	f001 fdf0 	bl	20007f80 <__aeabi_dcmpgt>
200063a0:	2800      	cmp	r0, #0
200063a2:	f43f ab96 	beq.w	20005ad2 <_dtoa_r+0x452>
200063a6:	f815 3c01 	ldrb.w	r3, [r5, #-1]
200063aa:	46a9      	mov	r9, r5
200063ac:	2b30      	cmp	r3, #48	; 0x30
200063ae:	f105 35ff 	add.w	r5, r5, #4294967295
200063b2:	d0f8      	beq.n	200063a6 <_dtoa_r+0xd26>
200063b4:	9b14      	ldr	r3, [sp, #80]	; 0x50
200063b6:	3301      	adds	r3, #1
200063b8:	9308      	str	r3, [sp, #32]
200063ba:	e526      	b.n	20005e0a <_dtoa_r+0x78a>
200063bc:	9b18      	ldr	r3, [sp, #96]	; 0x60
200063be:	9a09      	ldr	r2, [sp, #36]	; 0x24
200063c0:	f1c3 0336 	rsb	r3, r3, #54	; 0x36
200063c4:	4616      	mov	r6, r2
200063c6:	441a      	add	r2, r3
200063c8:	9f0c      	ldr	r7, [sp, #48]	; 0x30
200063ca:	4499      	add	r9, r3
200063cc:	9209      	str	r2, [sp, #36]	; 0x24
200063ce:	e432      	b.n	20005c36 <_dtoa_r+0x5b6>
200063d0:	2302      	movs	r3, #2
200063d2:	e9dd 7806 	ldrd	r7, r8, [sp, #24]
200063d6:	930e      	str	r3, [sp, #56]	; 0x38
200063d8:	f7ff bac7 	b.w	2000596a <_dtoa_r+0x2ea>
200063dc:	9b0a      	ldr	r3, [sp, #40]	; 0x28
200063de:	2b00      	cmp	r3, #0
200063e0:	f43f ae9e 	beq.w	20006120 <_dtoa_r+0xaa0>
200063e4:	9d11      	ldr	r5, [sp, #68]	; 0x44
200063e6:	2d00      	cmp	r5, #0
200063e8:	f77f ab73 	ble.w	20005ad2 <_dtoa_r+0x452>
200063ec:	4b43      	ldr	r3, [pc, #268]	; (200064fc <_dtoa_r+0xe7c>)
200063ee:	4638      	mov	r0, r7
200063f0:	4641      	mov	r1, r8
200063f2:	2200      	movs	r2, #0
200063f4:	f001 fb34 	bl	20007a60 <__aeabi_dmul>
200063f8:	4602      	mov	r2, r0
200063fa:	4688      	mov	r8, r1
200063fc:	4617      	mov	r7, r2
200063fe:	980e      	ldr	r0, [sp, #56]	; 0x38
20006400:	3001      	adds	r0, #1
20006402:	f001 fac3 	bl	2000798c <__aeabi_i2d>
20006406:	463a      	mov	r2, r7
20006408:	4643      	mov	r3, r8
2000640a:	f001 fb29 	bl	20007a60 <__aeabi_dmul>
2000640e:	2200      	movs	r2, #0
20006410:	4b3c      	ldr	r3, [pc, #240]	; (20006504 <_dtoa_r+0xe84>)
20006412:	f001 f96f 	bl	200076f4 <__adddf3>
20006416:	9a08      	ldr	r2, [sp, #32]
20006418:	f1a1 7350 	sub.w	r3, r1, #54525952	; 0x3400000
2000641c:	3a01      	subs	r2, #1
2000641e:	e9cd 010e 	strd	r0, r1, [sp, #56]	; 0x38
20006422:	9214      	str	r2, [sp, #80]	; 0x50
20006424:	930f      	str	r3, [sp, #60]	; 0x3c
20006426:	9512      	str	r5, [sp, #72]	; 0x48
20006428:	f7ff bac2 	b.w	200059b0 <_dtoa_r+0x330>
2000642c:	9b08      	ldr	r3, [sp, #32]
2000642e:	3301      	adds	r3, #1
20006430:	9308      	str	r3, [sp, #32]
20006432:	2331      	movs	r3, #49	; 0x31
20006434:	f7ff bb43 	b.w	20005abe <_dtoa_r+0x43e>
20006438:	46b3      	mov	fp, r6
2000643a:	2339      	movs	r3, #57	; 0x39
2000643c:	462e      	mov	r6, r5
2000643e:	f80b 3b01 	strb.w	r3, [fp], #1
20006442:	463d      	mov	r5, r7
20006444:	e4c1      	b.n	20005dca <_dtoa_r+0x74a>
20006446:	f04f 0800 	mov.w	r8, #0
2000644a:	4645      	mov	r5, r8
2000644c:	e5ab      	b.n	20005fa6 <_dtoa_r+0x926>
2000644e:	f04f 0800 	mov.w	r8, #0
20006452:	4645      	mov	r5, r8
20006454:	f7ff bb66 	b.w	20005b24 <_dtoa_r+0x4a4>
20006458:	f8dd a054 	ldr.w	sl, [sp, #84]	; 0x54
2000645c:	9c0e      	ldr	r4, [sp, #56]	; 0x38
2000645e:	9b14      	ldr	r3, [sp, #80]	; 0x50
20006460:	46a9      	mov	r9, r5
20006462:	3301      	adds	r3, #1
20006464:	9308      	str	r3, [sp, #32]
20006466:	e4d0      	b.n	20005e0a <_dtoa_r+0x78a>
20006468:	9b14      	ldr	r3, [sp, #80]	; 0x50
2000646a:	9a03      	ldr	r2, [sp, #12]
2000646c:	9308      	str	r3, [sp, #32]
2000646e:	f7ff bb1f 	b.w	20005ab0 <_dtoa_r+0x430>
20006472:	f47f aee2 	bne.w	2000623a <_dtoa_r+0xbba>
20006476:	07da      	lsls	r2, r3, #31
20006478:	f57f aedf 	bpl.w	2000623a <_dtoa_r+0xbba>
2000647c:	e6d8      	b.n	20006230 <_dtoa_r+0xbb0>
2000647e:	2b39      	cmp	r3, #57	; 0x39
20006480:	d0da      	beq.n	20006438 <_dtoa_r+0xdb8>
20006482:	f1b9 0f00 	cmp.w	r9, #0
20006486:	f73f aed6 	bgt.w	20006236 <_dtoa_r+0xbb6>
2000648a:	e6d6      	b.n	2000623a <_dtoa_r+0xbba>
2000648c:	4629      	mov	r1, r5
2000648e:	2300      	movs	r3, #0
20006490:	220a      	movs	r2, #10
20006492:	4620      	mov	r0, r4
20006494:	f000 fa1e 	bl	200068d4 <__multadd>
20006498:	9b11      	ldr	r3, [sp, #68]	; 0x44
2000649a:	4605      	mov	r5, r0
2000649c:	2b00      	cmp	r3, #0
2000649e:	f77f ace7 	ble.w	20005e70 <_dtoa_r+0x7f0>
200064a2:	930a      	str	r3, [sp, #40]	; 0x28
200064a4:	e4ef      	b.n	20005e86 <_dtoa_r+0x806>
200064a6:	9b24      	ldr	r3, [sp, #144]	; 0x90
200064a8:	2b02      	cmp	r3, #2
200064aa:	dc02      	bgt.n	200064b2 <_dtoa_r+0xe32>
200064ac:	f8cd 9020 	str.w	r9, [sp, #32]
200064b0:	e5f3      	b.n	2000609a <_dtoa_r+0xa1a>
200064b2:	9b11      	ldr	r3, [sp, #68]	; 0x44
200064b4:	f8cd 9020 	str.w	r9, [sp, #32]
200064b8:	930a      	str	r3, [sp, #40]	; 0x28
200064ba:	e563      	b.n	20005f84 <_dtoa_r+0x904>
200064bc:	2302      	movs	r3, #2
200064be:	930e      	str	r3, [sp, #56]	; 0x38
200064c0:	f7ff ba53 	b.w	2000596a <_dtoa_r+0x2ea>
200064c4:	4b10      	ldr	r3, [pc, #64]	; (20006508 <_dtoa_r+0xe88>)
200064c6:	9303      	str	r3, [sp, #12]
200064c8:	f7ff b915 	b.w	200056f6 <_dtoa_r+0x76>
200064cc:	f43f ac2d 	beq.w	20005d2a <_dtoa_r+0x6aa>
200064d0:	f1c0 003c 	rsb	r0, r0, #60	; 0x3c
200064d4:	e424      	b.n	20005d20 <_dtoa_r+0x6a0>
200064d6:	2500      	movs	r5, #0
200064d8:	4620      	mov	r0, r4
200064da:	4629      	mov	r1, r5
200064dc:	6465      	str	r5, [r4, #68]	; 0x44
200064de:	f000 f9c9 	bl	20006874 <_Balloc>
200064e2:	f04f 33ff 	mov.w	r3, #4294967295
200064e6:	9311      	str	r3, [sp, #68]	; 0x44
200064e8:	930a      	str	r3, [sp, #40]	; 0x28
200064ea:	2301      	movs	r3, #1
200064ec:	9003      	str	r0, [sp, #12]
200064ee:	9525      	str	r5, [sp, #148]	; 0x94
200064f0:	6420      	str	r0, [r4, #64]	; 0x40
200064f2:	930b      	str	r3, [sp, #44]	; 0x2c
200064f4:	f7ff baed 	b.w	20005ad2 <_dtoa_r+0x452>
200064f8:	20008748 	.word	0x20008748
200064fc:	40240000 	.word	0x40240000
20006500:	3fe00000 	.word	0x3fe00000
20006504:	401c0000 	.word	0x401c0000
20006508:	20008714 	.word	0x20008714

2000650c <__libc_fini_array>:
__libc_fini_array():
2000650c:	b538      	push	{r3, r4, r5, lr}
2000650e:	4b08      	ldr	r3, [pc, #32]	; (20006530 <__libc_fini_array+0x24>)
20006510:	4d08      	ldr	r5, [pc, #32]	; (20006534 <__libc_fini_array+0x28>)
20006512:	1b5b      	subs	r3, r3, r5
20006514:	109c      	asrs	r4, r3, #2
20006516:	d007      	beq.n	20006528 <__libc_fini_array+0x1c>
20006518:	3b04      	subs	r3, #4
2000651a:	441d      	add	r5, r3
2000651c:	3c01      	subs	r4, #1
2000651e:	f855 3904 	ldr.w	r3, [r5], #-4
20006522:	4798      	blx	r3
20006524:	2c00      	cmp	r4, #0
20006526:	d1f9      	bne.n	2000651c <__libc_fini_array+0x10>
20006528:	e8bd 4038 	ldmia.w	sp!, {r3, r4, r5, lr}
2000652c:	f002 ba06 	b.w	2000893c <_fini>
20006530:	20008954 	.word	0x20008954
20006534:	20008950 	.word	0x20008950

20006538 <_malloc_trim_r>:
_malloc_trim_r():
20006538:	b5f8      	push	{r3, r4, r5, r6, r7, lr}
2000653a:	460c      	mov	r4, r1
2000653c:	4f23      	ldr	r7, [pc, #140]	; (200065cc <_malloc_trim_r+0x94>)
2000653e:	4606      	mov	r6, r0
20006540:	f7fd fa14 	bl	2000396c <__malloc_lock>
20006544:	68bb      	ldr	r3, [r7, #8]
20006546:	f5c4 617e 	rsb	r1, r4, #4064	; 0xfe0
2000654a:	685d      	ldr	r5, [r3, #4]
2000654c:	310f      	adds	r1, #15
2000654e:	f025 0503 	bic.w	r5, r5, #3
20006552:	194b      	adds	r3, r1, r5
20006554:	f423 637f 	bic.w	r3, r3, #4080	; 0xff0
20006558:	f023 030f 	bic.w	r3, r3, #15
2000655c:	f5a3 5480 	sub.w	r4, r3, #4096	; 0x1000
20006560:	f5b4 5f80 	cmp.w	r4, #4096	; 0x1000
20006564:	db07      	blt.n	20006576 <_malloc_trim_r+0x3e>
20006566:	2100      	movs	r1, #0
20006568:	4630      	mov	r0, r6
2000656a:	f7fd fa0b 	bl	20003984 <_sbrk_r>
2000656e:	68bb      	ldr	r3, [r7, #8]
20006570:	442b      	add	r3, r5
20006572:	4298      	cmp	r0, r3
20006574:	d004      	beq.n	20006580 <_malloc_trim_r+0x48>
20006576:	4630      	mov	r0, r6
20006578:	f7fd f9fe 	bl	20003978 <__malloc_unlock>
2000657c:	2000      	movs	r0, #0
2000657e:	bdf8      	pop	{r3, r4, r5, r6, r7, pc}
20006580:	4630      	mov	r0, r6
20006582:	4261      	negs	r1, r4
20006584:	f7fd f9fe 	bl	20003984 <_sbrk_r>
20006588:	3001      	adds	r0, #1
2000658a:	d00d      	beq.n	200065a8 <_malloc_trim_r+0x70>
2000658c:	4a10      	ldr	r2, [pc, #64]	; (200065d0 <_malloc_trim_r+0x98>)
2000658e:	68b9      	ldr	r1, [r7, #8]
20006590:	6813      	ldr	r3, [r2, #0]
20006592:	1b2d      	subs	r5, r5, r4
20006594:	f045 0501 	orr.w	r5, r5, #1
20006598:	4630      	mov	r0, r6
2000659a:	1b1b      	subs	r3, r3, r4
2000659c:	604d      	str	r5, [r1, #4]
2000659e:	6013      	str	r3, [r2, #0]
200065a0:	f7fd f9ea 	bl	20003978 <__malloc_unlock>
200065a4:	2001      	movs	r0, #1
200065a6:	bdf8      	pop	{r3, r4, r5, r6, r7, pc}
200065a8:	2100      	movs	r1, #0
200065aa:	4630      	mov	r0, r6
200065ac:	f7fd f9ea 	bl	20003984 <_sbrk_r>
200065b0:	68ba      	ldr	r2, [r7, #8]
200065b2:	1a83      	subs	r3, r0, r2
200065b4:	2b0f      	cmp	r3, #15
200065b6:	ddde      	ble.n	20006576 <_malloc_trim_r+0x3e>
200065b8:	4906      	ldr	r1, [pc, #24]	; (200065d4 <_malloc_trim_r+0x9c>)
200065ba:	f043 0301 	orr.w	r3, r3, #1
200065be:	680c      	ldr	r4, [r1, #0]
200065c0:	4903      	ldr	r1, [pc, #12]	; (200065d0 <_malloc_trim_r+0x98>)
200065c2:	1b00      	subs	r0, r0, r4
200065c4:	6053      	str	r3, [r2, #4]
200065c6:	6008      	str	r0, [r1, #0]
200065c8:	e7d5      	b.n	20006576 <_malloc_trim_r+0x3e>
200065ca:	bf00      	nop
200065cc:	20008db8 	.word	0x20008db8
200065d0:	200093b8 	.word	0x200093b8
200065d4:	200091c0 	.word	0x200091c0

200065d8 <_free_r>:
_free_r():
200065d8:	2900      	cmp	r1, #0
200065da:	d05f      	beq.n	2000669c <_free_r+0xc4>
200065dc:	b5f8      	push	{r3, r4, r5, r6, r7, lr}
200065de:	460c      	mov	r4, r1
200065e0:	4606      	mov	r6, r0
200065e2:	f7fd f9c3 	bl	2000396c <__malloc_lock>
200065e6:	f854 3c04 	ldr.w	r3, [r4, #-4]
200065ea:	f8df c1f4 	ldr.w	ip, [pc, #500]	; 200067e0 <_free_r+0x208>
200065ee:	f1a4 0008 	sub.w	r0, r4, #8
200065f2:	f023 0101 	bic.w	r1, r3, #1
200065f6:	1842      	adds	r2, r0, r1
200065f8:	f8dc 7008 	ldr.w	r7, [ip, #8]
200065fc:	6855      	ldr	r5, [r2, #4]
200065fe:	4297      	cmp	r7, r2
20006600:	f025 0503 	bic.w	r5, r5, #3
20006604:	f000 8089 	beq.w	2000671a <_free_r+0x142>
20006608:	07df      	lsls	r7, r3, #31
2000660a:	6055      	str	r5, [r2, #4]
2000660c:	d434      	bmi.n	20006678 <_free_r+0xa0>
2000660e:	f854 7c08 	ldr.w	r7, [r4, #-8]
20006612:	f10c 0408 	add.w	r4, ip, #8
20006616:	1bc0      	subs	r0, r0, r7
20006618:	6883      	ldr	r3, [r0, #8]
2000661a:	4439      	add	r1, r7
2000661c:	42a3      	cmp	r3, r4
2000661e:	d06a      	beq.n	200066f6 <_free_r+0x11e>
20006620:	1957      	adds	r7, r2, r5
20006622:	687f      	ldr	r7, [r7, #4]
20006624:	f8d0 e00c 	ldr.w	lr, [r0, #12]
20006628:	f8c3 e00c 	str.w	lr, [r3, #12]
2000662c:	f8ce 3008 	str.w	r3, [lr, #8]
20006630:	07fb      	lsls	r3, r7, #31
20006632:	f140 8097 	bpl.w	20006764 <_free_r+0x18c>
20006636:	f041 0301 	orr.w	r3, r1, #1
2000663a:	6043      	str	r3, [r0, #4]
2000663c:	6011      	str	r1, [r2, #0]
2000663e:	f5b1 7f00 	cmp.w	r1, #512	; 0x200
20006642:	d234      	bcs.n	200066ae <_free_r+0xd6>
20006644:	2201      	movs	r2, #1
20006646:	f8dc 4004 	ldr.w	r4, [ip, #4]
2000664a:	08cb      	lsrs	r3, r1, #3
2000664c:	0949      	lsrs	r1, r1, #5
2000664e:	4413      	add	r3, r2
20006650:	fa02 f101 	lsl.w	r1, r2, r1
20006654:	4321      	orrs	r1, r4
20006656:	eb0c 02c3 	add.w	r2, ip, r3, lsl #3
2000665a:	f85c 4033 	ldr.w	r4, [ip, r3, lsl #3]
2000665e:	3a08      	subs	r2, #8
20006660:	e9c0 4202 	strd	r4, r2, [r0, #8]
20006664:	f8cc 1004 	str.w	r1, [ip, #4]
20006668:	f84c 0033 	str.w	r0, [ip, r3, lsl #3]
2000666c:	60e0      	str	r0, [r4, #12]
2000666e:	4630      	mov	r0, r6
20006670:	e8bd 40f8 	ldmia.w	sp!, {r3, r4, r5, r6, r7, lr}
20006674:	f7fd b980 	b.w	20003978 <__malloc_unlock>
20006678:	1953      	adds	r3, r2, r5
2000667a:	685b      	ldr	r3, [r3, #4]
2000667c:	07df      	lsls	r7, r3, #31
2000667e:	d40e      	bmi.n	2000669e <_free_r+0xc6>
20006680:	4429      	add	r1, r5
20006682:	f10c 0408 	add.w	r4, ip, #8
20006686:	6893      	ldr	r3, [r2, #8]
20006688:	42a3      	cmp	r3, r4
2000668a:	d073      	beq.n	20006774 <_free_r+0x19c>
2000668c:	68d4      	ldr	r4, [r2, #12]
2000668e:	f041 0201 	orr.w	r2, r1, #1
20006692:	60dc      	str	r4, [r3, #12]
20006694:	60a3      	str	r3, [r4, #8]
20006696:	6042      	str	r2, [r0, #4]
20006698:	5041      	str	r1, [r0, r1]
2000669a:	e7d0      	b.n	2000663e <_free_r+0x66>
2000669c:	4770      	bx	lr
2000669e:	f041 0301 	orr.w	r3, r1, #1
200066a2:	f5b1 7f00 	cmp.w	r1, #512	; 0x200
200066a6:	f844 3c04 	str.w	r3, [r4, #-4]
200066aa:	6011      	str	r1, [r2, #0]
200066ac:	d3ca      	bcc.n	20006644 <_free_r+0x6c>
200066ae:	f5b1 6f20 	cmp.w	r1, #2560	; 0xa00
200066b2:	ea4f 2351 	mov.w	r3, r1, lsr #9
200066b6:	d24a      	bcs.n	2000674e <_free_r+0x176>
200066b8:	098b      	lsrs	r3, r1, #6
200066ba:	f103 0539 	add.w	r5, r3, #57	; 0x39
200066be:	00ed      	lsls	r5, r5, #3
200066c0:	f103 0238 	add.w	r2, r3, #56	; 0x38
200066c4:	f85c 3005 	ldr.w	r3, [ip, r5]
200066c8:	eb0c 0405 	add.w	r4, ip, r5
200066cc:	3c08      	subs	r4, #8
200066ce:	429c      	cmp	r4, r3
200066d0:	d059      	beq.n	20006786 <_free_r+0x1ae>
200066d2:	685a      	ldr	r2, [r3, #4]
200066d4:	f022 0203 	bic.w	r2, r2, #3
200066d8:	428a      	cmp	r2, r1
200066da:	d902      	bls.n	200066e2 <_free_r+0x10a>
200066dc:	689b      	ldr	r3, [r3, #8]
200066de:	429c      	cmp	r4, r3
200066e0:	d1f7      	bne.n	200066d2 <_free_r+0xfa>
200066e2:	68dc      	ldr	r4, [r3, #12]
200066e4:	e9c0 3402 	strd	r3, r4, [r0, #8]
200066e8:	60a0      	str	r0, [r4, #8]
200066ea:	60d8      	str	r0, [r3, #12]
200066ec:	4630      	mov	r0, r6
200066ee:	e8bd 40f8 	ldmia.w	sp!, {r3, r4, r5, r6, r7, lr}
200066f2:	f7fd b941 	b.w	20003978 <__malloc_unlock>
200066f6:	1953      	adds	r3, r2, r5
200066f8:	685b      	ldr	r3, [r3, #4]
200066fa:	07db      	lsls	r3, r3, #31
200066fc:	d466      	bmi.n	200067cc <_free_r+0x1f4>
200066fe:	e9d2 2302 	ldrd	r2, r3, [r2, #8]
20006702:	4429      	add	r1, r5
20006704:	f041 0401 	orr.w	r4, r1, #1
20006708:	60d3      	str	r3, [r2, #12]
2000670a:	609a      	str	r2, [r3, #8]
2000670c:	6044      	str	r4, [r0, #4]
2000670e:	5041      	str	r1, [r0, r1]
20006710:	4630      	mov	r0, r6
20006712:	e8bd 40f8 	ldmia.w	sp!, {r3, r4, r5, r6, r7, lr}
20006716:	f7fd b92f 	b.w	20003978 <__malloc_unlock>
2000671a:	07db      	lsls	r3, r3, #31
2000671c:	4429      	add	r1, r5
2000671e:	d407      	bmi.n	20006730 <_free_r+0x158>
20006720:	f854 4c08 	ldr.w	r4, [r4, #-8]
20006724:	1b00      	subs	r0, r0, r4
20006726:	e9d0 2302 	ldrd	r2, r3, [r0, #8]
2000672a:	4421      	add	r1, r4
2000672c:	60d3      	str	r3, [r2, #12]
2000672e:	609a      	str	r2, [r3, #8]
20006730:	4b29      	ldr	r3, [pc, #164]	; (200067d8 <_free_r+0x200>)
20006732:	f041 0201 	orr.w	r2, r1, #1
20006736:	681b      	ldr	r3, [r3, #0]
20006738:	6042      	str	r2, [r0, #4]
2000673a:	428b      	cmp	r3, r1
2000673c:	f8cc 0008 	str.w	r0, [ip, #8]
20006740:	d895      	bhi.n	2000666e <_free_r+0x96>
20006742:	4b26      	ldr	r3, [pc, #152]	; (200067dc <_free_r+0x204>)
20006744:	4630      	mov	r0, r6
20006746:	6819      	ldr	r1, [r3, #0]
20006748:	f7ff fef6 	bl	20006538 <_malloc_trim_r>
2000674c:	e78f      	b.n	2000666e <_free_r+0x96>
2000674e:	2b14      	cmp	r3, #20
20006750:	d90a      	bls.n	20006768 <_free_r+0x190>
20006752:	2b54      	cmp	r3, #84	; 0x54
20006754:	d821      	bhi.n	2000679a <_free_r+0x1c2>
20006756:	0b0b      	lsrs	r3, r1, #12
20006758:	f103 056f 	add.w	r5, r3, #111	; 0x6f
2000675c:	00ed      	lsls	r5, r5, #3
2000675e:	f103 026e 	add.w	r2, r3, #110	; 0x6e
20006762:	e7af      	b.n	200066c4 <_free_r+0xec>
20006764:	4429      	add	r1, r5
20006766:	e78e      	b.n	20006686 <_free_r+0xae>
20006768:	f103 055c 	add.w	r5, r3, #92	; 0x5c
2000676c:	00ed      	lsls	r5, r5, #3
2000676e:	f103 025b 	add.w	r2, r3, #91	; 0x5b
20006772:	e7a7      	b.n	200066c4 <_free_r+0xec>
20006774:	f041 0301 	orr.w	r3, r1, #1
20006778:	e9cc 0004 	strd	r0, r0, [ip, #16]
2000677c:	e9c0 4402 	strd	r4, r4, [r0, #8]
20006780:	6043      	str	r3, [r0, #4]
20006782:	5041      	str	r1, [r0, r1]
20006784:	e773      	b.n	2000666e <_free_r+0x96>
20006786:	2501      	movs	r5, #1
20006788:	f8dc 1004 	ldr.w	r1, [ip, #4]
2000678c:	1092      	asrs	r2, r2, #2
2000678e:	fa05 f202 	lsl.w	r2, r5, r2
20006792:	430a      	orrs	r2, r1
20006794:	f8cc 2004 	str.w	r2, [ip, #4]
20006798:	e7a4      	b.n	200066e4 <_free_r+0x10c>
2000679a:	f5b3 7faa 	cmp.w	r3, #340	; 0x154
2000679e:	d806      	bhi.n	200067ae <_free_r+0x1d6>
200067a0:	0bcb      	lsrs	r3, r1, #15
200067a2:	f103 0578 	add.w	r5, r3, #120	; 0x78
200067a6:	00ed      	lsls	r5, r5, #3
200067a8:	f103 0277 	add.w	r2, r3, #119	; 0x77
200067ac:	e78a      	b.n	200066c4 <_free_r+0xec>
200067ae:	f240 5254 	movw	r2, #1364	; 0x554
200067b2:	4293      	cmp	r3, r2
200067b4:	d806      	bhi.n	200067c4 <_free_r+0x1ec>
200067b6:	0c8b      	lsrs	r3, r1, #18
200067b8:	f103 057d 	add.w	r5, r3, #125	; 0x7d
200067bc:	00ed      	lsls	r5, r5, #3
200067be:	f103 027c 	add.w	r2, r3, #124	; 0x7c
200067c2:	e77f      	b.n	200066c4 <_free_r+0xec>
200067c4:	f44f 757e 	mov.w	r5, #1016	; 0x3f8
200067c8:	227e      	movs	r2, #126	; 0x7e
200067ca:	e77b      	b.n	200066c4 <_free_r+0xec>
200067cc:	f041 0301 	orr.w	r3, r1, #1
200067d0:	6043      	str	r3, [r0, #4]
200067d2:	6011      	str	r1, [r2, #0]
200067d4:	e74b      	b.n	2000666e <_free_r+0x96>
200067d6:	bf00      	nop
200067d8:	200091c4 	.word	0x200091c4
200067dc:	200093e8 	.word	0x200093e8
200067e0:	20008db8 	.word	0x20008db8

200067e4 <_localeconv_r>:
_localeconv_r():
200067e4:	4800      	ldr	r0, [pc, #0]	; (200067e8 <_localeconv_r+0x4>)
200067e6:	4770      	bx	lr
200067e8:	200092bc 	.word	0x200092bc

200067ec <__retarget_lock_acquire_recursive>:
__retarget_lock_acquire_recursive():
200067ec:	4770      	bx	lr
200067ee:	bf00      	nop

200067f0 <__retarget_lock_release_recursive>:
__retarget_lock_release_recursive():
200067f0:	4770      	bx	lr
200067f2:	bf00      	nop

200067f4 <memchr>:
memchr():
200067f4:	b470      	push	{r4, r5, r6}
200067f6:	0784      	lsls	r4, r0, #30
200067f8:	b2cd      	uxtb	r5, r1
200067fa:	d012      	beq.n	20006822 <memchr+0x2e>
200067fc:	4603      	mov	r3, r0
200067fe:	1e54      	subs	r4, r2, #1
20006800:	b92a      	cbnz	r2, 2000680e <memchr+0x1a>
20006802:	e00b      	b.n	2000681c <memchr+0x28>
20006804:	079a      	lsls	r2, r3, #30
20006806:	4618      	mov	r0, r3
20006808:	d00c      	beq.n	20006824 <memchr+0x30>
2000680a:	3c01      	subs	r4, #1
2000680c:	d306      	bcc.n	2000681c <memchr+0x28>
2000680e:	4618      	mov	r0, r3
20006810:	f813 2b01 	ldrb.w	r2, [r3], #1
20006814:	42aa      	cmp	r2, r5
20006816:	d1f5      	bne.n	20006804 <memchr+0x10>
20006818:	bc70      	pop	{r4, r5, r6}
2000681a:	4770      	bx	lr
2000681c:	2000      	movs	r0, #0
2000681e:	bc70      	pop	{r4, r5, r6}
20006820:	4770      	bx	lr
20006822:	4614      	mov	r4, r2
20006824:	2c03      	cmp	r4, #3
20006826:	d80d      	bhi.n	20006844 <memchr+0x50>
20006828:	2c00      	cmp	r4, #0
2000682a:	d0f7      	beq.n	2000681c <memchr+0x28>
2000682c:	4602      	mov	r2, r0
2000682e:	1903      	adds	r3, r0, r4
20006830:	e001      	b.n	20006836 <memchr+0x42>
20006832:	429a      	cmp	r2, r3
20006834:	d0f2      	beq.n	2000681c <memchr+0x28>
20006836:	4610      	mov	r0, r2
20006838:	f812 1b01 	ldrb.w	r1, [r2], #1
2000683c:	42a9      	cmp	r1, r5
2000683e:	d1f8      	bne.n	20006832 <memchr+0x3e>
20006840:	bc70      	pop	{r4, r5, r6}
20006842:	4770      	bx	lr
20006844:	4606      	mov	r6, r0
20006846:	020a      	lsls	r2, r1, #8
20006848:	b292      	uxth	r2, r2
2000684a:	432a      	orrs	r2, r5
2000684c:	ea42 4202 	orr.w	r2, r2, r2, lsl #16
20006850:	6833      	ldr	r3, [r6, #0]
20006852:	4630      	mov	r0, r6
20006854:	4053      	eors	r3, r2
20006856:	f1a3 3101 	sub.w	r1, r3, #16843009	; 0x1010101
2000685a:	ea21 0303 	bic.w	r3, r1, r3
2000685e:	f013 3f80 	tst.w	r3, #2155905152	; 0x80808080
20006862:	f106 0604 	add.w	r6, r6, #4
20006866:	d1e1      	bne.n	2000682c <memchr+0x38>
20006868:	3c04      	subs	r4, #4
2000686a:	2c03      	cmp	r4, #3
2000686c:	4630      	mov	r0, r6
2000686e:	d8ef      	bhi.n	20006850 <memchr+0x5c>
20006870:	e7da      	b.n	20006828 <memchr+0x34>
20006872:	bf00      	nop

20006874 <_Balloc>:
_Balloc():
20006874:	6cc3      	ldr	r3, [r0, #76]	; 0x4c
20006876:	b570      	push	{r4, r5, r6, lr}
20006878:	4605      	mov	r5, r0
2000687a:	460c      	mov	r4, r1
2000687c:	b14b      	cbz	r3, 20006892 <_Balloc+0x1e>
2000687e:	f853 0024 	ldr.w	r0, [r3, r4, lsl #2]
20006882:	b180      	cbz	r0, 200068a6 <_Balloc+0x32>
20006884:	6802      	ldr	r2, [r0, #0]
20006886:	f843 2024 	str.w	r2, [r3, r4, lsl #2]
2000688a:	2300      	movs	r3, #0
2000688c:	e9c0 3303 	strd	r3, r3, [r0, #12]
20006890:	bd70      	pop	{r4, r5, r6, pc}
20006892:	2221      	movs	r2, #33	; 0x21
20006894:	2104      	movs	r1, #4
20006896:	f000 fc79 	bl	2000718c <_calloc_r>
2000689a:	4603      	mov	r3, r0
2000689c:	64e8      	str	r0, [r5, #76]	; 0x4c
2000689e:	2800      	cmp	r0, #0
200068a0:	d1ed      	bne.n	2000687e <_Balloc+0xa>
200068a2:	2000      	movs	r0, #0
200068a4:	bd70      	pop	{r4, r5, r6, pc}
200068a6:	2101      	movs	r1, #1
200068a8:	fa01 f604 	lsl.w	r6, r1, r4
200068ac:	1d72      	adds	r2, r6, #5
200068ae:	4628      	mov	r0, r5
200068b0:	0092      	lsls	r2, r2, #2
200068b2:	f000 fc6b 	bl	2000718c <_calloc_r>
200068b6:	2800      	cmp	r0, #0
200068b8:	d0f3      	beq.n	200068a2 <_Balloc+0x2e>
200068ba:	e9c0 4601 	strd	r4, r6, [r0, #4]
200068be:	e7e4      	b.n	2000688a <_Balloc+0x16>

200068c0 <_Bfree>:
_Bfree():
200068c0:	b131      	cbz	r1, 200068d0 <_Bfree+0x10>
200068c2:	6cc3      	ldr	r3, [r0, #76]	; 0x4c
200068c4:	684a      	ldr	r2, [r1, #4]
200068c6:	f853 0022 	ldr.w	r0, [r3, r2, lsl #2]
200068ca:	6008      	str	r0, [r1, #0]
200068cc:	f843 1022 	str.w	r1, [r3, r2, lsl #2]
200068d0:	4770      	bx	lr
200068d2:	bf00      	nop

200068d4 <__multadd>:
__multadd():
200068d4:	e92d 41f0 	stmdb	sp!, {r4, r5, r6, r7, r8, lr}
200068d8:	4680      	mov	r8, r0
200068da:	461c      	mov	r4, r3
200068dc:	2000      	movs	r0, #0
200068de:	460f      	mov	r7, r1
200068e0:	690e      	ldr	r6, [r1, #16]
200068e2:	3114      	adds	r1, #20
200068e4:	680d      	ldr	r5, [r1, #0]
200068e6:	3001      	adds	r0, #1
200068e8:	b2ab      	uxth	r3, r5
200068ea:	fb02 4303 	mla	r3, r2, r3, r4
200068ee:	0c2c      	lsrs	r4, r5, #16
200068f0:	0c1d      	lsrs	r5, r3, #16
200068f2:	fb02 5404 	mla	r4, r2, r4, r5
200068f6:	b29b      	uxth	r3, r3
200068f8:	eb03 4304 	add.w	r3, r3, r4, lsl #16
200068fc:	4286      	cmp	r6, r0
200068fe:	f841 3b04 	str.w	r3, [r1], #4
20006902:	ea4f 4414 	mov.w	r4, r4, lsr #16
20006906:	dced      	bgt.n	200068e4 <__multadd+0x10>
20006908:	b13c      	cbz	r4, 2000691a <__multadd+0x46>
2000690a:	68bb      	ldr	r3, [r7, #8]
2000690c:	42b3      	cmp	r3, r6
2000690e:	dd07      	ble.n	20006920 <__multadd+0x4c>
20006910:	eb07 0386 	add.w	r3, r7, r6, lsl #2
20006914:	3601      	adds	r6, #1
20006916:	615c      	str	r4, [r3, #20]
20006918:	613e      	str	r6, [r7, #16]
2000691a:	4638      	mov	r0, r7
2000691c:	e8bd 81f0 	ldmia.w	sp!, {r4, r5, r6, r7, r8, pc}
20006920:	6879      	ldr	r1, [r7, #4]
20006922:	4640      	mov	r0, r8
20006924:	3101      	adds	r1, #1
20006926:	f7ff ffa5 	bl	20006874 <_Balloc>
2000692a:	4605      	mov	r5, r0
2000692c:	693a      	ldr	r2, [r7, #16]
2000692e:	f107 010c 	add.w	r1, r7, #12
20006932:	3202      	adds	r2, #2
20006934:	0092      	lsls	r2, r2, #2
20006936:	300c      	adds	r0, #12
20006938:	f7fc ff52 	bl	200037e0 <memcpy>
2000693c:	f8d8 304c 	ldr.w	r3, [r8, #76]	; 0x4c
20006940:	687a      	ldr	r2, [r7, #4]
20006942:	f853 1022 	ldr.w	r1, [r3, r2, lsl #2]
20006946:	6039      	str	r1, [r7, #0]
20006948:	f843 7022 	str.w	r7, [r3, r2, lsl #2]
2000694c:	462f      	mov	r7, r5
2000694e:	e7df      	b.n	20006910 <__multadd+0x3c>

20006950 <__hi0bits>:
__hi0bits():
20006950:	0c02      	lsrs	r2, r0, #16
20006952:	0412      	lsls	r2, r2, #16
20006954:	4603      	mov	r3, r0
20006956:	b9ca      	cbnz	r2, 2000698c <__hi0bits+0x3c>
20006958:	0403      	lsls	r3, r0, #16
2000695a:	2010      	movs	r0, #16
2000695c:	f013 4f7f 	tst.w	r3, #4278190080	; 0xff000000
20006960:	bf04      	itt	eq
20006962:	021b      	lsleq	r3, r3, #8
20006964:	3008      	addeq	r0, #8
20006966:	f013 4f70 	tst.w	r3, #4026531840	; 0xf0000000
2000696a:	bf04      	itt	eq
2000696c:	011b      	lsleq	r3, r3, #4
2000696e:	3004      	addeq	r0, #4
20006970:	f013 4f40 	tst.w	r3, #3221225472	; 0xc0000000
20006974:	bf04      	itt	eq
20006976:	009b      	lsleq	r3, r3, #2
20006978:	3002      	addeq	r0, #2
2000697a:	2b00      	cmp	r3, #0
2000697c:	db05      	blt.n	2000698a <__hi0bits+0x3a>
2000697e:	f013 4f80 	tst.w	r3, #1073741824	; 0x40000000
20006982:	f100 0001 	add.w	r0, r0, #1
20006986:	bf08      	it	eq
20006988:	2020      	moveq	r0, #32
2000698a:	4770      	bx	lr
2000698c:	2000      	movs	r0, #0
2000698e:	e7e5      	b.n	2000695c <__hi0bits+0xc>

20006990 <__lo0bits>:
__lo0bits():
20006990:	6803      	ldr	r3, [r0, #0]
20006992:	4601      	mov	r1, r0
20006994:	f013 0207 	ands.w	r2, r3, #7
20006998:	d007      	beq.n	200069aa <__lo0bits+0x1a>
2000699a:	07da      	lsls	r2, r3, #31
2000699c:	d420      	bmi.n	200069e0 <__lo0bits+0x50>
2000699e:	0798      	lsls	r0, r3, #30
200069a0:	d522      	bpl.n	200069e8 <__lo0bits+0x58>
200069a2:	085b      	lsrs	r3, r3, #1
200069a4:	2001      	movs	r0, #1
200069a6:	600b      	str	r3, [r1, #0]
200069a8:	4770      	bx	lr
200069aa:	b298      	uxth	r0, r3
200069ac:	b1a8      	cbz	r0, 200069da <__lo0bits+0x4a>
200069ae:	4610      	mov	r0, r2
200069b0:	f013 0fff 	tst.w	r3, #255	; 0xff
200069b4:	bf04      	itt	eq
200069b6:	0a1b      	lsreq	r3, r3, #8
200069b8:	3008      	addeq	r0, #8
200069ba:	071a      	lsls	r2, r3, #28
200069bc:	bf04      	itt	eq
200069be:	091b      	lsreq	r3, r3, #4
200069c0:	3004      	addeq	r0, #4
200069c2:	079a      	lsls	r2, r3, #30
200069c4:	bf04      	itt	eq
200069c6:	089b      	lsreq	r3, r3, #2
200069c8:	3002      	addeq	r0, #2
200069ca:	07da      	lsls	r2, r3, #31
200069cc:	d403      	bmi.n	200069d6 <__lo0bits+0x46>
200069ce:	085b      	lsrs	r3, r3, #1
200069d0:	f100 0001 	add.w	r0, r0, #1
200069d4:	d006      	beq.n	200069e4 <__lo0bits+0x54>
200069d6:	600b      	str	r3, [r1, #0]
200069d8:	4770      	bx	lr
200069da:	2010      	movs	r0, #16
200069dc:	0c1b      	lsrs	r3, r3, #16
200069de:	e7e7      	b.n	200069b0 <__lo0bits+0x20>
200069e0:	2000      	movs	r0, #0
200069e2:	4770      	bx	lr
200069e4:	2020      	movs	r0, #32
200069e6:	4770      	bx	lr
200069e8:	089b      	lsrs	r3, r3, #2
200069ea:	2002      	movs	r0, #2
200069ec:	600b      	str	r3, [r1, #0]
200069ee:	4770      	bx	lr

200069f0 <__i2b>:
__i2b():
200069f0:	b510      	push	{r4, lr}
200069f2:	460c      	mov	r4, r1
200069f4:	2101      	movs	r1, #1
200069f6:	f7ff ff3d 	bl	20006874 <_Balloc>
200069fa:	2201      	movs	r2, #1
200069fc:	e9c0 2404 	strd	r2, r4, [r0, #16]
20006a00:	bd10      	pop	{r4, pc}
20006a02:	bf00      	nop

20006a04 <__multiply>:
__multiply():
20006a04:	e92d 4ff0 	stmdb	sp!, {r4, r5, r6, r7, r8, r9, sl, fp, lr}
20006a08:	690d      	ldr	r5, [r1, #16]
20006a0a:	6917      	ldr	r7, [r2, #16]
20006a0c:	460e      	mov	r6, r1
20006a0e:	42bd      	cmp	r5, r7
20006a10:	4614      	mov	r4, r2
20006a12:	b085      	sub	sp, #20
20006a14:	db05      	blt.n	20006a22 <__multiply+0x1e>
20006a16:	463a      	mov	r2, r7
20006a18:	4623      	mov	r3, r4
20006a1a:	462f      	mov	r7, r5
20006a1c:	460c      	mov	r4, r1
20006a1e:	4615      	mov	r5, r2
20006a20:	461e      	mov	r6, r3
20006a22:	68a3      	ldr	r3, [r4, #8]
20006a24:	6861      	ldr	r1, [r4, #4]
20006a26:	eb07 0805 	add.w	r8, r7, r5
20006a2a:	4543      	cmp	r3, r8
20006a2c:	bfb8      	it	lt
20006a2e:	3101      	addlt	r1, #1
20006a30:	f7ff ff20 	bl	20006874 <_Balloc>
20006a34:	f100 0914 	add.w	r9, r0, #20
20006a38:	eb09 0a88 	add.w	sl, r9, r8, lsl #2
20006a3c:	45d1      	cmp	r9, sl
20006a3e:	9001      	str	r0, [sp, #4]
20006a40:	d205      	bcs.n	20006a4e <__multiply+0x4a>
20006a42:	464b      	mov	r3, r9
20006a44:	2200      	movs	r2, #0
20006a46:	f843 2b04 	str.w	r2, [r3], #4
20006a4a:	459a      	cmp	sl, r3
20006a4c:	d8fb      	bhi.n	20006a46 <__multiply+0x42>
20006a4e:	f106 0e14 	add.w	lr, r6, #20
20006a52:	eb0e 0b85 	add.w	fp, lr, r5, lsl #2
20006a56:	f104 0314 	add.w	r3, r4, #20
20006a5a:	45de      	cmp	lr, fp
20006a5c:	461a      	mov	r2, r3
20006a5e:	eb03 0787 	add.w	r7, r3, r7, lsl #2
20006a62:	d25f      	bcs.n	20006b24 <__multiply+0x120>
20006a64:	1b3b      	subs	r3, r7, r4
20006a66:	3b15      	subs	r3, #21
20006a68:	f023 0303 	bic.w	r3, r3, #3
20006a6c:	3304      	adds	r3, #4
20006a6e:	3415      	adds	r4, #21
20006a70:	42a7      	cmp	r7, r4
20006a72:	bf38      	it	cc
20006a74:	2304      	movcc	r3, #4
20006a76:	e9cd a802 	strd	sl, r8, [sp, #8]
20006a7a:	4698      	mov	r8, r3
20006a7c:	4692      	mov	sl, r2
20006a7e:	e005      	b.n	20006a8c <__multiply+0x88>
20006a80:	0c00      	lsrs	r0, r0, #16
20006a82:	d129      	bne.n	20006ad8 <__multiply+0xd4>
20006a84:	45f3      	cmp	fp, lr
20006a86:	f109 0904 	add.w	r9, r9, #4
20006a8a:	d949      	bls.n	20006b20 <__multiply+0x11c>
20006a8c:	f85e 0b04 	ldr.w	r0, [lr], #4
20006a90:	b286      	uxth	r6, r0
20006a92:	2e00      	cmp	r6, #0
20006a94:	d0f4      	beq.n	20006a80 <__multiply+0x7c>
20006a96:	4655      	mov	r5, sl
20006a98:	464c      	mov	r4, r9
20006a9a:	2300      	movs	r3, #0
20006a9c:	f855 1b04 	ldr.w	r1, [r5], #4
20006aa0:	6820      	ldr	r0, [r4, #0]
20006aa2:	b28a      	uxth	r2, r1
20006aa4:	fa1f fc80 	uxth.w	ip, r0
20006aa8:	fb06 c202 	mla	r2, r6, r2, ip
20006aac:	0c09      	lsrs	r1, r1, #16
20006aae:	0c00      	lsrs	r0, r0, #16
20006ab0:	fb06 0101 	mla	r1, r6, r1, r0
20006ab4:	4413      	add	r3, r2
20006ab6:	eb01 4213 	add.w	r2, r1, r3, lsr #16
20006aba:	b29b      	uxth	r3, r3
20006abc:	ea43 4302 	orr.w	r3, r3, r2, lsl #16
20006ac0:	42af      	cmp	r7, r5
20006ac2:	f844 3b04 	str.w	r3, [r4], #4
20006ac6:	ea4f 4312 	mov.w	r3, r2, lsr #16
20006aca:	d8e7      	bhi.n	20006a9c <__multiply+0x98>
20006acc:	f849 3008 	str.w	r3, [r9, r8]
20006ad0:	f85e 0c04 	ldr.w	r0, [lr, #-4]
20006ad4:	0c00      	lsrs	r0, r0, #16
20006ad6:	d0d5      	beq.n	20006a84 <__multiply+0x80>
20006ad8:	f8d9 3000 	ldr.w	r3, [r9]
20006adc:	4654      	mov	r4, sl
20006ade:	461e      	mov	r6, r3
20006ae0:	464d      	mov	r5, r9
20006ae2:	f04f 0c00 	mov.w	ip, #0
20006ae6:	8822      	ldrh	r2, [r4, #0]
20006ae8:	0c36      	lsrs	r6, r6, #16
20006aea:	fb00 6602 	mla	r6, r0, r2, r6
20006aee:	b29b      	uxth	r3, r3
20006af0:	44b4      	add	ip, r6
20006af2:	ea43 430c 	orr.w	r3, r3, ip, lsl #16
20006af6:	f845 3b04 	str.w	r3, [r5], #4
20006afa:	f854 3b04 	ldr.w	r3, [r4], #4
20006afe:	682e      	ldr	r6, [r5, #0]
20006b00:	0c1b      	lsrs	r3, r3, #16
20006b02:	b2b2      	uxth	r2, r6
20006b04:	fb00 2303 	mla	r3, r0, r3, r2
20006b08:	42a7      	cmp	r7, r4
20006b0a:	eb03 431c 	add.w	r3, r3, ip, lsr #16
20006b0e:	ea4f 4c13 	mov.w	ip, r3, lsr #16
20006b12:	d8e8      	bhi.n	20006ae6 <__multiply+0xe2>
20006b14:	45f3      	cmp	fp, lr
20006b16:	f849 3008 	str.w	r3, [r9, r8]
20006b1a:	f109 0904 	add.w	r9, r9, #4
20006b1e:	d8b5      	bhi.n	20006a8c <__multiply+0x88>
20006b20:	e9dd a802 	ldrd	sl, r8, [sp, #8]
20006b24:	f1b8 0f00 	cmp.w	r8, #0
20006b28:	dc03      	bgt.n	20006b32 <__multiply+0x12e>
20006b2a:	e006      	b.n	20006b3a <__multiply+0x136>
20006b2c:	f1b8 0801 	subs.w	r8, r8, #1
20006b30:	d003      	beq.n	20006b3a <__multiply+0x136>
20006b32:	f85a 3d04 	ldr.w	r3, [sl, #-4]!
20006b36:	2b00      	cmp	r3, #0
20006b38:	d0f8      	beq.n	20006b2c <__multiply+0x128>
20006b3a:	9801      	ldr	r0, [sp, #4]
20006b3c:	f8c0 8010 	str.w	r8, [r0, #16]
20006b40:	b005      	add	sp, #20
20006b42:	e8bd 8ff0 	ldmia.w	sp!, {r4, r5, r6, r7, r8, r9, sl, fp, pc}
20006b46:	bf00      	nop

20006b48 <__pow5mult>:
__pow5mult():
20006b48:	f012 0303 	ands.w	r3, r2, #3
20006b4c:	e92d 41f0 	stmdb	sp!, {r4, r5, r6, r7, r8, lr}
20006b50:	4614      	mov	r4, r2
20006b52:	4607      	mov	r7, r0
20006b54:	d12e      	bne.n	20006bb4 <__pow5mult+0x6c>
20006b56:	460e      	mov	r6, r1
20006b58:	10a4      	asrs	r4, r4, #2
20006b5a:	d01c      	beq.n	20006b96 <__pow5mult+0x4e>
20006b5c:	6cbd      	ldr	r5, [r7, #72]	; 0x48
20006b5e:	b395      	cbz	r5, 20006bc6 <__pow5mult+0x7e>
20006b60:	07e3      	lsls	r3, r4, #31
20006b62:	f04f 0800 	mov.w	r8, #0
20006b66:	d406      	bmi.n	20006b76 <__pow5mult+0x2e>
20006b68:	1064      	asrs	r4, r4, #1
20006b6a:	d014      	beq.n	20006b96 <__pow5mult+0x4e>
20006b6c:	6828      	ldr	r0, [r5, #0]
20006b6e:	b1a8      	cbz	r0, 20006b9c <__pow5mult+0x54>
20006b70:	4605      	mov	r5, r0
20006b72:	07e3      	lsls	r3, r4, #31
20006b74:	d5f8      	bpl.n	20006b68 <__pow5mult+0x20>
20006b76:	462a      	mov	r2, r5
20006b78:	4631      	mov	r1, r6
20006b7a:	4638      	mov	r0, r7
20006b7c:	f7ff ff42 	bl	20006a04 <__multiply>
20006b80:	b1b6      	cbz	r6, 20006bb0 <__pow5mult+0x68>
20006b82:	6871      	ldr	r1, [r6, #4]
20006b84:	6cfb      	ldr	r3, [r7, #76]	; 0x4c
20006b86:	1064      	asrs	r4, r4, #1
20006b88:	f853 2021 	ldr.w	r2, [r3, r1, lsl #2]
20006b8c:	6032      	str	r2, [r6, #0]
20006b8e:	f843 6021 	str.w	r6, [r3, r1, lsl #2]
20006b92:	4606      	mov	r6, r0
20006b94:	d1ea      	bne.n	20006b6c <__pow5mult+0x24>
20006b96:	4630      	mov	r0, r6
20006b98:	e8bd 81f0 	ldmia.w	sp!, {r4, r5, r6, r7, r8, pc}
20006b9c:	462a      	mov	r2, r5
20006b9e:	4629      	mov	r1, r5
20006ba0:	4638      	mov	r0, r7
20006ba2:	f7ff ff2f 	bl	20006a04 <__multiply>
20006ba6:	6028      	str	r0, [r5, #0]
20006ba8:	4605      	mov	r5, r0
20006baa:	f8c0 8000 	str.w	r8, [r0]
20006bae:	e7e0      	b.n	20006b72 <__pow5mult+0x2a>
20006bb0:	4606      	mov	r6, r0
20006bb2:	e7d9      	b.n	20006b68 <__pow5mult+0x20>
20006bb4:	4a0b      	ldr	r2, [pc, #44]	; (20006be4 <__pow5mult+0x9c>)
20006bb6:	3b01      	subs	r3, #1
20006bb8:	f852 2023 	ldr.w	r2, [r2, r3, lsl #2]
20006bbc:	2300      	movs	r3, #0
20006bbe:	f7ff fe89 	bl	200068d4 <__multadd>
20006bc2:	4606      	mov	r6, r0
20006bc4:	e7c8      	b.n	20006b58 <__pow5mult+0x10>
20006bc6:	2101      	movs	r1, #1
20006bc8:	4638      	mov	r0, r7
20006bca:	f7ff fe53 	bl	20006874 <_Balloc>
20006bce:	f240 2171 	movw	r1, #625	; 0x271
20006bd2:	2201      	movs	r2, #1
20006bd4:	2300      	movs	r3, #0
20006bd6:	e9c0 2104 	strd	r2, r1, [r0, #16]
20006bda:	4605      	mov	r5, r0
20006bdc:	64b8      	str	r0, [r7, #72]	; 0x48
20006bde:	6003      	str	r3, [r0, #0]
20006be0:	e7be      	b.n	20006b60 <__pow5mult+0x18>
20006be2:	bf00      	nop
20006be4:	20008810 	.word	0x20008810

20006be8 <__lshift>:
__lshift():
20006be8:	e92d 47f0 	stmdb	sp!, {r4, r5, r6, r7, r8, r9, sl, lr}
20006bec:	690e      	ldr	r6, [r1, #16]
20006bee:	688b      	ldr	r3, [r1, #8]
20006bf0:	eb06 1662 	add.w	r6, r6, r2, asr #5
20006bf4:	1c75      	adds	r5, r6, #1
20006bf6:	429d      	cmp	r5, r3
20006bf8:	460c      	mov	r4, r1
20006bfa:	4690      	mov	r8, r2
20006bfc:	4607      	mov	r7, r0
20006bfe:	6849      	ldr	r1, [r1, #4]
20006c00:	ea4f 1962 	mov.w	r9, r2, asr #5
20006c04:	dd04      	ble.n	20006c10 <__lshift+0x28>
20006c06:	005b      	lsls	r3, r3, #1
20006c08:	429d      	cmp	r5, r3
20006c0a:	f101 0101 	add.w	r1, r1, #1
20006c0e:	dcfa      	bgt.n	20006c06 <__lshift+0x1e>
20006c10:	4638      	mov	r0, r7
20006c12:	f7ff fe2f 	bl	20006874 <_Balloc>
20006c16:	f1b9 0f00 	cmp.w	r9, #0
20006c1a:	f100 0114 	add.w	r1, r0, #20
20006c1e:	dd0e      	ble.n	20006c3e <__lshift+0x56>
20006c20:	460b      	mov	r3, r1
20006c22:	2200      	movs	r2, #0
20006c24:	f109 0905 	add.w	r9, r9, #5
20006c28:	ea4f 0c89 	mov.w	ip, r9, lsl #2
20006c2c:	eb00 0989 	add.w	r9, r0, r9, lsl #2
20006c30:	f843 2b04 	str.w	r2, [r3], #4
20006c34:	454b      	cmp	r3, r9
20006c36:	d1fb      	bne.n	20006c30 <__lshift+0x48>
20006c38:	f1ac 0314 	sub.w	r3, ip, #20
20006c3c:	4419      	add	r1, r3
20006c3e:	6922      	ldr	r2, [r4, #16]
20006c40:	f104 0314 	add.w	r3, r4, #20
20006c44:	f018 081f 	ands.w	r8, r8, #31
20006c48:	eb03 0c82 	add.w	ip, r3, r2, lsl #2
20006c4c:	d02c      	beq.n	20006ca8 <__lshift+0xc0>
20006c4e:	468e      	mov	lr, r1
20006c50:	f04f 0a00 	mov.w	sl, #0
20006c54:	f1c8 0920 	rsb	r9, r8, #32
20006c58:	681a      	ldr	r2, [r3, #0]
20006c5a:	fa02 f208 	lsl.w	r2, r2, r8
20006c5e:	ea42 020a 	orr.w	r2, r2, sl
20006c62:	f84e 2b04 	str.w	r2, [lr], #4
20006c66:	f853 2b04 	ldr.w	r2, [r3], #4
20006c6a:	459c      	cmp	ip, r3
20006c6c:	fa22 fa09 	lsr.w	sl, r2, r9
20006c70:	d8f2      	bhi.n	20006c58 <__lshift+0x70>
20006c72:	ebac 0304 	sub.w	r3, ip, r4
20006c76:	3b15      	subs	r3, #21
20006c78:	f023 0303 	bic.w	r3, r3, #3
20006c7c:	3304      	adds	r3, #4
20006c7e:	f104 0215 	add.w	r2, r4, #21
20006c82:	4594      	cmp	ip, r2
20006c84:	bf38      	it	cc
20006c86:	2304      	movcc	r3, #4
20006c88:	f1ba 0f00 	cmp.w	sl, #0
20006c8c:	bf18      	it	ne
20006c8e:	462e      	movne	r6, r5
20006c90:	f841 a003 	str.w	sl, [r1, r3]
20006c94:	6cfb      	ldr	r3, [r7, #76]	; 0x4c
20006c96:	6862      	ldr	r2, [r4, #4]
20006c98:	6106      	str	r6, [r0, #16]
20006c9a:	f853 1022 	ldr.w	r1, [r3, r2, lsl #2]
20006c9e:	6021      	str	r1, [r4, #0]
20006ca0:	f843 4022 	str.w	r4, [r3, r2, lsl #2]
20006ca4:	e8bd 87f0 	ldmia.w	sp!, {r4, r5, r6, r7, r8, r9, sl, pc}
20006ca8:	3904      	subs	r1, #4
20006caa:	f853 2b04 	ldr.w	r2, [r3], #4
20006cae:	459c      	cmp	ip, r3
20006cb0:	f841 2f04 	str.w	r2, [r1, #4]!
20006cb4:	d8f9      	bhi.n	20006caa <__lshift+0xc2>
20006cb6:	e7ed      	b.n	20006c94 <__lshift+0xac>

20006cb8 <__mcmp>:
__mcmp():
20006cb8:	b430      	push	{r4, r5}
20006cba:	690b      	ldr	r3, [r1, #16]
20006cbc:	4605      	mov	r5, r0
20006cbe:	6900      	ldr	r0, [r0, #16]
20006cc0:	1ac0      	subs	r0, r0, r3
20006cc2:	d111      	bne.n	20006ce8 <__mcmp+0x30>
20006cc4:	3514      	adds	r5, #20
20006cc6:	3114      	adds	r1, #20
20006cc8:	eb01 0283 	add.w	r2, r1, r3, lsl #2
20006ccc:	eb05 0383 	add.w	r3, r5, r3, lsl #2
20006cd0:	e001      	b.n	20006cd6 <__mcmp+0x1e>
20006cd2:	429d      	cmp	r5, r3
20006cd4:	d208      	bcs.n	20006ce8 <__mcmp+0x30>
20006cd6:	f853 4d04 	ldr.w	r4, [r3, #-4]!
20006cda:	f852 1d04 	ldr.w	r1, [r2, #-4]!
20006cde:	428c      	cmp	r4, r1
20006ce0:	d0f7      	beq.n	20006cd2 <__mcmp+0x1a>
20006ce2:	d203      	bcs.n	20006cec <__mcmp+0x34>
20006ce4:	f04f 30ff 	mov.w	r0, #4294967295
20006ce8:	bc30      	pop	{r4, r5}
20006cea:	4770      	bx	lr
20006cec:	2001      	movs	r0, #1
20006cee:	bc30      	pop	{r4, r5}
20006cf0:	4770      	bx	lr
20006cf2:	bf00      	nop

20006cf4 <__mdiff>:
__mdiff():
20006cf4:	e92d 4ff8 	stmdb	sp!, {r3, r4, r5, r6, r7, r8, r9, sl, fp, lr}
20006cf8:	4692      	mov	sl, r2
20006cfa:	690b      	ldr	r3, [r1, #16]
20006cfc:	6912      	ldr	r2, [r2, #16]
20006cfe:	468b      	mov	fp, r1
20006d00:	1a9b      	subs	r3, r3, r2
20006d02:	2b00      	cmp	r3, #0
20006d04:	d119      	bne.n	20006d3a <__mdiff+0x46>
20006d06:	f101 0814 	add.w	r8, r1, #20
20006d0a:	f10a 0914 	add.w	r9, sl, #20
20006d0e:	eb08 0382 	add.w	r3, r8, r2, lsl #2
20006d12:	eb09 0282 	add.w	r2, r9, r2, lsl #2
20006d16:	e001      	b.n	20006d1c <__mdiff+0x28>
20006d18:	4598      	cmp	r8, r3
20006d1a:	d27e      	bcs.n	20006e1a <__mdiff+0x126>
20006d1c:	f853 4d04 	ldr.w	r4, [r3, #-4]!
20006d20:	f852 1d04 	ldr.w	r1, [r2, #-4]!
20006d24:	428c      	cmp	r4, r1
20006d26:	d0f7      	beq.n	20006d18 <__mdiff+0x24>
20006d28:	d20c      	bcs.n	20006d44 <__mdiff+0x50>
20006d2a:	4642      	mov	r2, r8
20006d2c:	465b      	mov	r3, fp
20006d2e:	46c8      	mov	r8, r9
20006d30:	46d3      	mov	fp, sl
20006d32:	4691      	mov	r9, r2
20006d34:	469a      	mov	sl, r3
20006d36:	2701      	movs	r7, #1
20006d38:	e005      	b.n	20006d46 <__mdiff+0x52>
20006d3a:	db66      	blt.n	20006e0a <__mdiff+0x116>
20006d3c:	f101 0814 	add.w	r8, r1, #20
20006d40:	f10a 0914 	add.w	r9, sl, #20
20006d44:	2700      	movs	r7, #0
20006d46:	f8db 1004 	ldr.w	r1, [fp, #4]
20006d4a:	f7ff fd93 	bl	20006874 <_Balloc>
20006d4e:	f100 0614 	add.w	r6, r0, #20
20006d52:	46b4      	mov	ip, r6
20006d54:	464d      	mov	r5, r9
20006d56:	2400      	movs	r4, #0
20006d58:	f8db 1010 	ldr.w	r1, [fp, #16]
20006d5c:	f8da 3010 	ldr.w	r3, [sl, #16]
20006d60:	eb08 0e81 	add.w	lr, r8, r1, lsl #2
20006d64:	60c7      	str	r7, [r0, #12]
20006d66:	eb09 0a83 	add.w	sl, r9, r3, lsl #2
20006d6a:	f1a8 0704 	sub.w	r7, r8, #4
20006d6e:	f857 bf04 	ldr.w	fp, [r7, #4]!
20006d72:	f855 2b04 	ldr.w	r2, [r5], #4
20006d76:	fa1f f38b 	uxth.w	r3, fp
20006d7a:	441c      	add	r4, r3
20006d7c:	b293      	uxth	r3, r2
20006d7e:	0c12      	lsrs	r2, r2, #16
20006d80:	1ae4      	subs	r4, r4, r3
20006d82:	ebc2 421b 	rsb	r2, r2, fp, lsr #16
20006d86:	eb02 4224 	add.w	r2, r2, r4, asr #16
20006d8a:	b2a4      	uxth	r4, r4
20006d8c:	ea44 4302 	orr.w	r3, r4, r2, lsl #16
20006d90:	45aa      	cmp	sl, r5
20006d92:	f84c 3b04 	str.w	r3, [ip], #4
20006d96:	ea4f 4422 	mov.w	r4, r2, asr #16
20006d9a:	d8e8      	bhi.n	20006d6e <__mdiff+0x7a>
20006d9c:	ea6f 0209 	mvn.w	r2, r9
20006da0:	f109 0901 	add.w	r9, r9, #1
20006da4:	4452      	add	r2, sl
20006da6:	45ca      	cmp	sl, r9
20006da8:	f022 0503 	bic.w	r5, r2, #3
20006dac:	f105 0504 	add.w	r5, r5, #4
20006db0:	bf38      	it	cc
20006db2:	2504      	movcc	r5, #4
20006db4:	f022 0203 	bic.w	r2, r2, #3
20006db8:	bf38      	it	cc
20006dba:	2200      	movcc	r2, #0
20006dbc:	44a8      	add	r8, r5
20006dbe:	45c6      	cmp	lr, r8
20006dc0:	4435      	add	r5, r6
20006dc2:	4416      	add	r6, r2
20006dc4:	d918      	bls.n	20006df8 <__mdiff+0x104>
20006dc6:	462e      	mov	r6, r5
20006dc8:	4642      	mov	r2, r8
20006dca:	f852 7b04 	ldr.w	r7, [r2], #4
20006dce:	b2bb      	uxth	r3, r7
20006dd0:	4423      	add	r3, r4
20006dd2:	141c      	asrs	r4, r3, #16
20006dd4:	eb04 4417 	add.w	r4, r4, r7, lsr #16
20006dd8:	b29b      	uxth	r3, r3
20006dda:	ea43 4304 	orr.w	r3, r3, r4, lsl #16
20006dde:	4596      	cmp	lr, r2
20006de0:	f846 3b04 	str.w	r3, [r6], #4
20006de4:	ea4f 4424 	mov.w	r4, r4, asr #16
20006de8:	d8ef      	bhi.n	20006dca <__mdiff+0xd6>
20006dea:	f10e 36ff 	add.w	r6, lr, #4294967295
20006dee:	eba6 0608 	sub.w	r6, r6, r8
20006df2:	f026 0603 	bic.w	r6, r6, #3
20006df6:	442e      	add	r6, r5
20006df8:	b923      	cbnz	r3, 20006e04 <__mdiff+0x110>
20006dfa:	f856 3d04 	ldr.w	r3, [r6, #-4]!
20006dfe:	3901      	subs	r1, #1
20006e00:	2b00      	cmp	r3, #0
20006e02:	d0fa      	beq.n	20006dfa <__mdiff+0x106>
20006e04:	6101      	str	r1, [r0, #16]
20006e06:	e8bd 8ff8 	ldmia.w	sp!, {r3, r4, r5, r6, r7, r8, r9, sl, fp, pc}
20006e0a:	46d3      	mov	fp, sl
20006e0c:	f10a 0814 	add.w	r8, sl, #20
20006e10:	2701      	movs	r7, #1
20006e12:	468a      	mov	sl, r1
20006e14:	f101 0914 	add.w	r9, r1, #20
20006e18:	e795      	b.n	20006d46 <__mdiff+0x52>
20006e1a:	2100      	movs	r1, #0
20006e1c:	f7ff fd2a 	bl	20006874 <_Balloc>
20006e20:	2201      	movs	r2, #1
20006e22:	2300      	movs	r3, #0
20006e24:	e9c0 2304 	strd	r2, r3, [r0, #16]
20006e28:	e8bd 8ff8 	ldmia.w	sp!, {r3, r4, r5, r6, r7, r8, r9, sl, fp, pc}

20006e2c <__d2b>:
__d2b():
20006e2c:	b5f0      	push	{r4, r5, r6, r7, lr}
20006e2e:	461c      	mov	r4, r3
20006e30:	b083      	sub	sp, #12
20006e32:	2101      	movs	r1, #1
20006e34:	4617      	mov	r7, r2
20006e36:	9e08      	ldr	r6, [sp, #32]
20006e38:	f7ff fd1c 	bl	20006874 <_Balloc>
20006e3c:	4623      	mov	r3, r4
20006e3e:	f3c4 550a 	ubfx	r5, r4, #20, #11
20006e42:	f3c3 0313 	ubfx	r3, r3, #0, #20
20006e46:	4604      	mov	r4, r0
20006e48:	b10d      	cbz	r5, 20006e4e <__d2b+0x22>
20006e4a:	f443 1380 	orr.w	r3, r3, #1048576	; 0x100000
20006e4e:	2f00      	cmp	r7, #0
20006e50:	9301      	str	r3, [sp, #4]
20006e52:	d01a      	beq.n	20006e8a <__d2b+0x5e>
20006e54:	4668      	mov	r0, sp
20006e56:	9700      	str	r7, [sp, #0]
20006e58:	f7ff fd9a 	bl	20006990 <__lo0bits>
20006e5c:	2800      	cmp	r0, #0
20006e5e:	d12e      	bne.n	20006ebe <__d2b+0x92>
20006e60:	e9dd 2300 	ldrd	r2, r3, [sp]
20006e64:	6162      	str	r2, [r4, #20]
20006e66:	2b00      	cmp	r3, #0
20006e68:	bf14      	ite	ne
20006e6a:	2102      	movne	r1, #2
20006e6c:	2101      	moveq	r1, #1
20006e6e:	61a3      	str	r3, [r4, #24]
20006e70:	6121      	str	r1, [r4, #16]
20006e72:	b1ad      	cbz	r5, 20006ea0 <__d2b+0x74>
20006e74:	f2a5 4333 	subw	r3, r5, #1075	; 0x433
20006e78:	4403      	add	r3, r0
20006e7a:	6033      	str	r3, [r6, #0]
20006e7c:	9b09      	ldr	r3, [sp, #36]	; 0x24
20006e7e:	f1c0 0035 	rsb	r0, r0, #53	; 0x35
20006e82:	6018      	str	r0, [r3, #0]
20006e84:	4620      	mov	r0, r4
20006e86:	b003      	add	sp, #12
20006e88:	bdf0      	pop	{r4, r5, r6, r7, pc}
20006e8a:	a801      	add	r0, sp, #4
20006e8c:	f7ff fd80 	bl	20006990 <__lo0bits>
20006e90:	2301      	movs	r3, #1
20006e92:	9a01      	ldr	r2, [sp, #4]
20006e94:	4619      	mov	r1, r3
20006e96:	e9c4 3204 	strd	r3, r2, [r4, #16]
20006e9a:	3020      	adds	r0, #32
20006e9c:	2d00      	cmp	r5, #0
20006e9e:	d1e9      	bne.n	20006e74 <__d2b+0x48>
20006ea0:	eb04 0381 	add.w	r3, r4, r1, lsl #2
20006ea4:	f2a0 4032 	subw	r0, r0, #1074	; 0x432
20006ea8:	6030      	str	r0, [r6, #0]
20006eaa:	6918      	ldr	r0, [r3, #16]
20006eac:	f7ff fd50 	bl	20006950 <__hi0bits>
20006eb0:	ebc0 1141 	rsb	r1, r0, r1, lsl #5
20006eb4:	4620      	mov	r0, r4
20006eb6:	9b09      	ldr	r3, [sp, #36]	; 0x24
20006eb8:	6019      	str	r1, [r3, #0]
20006eba:	b003      	add	sp, #12
20006ebc:	bdf0      	pop	{r4, r5, r6, r7, pc}
20006ebe:	9b01      	ldr	r3, [sp, #4]
20006ec0:	9900      	ldr	r1, [sp, #0]
20006ec2:	f1c0 0220 	rsb	r2, r0, #32
20006ec6:	fa03 f202 	lsl.w	r2, r3, r2
20006eca:	430a      	orrs	r2, r1
20006ecc:	40c3      	lsrs	r3, r0
20006ece:	9301      	str	r3, [sp, #4]
20006ed0:	6162      	str	r2, [r4, #20]
20006ed2:	e7c8      	b.n	20006e66 <__d2b+0x3a>

20006ed4 <frexp>:
frexp():
20006ed4:	b5f8      	push	{r3, r4, r5, r6, r7, lr}
20006ed6:	4617      	mov	r7, r2
20006ed8:	2200      	movs	r2, #0
20006eda:	f8df c060 	ldr.w	ip, [pc, #96]	; 20006f3c <frexp+0x68>
20006ede:	f021 4300 	bic.w	r3, r1, #2147483648	; 0x80000000
20006ee2:	4563      	cmp	r3, ip
20006ee4:	4604      	mov	r4, r0
20006ee6:	460d      	mov	r5, r1
20006ee8:	603a      	str	r2, [r7, #0]
20006eea:	dc22      	bgt.n	20006f32 <frexp+0x5e>
20006eec:	4684      	mov	ip, r0
20006eee:	ea53 0c0c 	orrs.w	ip, r3, ip
20006ef2:	d01e      	beq.n	20006f32 <frexp+0x5e>
20006ef4:	f8df c048 	ldr.w	ip, [pc, #72]	; 20006f40 <frexp+0x6c>
20006ef8:	460e      	mov	r6, r1
20006efa:	ea01 0c0c 	and.w	ip, r1, ip
20006efe:	f1bc 0f00 	cmp.w	ip, #0
20006f02:	d109      	bne.n	20006f18 <frexp+0x44>
20006f04:	2200      	movs	r2, #0
20006f06:	4b0c      	ldr	r3, [pc, #48]	; (20006f38 <frexp+0x64>)
20006f08:	f000 fdaa 	bl	20007a60 <__aeabi_dmul>
20006f0c:	f06f 0235 	mvn.w	r2, #53	; 0x35
20006f10:	4604      	mov	r4, r0
20006f12:	460e      	mov	r6, r1
20006f14:	f021 4300 	bic.w	r3, r1, #2147483648	; 0x80000000
20006f18:	f026 46ff 	bic.w	r6, r6, #2139095040	; 0x7f800000
20006f1c:	151b      	asrs	r3, r3, #20
20006f1e:	f426 06e0 	bic.w	r6, r6, #7340032	; 0x700000
20006f22:	f2a3 33fe 	subw	r3, r3, #1022	; 0x3fe
20006f26:	f046 557f 	orr.w	r5, r6, #1069547520	; 0x3fc00000
20006f2a:	4413      	add	r3, r2
20006f2c:	f445 1500 	orr.w	r5, r5, #2097152	; 0x200000
20006f30:	603b      	str	r3, [r7, #0]
20006f32:	4620      	mov	r0, r4
20006f34:	4629      	mov	r1, r5
20006f36:	bdf8      	pop	{r3, r4, r5, r6, r7, pc}
20006f38:	43500000 	.word	0x43500000
20006f3c:	7fefffff 	.word	0x7fefffff
20006f40:	7ff00000 	.word	0x7ff00000

20006f44 <strlen>:
strlen():
20006f44:	f020 0103 	bic.w	r1, r0, #3
20006f48:	f010 0003 	ands.w	r0, r0, #3
20006f4c:	f1c0 0000 	rsb	r0, r0, #0
20006f50:	f851 3b04 	ldr.w	r3, [r1], #4
20006f54:	f100 0c04 	add.w	ip, r0, #4
20006f58:	ea4f 0ccc 	mov.w	ip, ip, lsl #3
20006f5c:	f06f 0200 	mvn.w	r2, #0
20006f60:	bf1c      	itt	ne
20006f62:	fa22 f20c 	lsrne.w	r2, r2, ip
20006f66:	4313      	orrne	r3, r2
20006f68:	f04f 0c01 	mov.w	ip, #1
20006f6c:	ea4c 2c0c 	orr.w	ip, ip, ip, lsl #8
20006f70:	ea4c 4c0c 	orr.w	ip, ip, ip, lsl #16
20006f74:	eba3 020c 	sub.w	r2, r3, ip
20006f78:	ea22 0203 	bic.w	r2, r2, r3
20006f7c:	ea12 12cc 	ands.w	r2, r2, ip, lsl #7
20006f80:	bf04      	itt	eq
20006f82:	f851 3b04 	ldreq.w	r3, [r1], #4
20006f86:	3004      	addeq	r0, #4
20006f88:	d0f4      	beq.n	20006f74 <strlen+0x30>
20006f8a:	f1c2 0100 	rsb	r1, r2, #0
20006f8e:	ea02 0201 	and.w	r2, r2, r1
20006f92:	fab2 f282 	clz	r2, r2
20006f96:	f1c2 021f 	rsb	r2, r2, #31
20006f9a:	eb00 00d2 	add.w	r0, r0, r2, lsr #3
20006f9e:	4770      	bx	lr

20006fa0 <strncpy>:
strncpy():
20006fa0:	b470      	push	{r4, r5, r6}
20006fa2:	ea40 0401 	orr.w	r4, r0, r1
20006fa6:	07a3      	lsls	r3, r4, #30
20006fa8:	d122      	bne.n	20006ff0 <strncpy+0x50>
20006faa:	2a03      	cmp	r2, #3
20006fac:	d920      	bls.n	20006ff0 <strncpy+0x50>
20006fae:	460b      	mov	r3, r1
20006fb0:	4604      	mov	r4, r0
20006fb2:	4619      	mov	r1, r3
20006fb4:	f853 6b04 	ldr.w	r6, [r3], #4
20006fb8:	f1a6 3501 	sub.w	r5, r6, #16843009	; 0x1010101
20006fbc:	ea25 0506 	bic.w	r5, r5, r6
20006fc0:	f015 3f80 	tst.w	r5, #2155905152	; 0x80808080
20006fc4:	d115      	bne.n	20006ff2 <strncpy+0x52>
20006fc6:	3a04      	subs	r2, #4
20006fc8:	2a03      	cmp	r2, #3
20006fca:	4619      	mov	r1, r3
20006fcc:	f844 6b04 	str.w	r6, [r4], #4
20006fd0:	d8ef      	bhi.n	20006fb2 <strncpy+0x12>
20006fd2:	1e4d      	subs	r5, r1, #1
20006fd4:	b152      	cbz	r2, 20006fec <strncpy+0x4c>
20006fd6:	4623      	mov	r3, r4
20006fd8:	f815 1f01 	ldrb.w	r1, [r5, #1]!
20006fdc:	1e56      	subs	r6, r2, #1
20006fde:	f803 1b01 	strb.w	r1, [r3], #1
20006fe2:	b141      	cbz	r1, 20006ff6 <strncpy+0x56>
20006fe4:	4632      	mov	r2, r6
20006fe6:	461c      	mov	r4, r3
20006fe8:	2a00      	cmp	r2, #0
20006fea:	d1f4      	bne.n	20006fd6 <strncpy+0x36>
20006fec:	bc70      	pop	{r4, r5, r6}
20006fee:	4770      	bx	lr
20006ff0:	4604      	mov	r4, r0
20006ff2:	1e4d      	subs	r5, r1, #1
20006ff4:	e7ee      	b.n	20006fd4 <strncpy+0x34>
20006ff6:	4422      	add	r2, r4
20006ff8:	2e00      	cmp	r6, #0
20006ffa:	d0f7      	beq.n	20006fec <strncpy+0x4c>
20006ffc:	f803 1b01 	strb.w	r1, [r3], #1
20007000:	4293      	cmp	r3, r2
20007002:	d1fb      	bne.n	20006ffc <strncpy+0x5c>
20007004:	bc70      	pop	{r4, r5, r6}
20007006:	4770      	bx	lr

20007008 <__ssprint_r>:
__ssprint_r():
20007008:	e92d 4ff0 	stmdb	sp!, {r4, r5, r6, r7, r8, r9, sl, fp, lr}
2000700c:	6893      	ldr	r3, [r2, #8]
2000700e:	4691      	mov	r9, r2
20007010:	b083      	sub	sp, #12
20007012:	2b00      	cmp	r3, #0
20007014:	d06d      	beq.n	200070f2 <__ssprint_r+0xea>
20007016:	6817      	ldr	r7, [r2, #0]
20007018:	4680      	mov	r8, r0
2000701a:	460c      	mov	r4, r1
2000701c:	6808      	ldr	r0, [r1, #0]
2000701e:	688d      	ldr	r5, [r1, #8]
20007020:	3708      	adds	r7, #8
20007022:	e043      	b.n	200070ac <__ssprint_r+0xa4>
20007024:	89a3      	ldrh	r3, [r4, #12]
20007026:	f413 6f90 	tst.w	r3, #1152	; 0x480
2000702a:	d02e      	beq.n	2000708a <__ssprint_r+0x82>
2000702c:	e9d4 1504 	ldrd	r1, r5, [r4, #16]
20007030:	eb05 0545 	add.w	r5, r5, r5, lsl #1
20007034:	eba0 0a01 	sub.w	sl, r0, r1
20007038:	eb05 75d5 	add.w	r5, r5, r5, lsr #31
2000703c:	eb0a 0006 	add.w	r0, sl, r6
20007040:	106d      	asrs	r5, r5, #1
20007042:	3001      	adds	r0, #1
20007044:	42a8      	cmp	r0, r5
20007046:	462a      	mov	r2, r5
20007048:	bf84      	itt	hi
2000704a:	4605      	movhi	r5, r0
2000704c:	462a      	movhi	r2, r5
2000704e:	055b      	lsls	r3, r3, #21
20007050:	d536      	bpl.n	200070c0 <__ssprint_r+0xb8>
20007052:	4611      	mov	r1, r2
20007054:	4640      	mov	r0, r8
20007056:	f7fc f915 	bl	20003284 <_malloc_r>
2000705a:	2800      	cmp	r0, #0
2000705c:	d03a      	beq.n	200070d4 <__ssprint_r+0xcc>
2000705e:	4652      	mov	r2, sl
20007060:	6921      	ldr	r1, [r4, #16]
20007062:	9001      	str	r0, [sp, #4]
20007064:	f7fc fbbc 	bl	200037e0 <memcpy>
20007068:	89a2      	ldrh	r2, [r4, #12]
2000706a:	9b01      	ldr	r3, [sp, #4]
2000706c:	f422 6290 	bic.w	r2, r2, #1152	; 0x480
20007070:	f042 0280 	orr.w	r2, r2, #128	; 0x80
20007074:	81a2      	strh	r2, [r4, #12]
20007076:	eba5 020a 	sub.w	r2, r5, sl
2000707a:	eb03 000a 	add.w	r0, r3, sl
2000707e:	6165      	str	r5, [r4, #20]
20007080:	46b2      	mov	sl, r6
20007082:	4635      	mov	r5, r6
20007084:	6123      	str	r3, [r4, #16]
20007086:	6020      	str	r0, [r4, #0]
20007088:	60a2      	str	r2, [r4, #8]
2000708a:	4659      	mov	r1, fp
2000708c:	4652      	mov	r2, sl
2000708e:	f000 f8c3 	bl	20007218 <memmove>
20007092:	f8d9 3008 	ldr.w	r3, [r9, #8]
20007096:	68a1      	ldr	r1, [r4, #8]
20007098:	6820      	ldr	r0, [r4, #0]
2000709a:	1b4d      	subs	r5, r1, r5
2000709c:	4450      	add	r0, sl
2000709e:	1b9e      	subs	r6, r3, r6
200070a0:	60a5      	str	r5, [r4, #8]
200070a2:	6020      	str	r0, [r4, #0]
200070a4:	f8c9 6008 	str.w	r6, [r9, #8]
200070a8:	b31e      	cbz	r6, 200070f2 <__ssprint_r+0xea>
200070aa:	3708      	adds	r7, #8
200070ac:	e957 b602 	ldrd	fp, r6, [r7, #-8]
200070b0:	2e00      	cmp	r6, #0
200070b2:	d0fa      	beq.n	200070aa <__ssprint_r+0xa2>
200070b4:	42b5      	cmp	r5, r6
200070b6:	46aa      	mov	sl, r5
200070b8:	d9b4      	bls.n	20007024 <__ssprint_r+0x1c>
200070ba:	4635      	mov	r5, r6
200070bc:	46b2      	mov	sl, r6
200070be:	e7e4      	b.n	2000708a <__ssprint_r+0x82>
200070c0:	4640      	mov	r0, r8
200070c2:	f000 f913 	bl	200072ec <_realloc_r>
200070c6:	4603      	mov	r3, r0
200070c8:	2800      	cmp	r0, #0
200070ca:	d1d4      	bne.n	20007076 <__ssprint_r+0x6e>
200070cc:	4640      	mov	r0, r8
200070ce:	6921      	ldr	r1, [r4, #16]
200070d0:	f7ff fa82 	bl	200065d8 <_free_r>
200070d4:	230c      	movs	r3, #12
200070d6:	2200      	movs	r2, #0
200070d8:	f04f 30ff 	mov.w	r0, #4294967295
200070dc:	f8c8 3000 	str.w	r3, [r8]
200070e0:	89a3      	ldrh	r3, [r4, #12]
200070e2:	f043 0340 	orr.w	r3, r3, #64	; 0x40
200070e6:	81a3      	strh	r3, [r4, #12]
200070e8:	e9c9 2201 	strd	r2, r2, [r9, #4]
200070ec:	b003      	add	sp, #12
200070ee:	e8bd 8ff0 	ldmia.w	sp!, {r4, r5, r6, r7, r8, r9, sl, fp, pc}
200070f2:	2000      	movs	r0, #0
200070f4:	f8c9 0004 	str.w	r0, [r9, #4]
200070f8:	b003      	add	sp, #12
200070fa:	e8bd 8ff0 	ldmia.w	sp!, {r4, r5, r6, r7, r8, r9, sl, fp, pc}
200070fe:	bf00      	nop

20007100 <__register_exitproc>:
__register_exitproc():
20007100:	e92d 47f0 	stmdb	sp!, {r4, r5, r6, r7, r8, r9, sl, lr}
20007104:	f8df a080 	ldr.w	sl, [pc, #128]	; 20007188 <__register_exitproc+0x88>
20007108:	4606      	mov	r6, r0
2000710a:	f8da 0000 	ldr.w	r0, [sl]
2000710e:	4698      	mov	r8, r3
20007110:	460f      	mov	r7, r1
20007112:	4691      	mov	r9, r2
20007114:	f7ff fb6a 	bl	200067ec <__retarget_lock_acquire_recursive>
20007118:	4b1a      	ldr	r3, [pc, #104]	; (20007184 <__register_exitproc+0x84>)
2000711a:	681b      	ldr	r3, [r3, #0]
2000711c:	f8d3 4148 	ldr.w	r4, [r3, #328]	; 0x148
20007120:	b324      	cbz	r4, 2000716c <__register_exitproc+0x6c>
20007122:	6865      	ldr	r5, [r4, #4]
20007124:	2d1f      	cmp	r5, #31
20007126:	dc26      	bgt.n	20007176 <__register_exitproc+0x76>
20007128:	b95e      	cbnz	r6, 20007142 <__register_exitproc+0x42>
2000712a:	1c6b      	adds	r3, r5, #1
2000712c:	3502      	adds	r5, #2
2000712e:	f8da 0000 	ldr.w	r0, [sl]
20007132:	6063      	str	r3, [r4, #4]
20007134:	f844 7025 	str.w	r7, [r4, r5, lsl #2]
20007138:	f7ff fb5a 	bl	200067f0 <__retarget_lock_release_recursive>
2000713c:	2000      	movs	r0, #0
2000713e:	e8bd 87f0 	ldmia.w	sp!, {r4, r5, r6, r7, r8, r9, sl, pc}
20007142:	2301      	movs	r3, #1
20007144:	eb04 0185 	add.w	r1, r4, r5, lsl #2
20007148:	f8c1 9088 	str.w	r9, [r1, #136]	; 0x88
2000714c:	f8d4 2188 	ldr.w	r2, [r4, #392]	; 0x188
20007150:	40ab      	lsls	r3, r5
20007152:	431a      	orrs	r2, r3
20007154:	2e02      	cmp	r6, #2
20007156:	f8c4 2188 	str.w	r2, [r4, #392]	; 0x188
2000715a:	f8c1 8108 	str.w	r8, [r1, #264]	; 0x108
2000715e:	d1e4      	bne.n	2000712a <__register_exitproc+0x2a>
20007160:	f8d4 218c 	ldr.w	r2, [r4, #396]	; 0x18c
20007164:	4313      	orrs	r3, r2
20007166:	f8c4 318c 	str.w	r3, [r4, #396]	; 0x18c
2000716a:	e7de      	b.n	2000712a <__register_exitproc+0x2a>
2000716c:	f503 74a6 	add.w	r4, r3, #332	; 0x14c
20007170:	f8c3 4148 	str.w	r4, [r3, #328]	; 0x148
20007174:	e7d5      	b.n	20007122 <__register_exitproc+0x22>
20007176:	f8da 0000 	ldr.w	r0, [sl]
2000717a:	f7ff fb39 	bl	200067f0 <__retarget_lock_release_recursive>
2000717e:	f04f 30ff 	mov.w	r0, #4294967295
20007182:	e7dc      	b.n	2000713e <__register_exitproc+0x3e>
20007184:	200086a8 	.word	0x200086a8
20007188:	200091c8 	.word	0x200091c8

2000718c <_calloc_r>:
_calloc_r():
2000718c:	b510      	push	{r4, lr}
2000718e:	fb02 f101 	mul.w	r1, r2, r1
20007192:	f7fc f877 	bl	20003284 <_malloc_r>
20007196:	4604      	mov	r4, r0
20007198:	b168      	cbz	r0, 200071b6 <_calloc_r+0x2a>
2000719a:	f850 2c04 	ldr.w	r2, [r0, #-4]
2000719e:	f022 0203 	bic.w	r2, r2, #3
200071a2:	3a04      	subs	r2, #4
200071a4:	2a24      	cmp	r2, #36	; 0x24
200071a6:	d818      	bhi.n	200071da <_calloc_r+0x4e>
200071a8:	2a13      	cmp	r2, #19
200071aa:	d806      	bhi.n	200071ba <_calloc_r+0x2e>
200071ac:	4602      	mov	r2, r0
200071ae:	2300      	movs	r3, #0
200071b0:	e9c2 3300 	strd	r3, r3, [r2]
200071b4:	6093      	str	r3, [r2, #8]
200071b6:	4620      	mov	r0, r4
200071b8:	bd10      	pop	{r4, pc}
200071ba:	2300      	movs	r3, #0
200071bc:	2a1b      	cmp	r2, #27
200071be:	e9c0 3300 	strd	r3, r3, [r0]
200071c2:	d90f      	bls.n	200071e4 <_calloc_r+0x58>
200071c4:	2a24      	cmp	r2, #36	; 0x24
200071c6:	e9c0 3302 	strd	r3, r3, [r0, #8]
200071ca:	bf0a      	itet	eq
200071cc:	e9c0 3304 	strdeq	r3, r3, [r0, #16]
200071d0:	f100 0210 	addne.w	r2, r0, #16
200071d4:	f100 0218 	addeq.w	r2, r0, #24
200071d8:	e7e9      	b.n	200071ae <_calloc_r+0x22>
200071da:	2100      	movs	r1, #0
200071dc:	f7fc fb76 	bl	200038cc <memset>
200071e0:	4620      	mov	r0, r4
200071e2:	bd10      	pop	{r4, pc}
200071e4:	f100 0208 	add.w	r2, r0, #8
200071e8:	e7e1      	b.n	200071ae <_calloc_r+0x22>
200071ea:	bf00      	nop

200071ec <__ascii_mbtowc>:
__ascii_mbtowc():
200071ec:	b082      	sub	sp, #8
200071ee:	b149      	cbz	r1, 20007204 <__ascii_mbtowc+0x18>
200071f0:	b15a      	cbz	r2, 2000720a <__ascii_mbtowc+0x1e>
200071f2:	b16b      	cbz	r3, 20007210 <__ascii_mbtowc+0x24>
200071f4:	7813      	ldrb	r3, [r2, #0]
200071f6:	600b      	str	r3, [r1, #0]
200071f8:	7812      	ldrb	r2, [r2, #0]
200071fa:	1e10      	subs	r0, r2, #0
200071fc:	bf18      	it	ne
200071fe:	2001      	movne	r0, #1
20007200:	b002      	add	sp, #8
20007202:	4770      	bx	lr
20007204:	a901      	add	r1, sp, #4
20007206:	2a00      	cmp	r2, #0
20007208:	d1f3      	bne.n	200071f2 <__ascii_mbtowc+0x6>
2000720a:	4610      	mov	r0, r2
2000720c:	b002      	add	sp, #8
2000720e:	4770      	bx	lr
20007210:	f06f 0001 	mvn.w	r0, #1
20007214:	e7f4      	b.n	20007200 <__ascii_mbtowc+0x14>
20007216:	bf00      	nop

20007218 <memmove>:
memmove():
20007218:	4288      	cmp	r0, r1
2000721a:	b4f0      	push	{r4, r5, r6, r7}
2000721c:	d90d      	bls.n	2000723a <memmove+0x22>
2000721e:	188b      	adds	r3, r1, r2
20007220:	4283      	cmp	r3, r0
20007222:	d90a      	bls.n	2000723a <memmove+0x22>
20007224:	1884      	adds	r4, r0, r2
20007226:	b132      	cbz	r2, 20007236 <memmove+0x1e>
20007228:	4622      	mov	r2, r4
2000722a:	f813 4d01 	ldrb.w	r4, [r3, #-1]!
2000722e:	4299      	cmp	r1, r3
20007230:	f802 4d01 	strb.w	r4, [r2, #-1]!
20007234:	d1f9      	bne.n	2000722a <memmove+0x12>
20007236:	bcf0      	pop	{r4, r5, r6, r7}
20007238:	4770      	bx	lr
2000723a:	2a0f      	cmp	r2, #15
2000723c:	d80e      	bhi.n	2000725c <memmove+0x44>
2000723e:	4603      	mov	r3, r0
20007240:	1e54      	subs	r4, r2, #1
20007242:	2a00      	cmp	r2, #0
20007244:	d0f7      	beq.n	20007236 <memmove+0x1e>
20007246:	3401      	adds	r4, #1
20007248:	440c      	add	r4, r1
2000724a:	3b01      	subs	r3, #1
2000724c:	f811 2b01 	ldrb.w	r2, [r1], #1
20007250:	42a1      	cmp	r1, r4
20007252:	f803 2f01 	strb.w	r2, [r3, #1]!
20007256:	d1f9      	bne.n	2000724c <memmove+0x34>
20007258:	bcf0      	pop	{r4, r5, r6, r7}
2000725a:	4770      	bx	lr
2000725c:	ea40 0301 	orr.w	r3, r0, r1
20007260:	079b      	lsls	r3, r3, #30
20007262:	d13e      	bne.n	200072e2 <memmove+0xca>
20007264:	f1a2 0310 	sub.w	r3, r2, #16
20007268:	f023 040f 	bic.w	r4, r3, #15
2000726c:	f101 0720 	add.w	r7, r1, #32
20007270:	4427      	add	r7, r4
20007272:	091b      	lsrs	r3, r3, #4
20007274:	f101 0410 	add.w	r4, r1, #16
20007278:	f100 0510 	add.w	r5, r0, #16
2000727c:	f854 6c10 	ldr.w	r6, [r4, #-16]
20007280:	3410      	adds	r4, #16
20007282:	f845 6c10 	str.w	r6, [r5, #-16]
20007286:	f854 6c1c 	ldr.w	r6, [r4, #-28]
2000728a:	3510      	adds	r5, #16
2000728c:	f845 6c1c 	str.w	r6, [r5, #-28]
20007290:	f854 6c18 	ldr.w	r6, [r4, #-24]
20007294:	f845 6c18 	str.w	r6, [r5, #-24]
20007298:	f854 6c14 	ldr.w	r6, [r4, #-20]
2000729c:	42bc      	cmp	r4, r7
2000729e:	f845 6c14 	str.w	r6, [r5, #-20]
200072a2:	d1eb      	bne.n	2000727c <memmove+0x64>
200072a4:	3301      	adds	r3, #1
200072a6:	f012 0f0c 	tst.w	r2, #12
200072aa:	eb01 1103 	add.w	r1, r1, r3, lsl #4
200072ae:	f002 040f 	and.w	r4, r2, #15
200072b2:	eb00 1303 	add.w	r3, r0, r3, lsl #4
200072b6:	d017      	beq.n	200072e8 <memmove+0xd0>
200072b8:	460e      	mov	r6, r1
200072ba:	3c04      	subs	r4, #4
200072bc:	f024 0c03 	bic.w	ip, r4, #3
200072c0:	08a5      	lsrs	r5, r4, #2
200072c2:	449c      	add	ip, r3
200072c4:	1f1c      	subs	r4, r3, #4
200072c6:	f856 7b04 	ldr.w	r7, [r6], #4
200072ca:	f844 7f04 	str.w	r7, [r4, #4]!
200072ce:	4564      	cmp	r4, ip
200072d0:	d1f9      	bne.n	200072c6 <memmove+0xae>
200072d2:	1c6c      	adds	r4, r5, #1
200072d4:	eb03 0384 	add.w	r3, r3, r4, lsl #2
200072d8:	eb01 0184 	add.w	r1, r1, r4, lsl #2
200072dc:	f002 0203 	and.w	r2, r2, #3
200072e0:	e7ae      	b.n	20007240 <memmove+0x28>
200072e2:	4603      	mov	r3, r0
200072e4:	1e54      	subs	r4, r2, #1
200072e6:	e7ae      	b.n	20007246 <memmove+0x2e>
200072e8:	4622      	mov	r2, r4
200072ea:	e7a9      	b.n	20007240 <memmove+0x28>

200072ec <_realloc_r>:
_realloc_r():
200072ec:	e92d 4ff8 	stmdb	sp!, {r3, r4, r5, r6, r7, r8, r9, sl, fp, lr}
200072f0:	4616      	mov	r6, r2
200072f2:	2900      	cmp	r1, #0
200072f4:	f000 80bd 	beq.w	20007472 <_realloc_r+0x186>
200072f8:	f106 050b 	add.w	r5, r6, #11
200072fc:	460c      	mov	r4, r1
200072fe:	4680      	mov	r8, r0
20007300:	f7fc fb34 	bl	2000396c <__malloc_lock>
20007304:	2d16      	cmp	r5, #22
20007306:	d85f      	bhi.n	200073c8 <_realloc_r+0xdc>
20007308:	2510      	movs	r5, #16
2000730a:	462a      	mov	r2, r5
2000730c:	42ae      	cmp	r6, r5
2000730e:	d860      	bhi.n	200073d2 <_realloc_r+0xe6>
20007310:	f854 1c04 	ldr.w	r1, [r4, #-4]
20007314:	f1a4 0908 	sub.w	r9, r4, #8
20007318:	f021 0703 	bic.w	r7, r1, #3
2000731c:	4297      	cmp	r7, r2
2000731e:	f280 8086 	bge.w	2000742e <_realloc_r+0x142>
20007322:	4bc9      	ldr	r3, [pc, #804]	; (20007648 <_realloc_r+0x35c>)
20007324:	eb09 0007 	add.w	r0, r9, r7
20007328:	f8d3 c008 	ldr.w	ip, [r3, #8]
2000732c:	4584      	cmp	ip, r0
2000732e:	f000 80b9 	beq.w	200074a4 <_realloc_r+0x1b8>
20007332:	f8d0 c004 	ldr.w	ip, [r0, #4]
20007336:	f02c 0301 	bic.w	r3, ip, #1
2000733a:	4403      	add	r3, r0
2000733c:	685b      	ldr	r3, [r3, #4]
2000733e:	07db      	lsls	r3, r3, #31
20007340:	f100 808c 	bmi.w	2000745c <_realloc_r+0x170>
20007344:	f02c 0c03 	bic.w	ip, ip, #3
20007348:	eb07 030c 	add.w	r3, r7, ip
2000734c:	4293      	cmp	r3, r2
2000734e:	f280 8115 	bge.w	2000757c <_realloc_r+0x290>
20007352:	07cb      	lsls	r3, r1, #31
20007354:	d40f      	bmi.n	20007376 <_realloc_r+0x8a>
20007356:	f854 3c08 	ldr.w	r3, [r4, #-8]
2000735a:	eba9 0a03 	sub.w	sl, r9, r3
2000735e:	f8da 3004 	ldr.w	r3, [sl, #4]
20007362:	f023 0103 	bic.w	r1, r3, #3
20007366:	448c      	add	ip, r1
20007368:	44bc      	add	ip, r7
2000736a:	4594      	cmp	ip, r2
2000736c:	da38      	bge.n	200073e0 <_realloc_r+0xf4>
2000736e:	187b      	adds	r3, r7, r1
20007370:	4293      	cmp	r3, r2
20007372:	f280 810f 	bge.w	20007594 <_realloc_r+0x2a8>
20007376:	4631      	mov	r1, r6
20007378:	4640      	mov	r0, r8
2000737a:	f7fb ff83 	bl	20003284 <_malloc_r>
2000737e:	4606      	mov	r6, r0
20007380:	b1e0      	cbz	r0, 200073bc <_realloc_r+0xd0>
20007382:	f854 3c04 	ldr.w	r3, [r4, #-4]
20007386:	f1a0 0208 	sub.w	r2, r0, #8
2000738a:	f023 0301 	bic.w	r3, r3, #1
2000738e:	444b      	add	r3, r9
20007390:	4293      	cmp	r3, r2
20007392:	f000 80f9 	beq.w	20007588 <_realloc_r+0x29c>
20007396:	1f3a      	subs	r2, r7, #4
20007398:	2a24      	cmp	r2, #36	; 0x24
2000739a:	f200 811c 	bhi.w	200075d6 <_realloc_r+0x2ea>
2000739e:	2a13      	cmp	r2, #19
200073a0:	f200 80cd 	bhi.w	2000753e <_realloc_r+0x252>
200073a4:	4603      	mov	r3, r0
200073a6:	4622      	mov	r2, r4
200073a8:	6811      	ldr	r1, [r2, #0]
200073aa:	6019      	str	r1, [r3, #0]
200073ac:	6851      	ldr	r1, [r2, #4]
200073ae:	6059      	str	r1, [r3, #4]
200073b0:	6892      	ldr	r2, [r2, #8]
200073b2:	609a      	str	r2, [r3, #8]
200073b4:	4621      	mov	r1, r4
200073b6:	4640      	mov	r0, r8
200073b8:	f7ff f90e 	bl	200065d8 <_free_r>
200073bc:	4640      	mov	r0, r8
200073be:	f7fc fadb 	bl	20003978 <__malloc_unlock>
200073c2:	4630      	mov	r0, r6
200073c4:	e8bd 8ff8 	ldmia.w	sp!, {r3, r4, r5, r6, r7, r8, r9, sl, fp, pc}
200073c8:	f025 0507 	bic.w	r5, r5, #7
200073cc:	2d00      	cmp	r5, #0
200073ce:	462a      	mov	r2, r5
200073d0:	da9c      	bge.n	2000730c <_realloc_r+0x20>
200073d2:	230c      	movs	r3, #12
200073d4:	2600      	movs	r6, #0
200073d6:	f8c8 3000 	str.w	r3, [r8]
200073da:	4630      	mov	r0, r6
200073dc:	e8bd 8ff8 	ldmia.w	sp!, {r3, r4, r5, r6, r7, r8, r9, sl, fp, pc}
200073e0:	4656      	mov	r6, sl
200073e2:	e9d0 1302 	ldrd	r1, r3, [r0, #8]
200073e6:	60cb      	str	r3, [r1, #12]
200073e8:	6099      	str	r1, [r3, #8]
200073ea:	f856 1f08 	ldr.w	r1, [r6, #8]!
200073ee:	f8da 300c 	ldr.w	r3, [sl, #12]
200073f2:	1f3a      	subs	r2, r7, #4
200073f4:	2a24      	cmp	r2, #36	; 0x24
200073f6:	60cb      	str	r3, [r1, #12]
200073f8:	6099      	str	r1, [r3, #8]
200073fa:	f200 8107 	bhi.w	2000760c <_realloc_r+0x320>
200073fe:	2a13      	cmp	r2, #19
20007400:	f240 8102 	bls.w	20007608 <_realloc_r+0x31c>
20007404:	6823      	ldr	r3, [r4, #0]
20007406:	2a1b      	cmp	r2, #27
20007408:	f8ca 3008 	str.w	r3, [sl, #8]
2000740c:	6863      	ldr	r3, [r4, #4]
2000740e:	f8ca 300c 	str.w	r3, [sl, #12]
20007412:	f200 811b 	bhi.w	2000764c <_realloc_r+0x360>
20007416:	3408      	adds	r4, #8
20007418:	f10a 0310 	add.w	r3, sl, #16
2000741c:	6822      	ldr	r2, [r4, #0]
2000741e:	4667      	mov	r7, ip
20007420:	601a      	str	r2, [r3, #0]
20007422:	6862      	ldr	r2, [r4, #4]
20007424:	46d1      	mov	r9, sl
20007426:	605a      	str	r2, [r3, #4]
20007428:	68a2      	ldr	r2, [r4, #8]
2000742a:	4634      	mov	r4, r6
2000742c:	609a      	str	r2, [r3, #8]
2000742e:	1b7b      	subs	r3, r7, r5
20007430:	2b0f      	cmp	r3, #15
20007432:	f8d9 2004 	ldr.w	r2, [r9, #4]
20007436:	d821      	bhi.n	2000747c <_realloc_r+0x190>
20007438:	f002 0201 	and.w	r2, r2, #1
2000743c:	433a      	orrs	r2, r7
2000743e:	eb09 0107 	add.w	r1, r9, r7
20007442:	f8c9 2004 	str.w	r2, [r9, #4]
20007446:	684b      	ldr	r3, [r1, #4]
20007448:	f043 0301 	orr.w	r3, r3, #1
2000744c:	604b      	str	r3, [r1, #4]
2000744e:	4626      	mov	r6, r4
20007450:	4640      	mov	r0, r8
20007452:	f7fc fa91 	bl	20003978 <__malloc_unlock>
20007456:	4630      	mov	r0, r6
20007458:	e8bd 8ff8 	ldmia.w	sp!, {r3, r4, r5, r6, r7, r8, r9, sl, fp, pc}
2000745c:	07c9      	lsls	r1, r1, #31
2000745e:	d48a      	bmi.n	20007376 <_realloc_r+0x8a>
20007460:	f854 3c08 	ldr.w	r3, [r4, #-8]
20007464:	eba9 0a03 	sub.w	sl, r9, r3
20007468:	f8da 1004 	ldr.w	r1, [sl, #4]
2000746c:	f021 0103 	bic.w	r1, r1, #3
20007470:	e77d      	b.n	2000736e <_realloc_r+0x82>
20007472:	4611      	mov	r1, r2
20007474:	e8bd 4ff8 	ldmia.w	sp!, {r3, r4, r5, r6, r7, r8, r9, sl, fp, lr}
20007478:	f7fb bf04 	b.w	20003284 <_malloc_r>
2000747c:	f002 0201 	and.w	r2, r2, #1
20007480:	eb09 0105 	add.w	r1, r9, r5
20007484:	f043 0301 	orr.w	r3, r3, #1
20007488:	432a      	orrs	r2, r5
2000748a:	f8c9 2004 	str.w	r2, [r9, #4]
2000748e:	444f      	add	r7, r9
20007490:	604b      	str	r3, [r1, #4]
20007492:	687b      	ldr	r3, [r7, #4]
20007494:	4640      	mov	r0, r8
20007496:	f043 0301 	orr.w	r3, r3, #1
2000749a:	3108      	adds	r1, #8
2000749c:	607b      	str	r3, [r7, #4]
2000749e:	f7ff f89b 	bl	200065d8 <_free_r>
200074a2:	e7d4      	b.n	2000744e <_realloc_r+0x162>
200074a4:	f8dc b004 	ldr.w	fp, [ip, #4]
200074a8:	f105 0010 	add.w	r0, r5, #16
200074ac:	f02b 0b03 	bic.w	fp, fp, #3
200074b0:	eb07 0c0b 	add.w	ip, r7, fp
200074b4:	4584      	cmp	ip, r0
200074b6:	da4d      	bge.n	20007554 <_realloc_r+0x268>
200074b8:	07c9      	lsls	r1, r1, #31
200074ba:	f53f af5c 	bmi.w	20007376 <_realloc_r+0x8a>
200074be:	f854 1c08 	ldr.w	r1, [r4, #-8]
200074c2:	eba9 0a01 	sub.w	sl, r9, r1
200074c6:	f8da 1004 	ldr.w	r1, [sl, #4]
200074ca:	f021 0103 	bic.w	r1, r1, #3
200074ce:	448b      	add	fp, r1
200074d0:	44bb      	add	fp, r7
200074d2:	4558      	cmp	r0, fp
200074d4:	f73f af4b 	bgt.w	2000736e <_realloc_r+0x82>
200074d8:	4656      	mov	r6, sl
200074da:	f8da 100c 	ldr.w	r1, [sl, #12]
200074de:	f856 0f08 	ldr.w	r0, [r6, #8]!
200074e2:	1f3a      	subs	r2, r7, #4
200074e4:	2a24      	cmp	r2, #36	; 0x24
200074e6:	60c1      	str	r1, [r0, #12]
200074e8:	6088      	str	r0, [r1, #8]
200074ea:	f200 80bd 	bhi.w	20007668 <_realloc_r+0x37c>
200074ee:	2a13      	cmp	r2, #19
200074f0:	f240 80b8 	bls.w	20007664 <_realloc_r+0x378>
200074f4:	6821      	ldr	r1, [r4, #0]
200074f6:	2a1b      	cmp	r2, #27
200074f8:	f8ca 1008 	str.w	r1, [sl, #8]
200074fc:	6861      	ldr	r1, [r4, #4]
200074fe:	f8ca 100c 	str.w	r1, [sl, #12]
20007502:	f200 80c1 	bhi.w	20007688 <_realloc_r+0x39c>
20007506:	3408      	adds	r4, #8
20007508:	f10a 0210 	add.w	r2, sl, #16
2000750c:	6821      	ldr	r1, [r4, #0]
2000750e:	6011      	str	r1, [r2, #0]
20007510:	6861      	ldr	r1, [r4, #4]
20007512:	6051      	str	r1, [r2, #4]
20007514:	68a1      	ldr	r1, [r4, #8]
20007516:	6091      	str	r1, [r2, #8]
20007518:	ebab 0205 	sub.w	r2, fp, r5
2000751c:	eb0a 0105 	add.w	r1, sl, r5
20007520:	f042 0201 	orr.w	r2, r2, #1
20007524:	6099      	str	r1, [r3, #8]
20007526:	604a      	str	r2, [r1, #4]
20007528:	f8da 3004 	ldr.w	r3, [sl, #4]
2000752c:	4640      	mov	r0, r8
2000752e:	f003 0301 	and.w	r3, r3, #1
20007532:	431d      	orrs	r5, r3
20007534:	f8ca 5004 	str.w	r5, [sl, #4]
20007538:	f7fc fa1e 	bl	20003978 <__malloc_unlock>
2000753c:	e74d      	b.n	200073da <_realloc_r+0xee>
2000753e:	6823      	ldr	r3, [r4, #0]
20007540:	2a1b      	cmp	r2, #27
20007542:	6003      	str	r3, [r0, #0]
20007544:	6863      	ldr	r3, [r4, #4]
20007546:	6043      	str	r3, [r0, #4]
20007548:	d849      	bhi.n	200075de <_realloc_r+0x2f2>
2000754a:	f104 0208 	add.w	r2, r4, #8
2000754e:	f100 0308 	add.w	r3, r0, #8
20007552:	e729      	b.n	200073a8 <_realloc_r+0xbc>
20007554:	ebac 0205 	sub.w	r2, ip, r5
20007558:	eb09 0105 	add.w	r1, r9, r5
2000755c:	f042 0201 	orr.w	r2, r2, #1
20007560:	6099      	str	r1, [r3, #8]
20007562:	604a      	str	r2, [r1, #4]
20007564:	f854 3c04 	ldr.w	r3, [r4, #-4]
20007568:	4640      	mov	r0, r8
2000756a:	f003 0301 	and.w	r3, r3, #1
2000756e:	431d      	orrs	r5, r3
20007570:	f844 5c04 	str.w	r5, [r4, #-4]
20007574:	f7fc fa00 	bl	20003978 <__malloc_unlock>
20007578:	4626      	mov	r6, r4
2000757a:	e72e      	b.n	200073da <_realloc_r+0xee>
2000757c:	e9d0 1202 	ldrd	r1, r2, [r0, #8]
20007580:	461f      	mov	r7, r3
20007582:	60ca      	str	r2, [r1, #12]
20007584:	6091      	str	r1, [r2, #8]
20007586:	e752      	b.n	2000742e <_realloc_r+0x142>
20007588:	f850 3c04 	ldr.w	r3, [r0, #-4]
2000758c:	f023 0303 	bic.w	r3, r3, #3
20007590:	441f      	add	r7, r3
20007592:	e74c      	b.n	2000742e <_realloc_r+0x142>
20007594:	4656      	mov	r6, sl
20007596:	f8da 100c 	ldr.w	r1, [sl, #12]
2000759a:	f856 0f08 	ldr.w	r0, [r6, #8]!
2000759e:	1f3a      	subs	r2, r7, #4
200075a0:	2a24      	cmp	r2, #36	; 0x24
200075a2:	60c1      	str	r1, [r0, #12]
200075a4:	6088      	str	r0, [r1, #8]
200075a6:	d827      	bhi.n	200075f8 <_realloc_r+0x30c>
200075a8:	2a13      	cmp	r2, #19
200075aa:	d923      	bls.n	200075f4 <_realloc_r+0x308>
200075ac:	6821      	ldr	r1, [r4, #0]
200075ae:	2a1b      	cmp	r2, #27
200075b0:	f8ca 1008 	str.w	r1, [sl, #8]
200075b4:	6861      	ldr	r1, [r4, #4]
200075b6:	f8ca 100c 	str.w	r1, [sl, #12]
200075ba:	d82f      	bhi.n	2000761c <_realloc_r+0x330>
200075bc:	3408      	adds	r4, #8
200075be:	f10a 0210 	add.w	r2, sl, #16
200075c2:	6821      	ldr	r1, [r4, #0]
200075c4:	461f      	mov	r7, r3
200075c6:	6011      	str	r1, [r2, #0]
200075c8:	6863      	ldr	r3, [r4, #4]
200075ca:	46d1      	mov	r9, sl
200075cc:	6053      	str	r3, [r2, #4]
200075ce:	68a3      	ldr	r3, [r4, #8]
200075d0:	4634      	mov	r4, r6
200075d2:	6093      	str	r3, [r2, #8]
200075d4:	e72b      	b.n	2000742e <_realloc_r+0x142>
200075d6:	4621      	mov	r1, r4
200075d8:	f7ff fe1e 	bl	20007218 <memmove>
200075dc:	e6ea      	b.n	200073b4 <_realloc_r+0xc8>
200075de:	68a3      	ldr	r3, [r4, #8]
200075e0:	2a24      	cmp	r2, #36	; 0x24
200075e2:	6083      	str	r3, [r0, #8]
200075e4:	68e3      	ldr	r3, [r4, #12]
200075e6:	60c3      	str	r3, [r0, #12]
200075e8:	d024      	beq.n	20007634 <_realloc_r+0x348>
200075ea:	f104 0210 	add.w	r2, r4, #16
200075ee:	f100 0310 	add.w	r3, r0, #16
200075f2:	e6d9      	b.n	200073a8 <_realloc_r+0xbc>
200075f4:	4632      	mov	r2, r6
200075f6:	e7e4      	b.n	200075c2 <_realloc_r+0x2d6>
200075f8:	4621      	mov	r1, r4
200075fa:	4630      	mov	r0, r6
200075fc:	461f      	mov	r7, r3
200075fe:	46d1      	mov	r9, sl
20007600:	f7ff fe0a 	bl	20007218 <memmove>
20007604:	4634      	mov	r4, r6
20007606:	e712      	b.n	2000742e <_realloc_r+0x142>
20007608:	4633      	mov	r3, r6
2000760a:	e707      	b.n	2000741c <_realloc_r+0x130>
2000760c:	4621      	mov	r1, r4
2000760e:	4630      	mov	r0, r6
20007610:	4667      	mov	r7, ip
20007612:	46d1      	mov	r9, sl
20007614:	f7ff fe00 	bl	20007218 <memmove>
20007618:	4634      	mov	r4, r6
2000761a:	e708      	b.n	2000742e <_realloc_r+0x142>
2000761c:	68a1      	ldr	r1, [r4, #8]
2000761e:	2a24      	cmp	r2, #36	; 0x24
20007620:	f8ca 1010 	str.w	r1, [sl, #16]
20007624:	68e1      	ldr	r1, [r4, #12]
20007626:	f8ca 1014 	str.w	r1, [sl, #20]
2000762a:	d023      	beq.n	20007674 <_realloc_r+0x388>
2000762c:	3410      	adds	r4, #16
2000762e:	f10a 0218 	add.w	r2, sl, #24
20007632:	e7c6      	b.n	200075c2 <_realloc_r+0x2d6>
20007634:	6923      	ldr	r3, [r4, #16]
20007636:	f104 0218 	add.w	r2, r4, #24
2000763a:	6103      	str	r3, [r0, #16]
2000763c:	6961      	ldr	r1, [r4, #20]
2000763e:	f100 0318 	add.w	r3, r0, #24
20007642:	6141      	str	r1, [r0, #20]
20007644:	e6b0      	b.n	200073a8 <_realloc_r+0xbc>
20007646:	bf00      	nop
20007648:	20008db8 	.word	0x20008db8
2000764c:	68a3      	ldr	r3, [r4, #8]
2000764e:	2a24      	cmp	r2, #36	; 0x24
20007650:	f8ca 3010 	str.w	r3, [sl, #16]
20007654:	68e3      	ldr	r3, [r4, #12]
20007656:	f8ca 3014 	str.w	r3, [sl, #20]
2000765a:	d021      	beq.n	200076a0 <_realloc_r+0x3b4>
2000765c:	3410      	adds	r4, #16
2000765e:	f10a 0318 	add.w	r3, sl, #24
20007662:	e6db      	b.n	2000741c <_realloc_r+0x130>
20007664:	4632      	mov	r2, r6
20007666:	e751      	b.n	2000750c <_realloc_r+0x220>
20007668:	4621      	mov	r1, r4
2000766a:	4630      	mov	r0, r6
2000766c:	f7ff fdd4 	bl	20007218 <memmove>
20007670:	4b15      	ldr	r3, [pc, #84]	; (200076c8 <_realloc_r+0x3dc>)
20007672:	e751      	b.n	20007518 <_realloc_r+0x22c>
20007674:	6921      	ldr	r1, [r4, #16]
20007676:	f10a 0220 	add.w	r2, sl, #32
2000767a:	f8ca 1018 	str.w	r1, [sl, #24]
2000767e:	6961      	ldr	r1, [r4, #20]
20007680:	3418      	adds	r4, #24
20007682:	f8ca 101c 	str.w	r1, [sl, #28]
20007686:	e79c      	b.n	200075c2 <_realloc_r+0x2d6>
20007688:	68a1      	ldr	r1, [r4, #8]
2000768a:	2a24      	cmp	r2, #36	; 0x24
2000768c:	f8ca 1010 	str.w	r1, [sl, #16]
20007690:	68e1      	ldr	r1, [r4, #12]
20007692:	f8ca 1014 	str.w	r1, [sl, #20]
20007696:	d00d      	beq.n	200076b4 <_realloc_r+0x3c8>
20007698:	3410      	adds	r4, #16
2000769a:	f10a 0218 	add.w	r2, sl, #24
2000769e:	e735      	b.n	2000750c <_realloc_r+0x220>
200076a0:	6922      	ldr	r2, [r4, #16]
200076a2:	f10a 0320 	add.w	r3, sl, #32
200076a6:	f8ca 2018 	str.w	r2, [sl, #24]
200076aa:	6962      	ldr	r2, [r4, #20]
200076ac:	3418      	adds	r4, #24
200076ae:	f8ca 201c 	str.w	r2, [sl, #28]
200076b2:	e6b3      	b.n	2000741c <_realloc_r+0x130>
200076b4:	6921      	ldr	r1, [r4, #16]
200076b6:	f10a 0220 	add.w	r2, sl, #32
200076ba:	f8ca 1018 	str.w	r1, [sl, #24]
200076be:	6961      	ldr	r1, [r4, #20]
200076c0:	3418      	adds	r4, #24
200076c2:	f8ca 101c 	str.w	r1, [sl, #28]
200076c6:	e721      	b.n	2000750c <_realloc_r+0x220>
200076c8:	20008db8 	.word	0x20008db8

200076cc <__ascii_wctomb>:
__ascii_wctomb():
200076cc:	4603      	mov	r3, r0
200076ce:	b149      	cbz	r1, 200076e4 <__ascii_wctomb+0x18>
200076d0:	2aff      	cmp	r2, #255	; 0xff
200076d2:	d802      	bhi.n	200076da <__ascii_wctomb+0xe>
200076d4:	2001      	movs	r0, #1
200076d6:	700a      	strb	r2, [r1, #0]
200076d8:	4770      	bx	lr
200076da:	228a      	movs	r2, #138	; 0x8a
200076dc:	f04f 30ff 	mov.w	r0, #4294967295
200076e0:	601a      	str	r2, [r3, #0]
200076e2:	4770      	bx	lr
200076e4:	4608      	mov	r0, r1
200076e6:	4770      	bx	lr

200076e8 <__aeabi_drsub>:
__aeabi_drsub():
200076e8:	f081 4100 	eor.w	r1, r1, #2147483648	; 0x80000000
200076ec:	e002      	b.n	200076f4 <__adddf3>
200076ee:	bf00      	nop

200076f0 <__aeabi_dsub>:
__subdf3():
200076f0:	f083 4300 	eor.w	r3, r3, #2147483648	; 0x80000000

200076f4 <__adddf3>:
__aeabi_dadd():
200076f4:	b530      	push	{r4, r5, lr}
200076f6:	ea4f 0441 	mov.w	r4, r1, lsl #1
200076fa:	ea4f 0543 	mov.w	r5, r3, lsl #1
200076fe:	ea94 0f05 	teq	r4, r5
20007702:	bf08      	it	eq
20007704:	ea90 0f02 	teqeq	r0, r2
20007708:	bf1f      	itttt	ne
2000770a:	ea54 0c00 	orrsne.w	ip, r4, r0
2000770e:	ea55 0c02 	orrsne.w	ip, r5, r2
20007712:	ea7f 5c64 	mvnsne.w	ip, r4, asr #21
20007716:	ea7f 5c65 	mvnsne.w	ip, r5, asr #21
2000771a:	f000 80e2 	beq.w	200078e2 <__adddf3+0x1ee>
2000771e:	ea4f 5454 	mov.w	r4, r4, lsr #21
20007722:	ebd4 5555 	rsbs	r5, r4, r5, lsr #21
20007726:	bfb8      	it	lt
20007728:	426d      	neglt	r5, r5
2000772a:	dd0c      	ble.n	20007746 <__adddf3+0x52>
2000772c:	442c      	add	r4, r5
2000772e:	ea80 0202 	eor.w	r2, r0, r2
20007732:	ea81 0303 	eor.w	r3, r1, r3
20007736:	ea82 0000 	eor.w	r0, r2, r0
2000773a:	ea83 0101 	eor.w	r1, r3, r1
2000773e:	ea80 0202 	eor.w	r2, r0, r2
20007742:	ea81 0303 	eor.w	r3, r1, r3
20007746:	2d36      	cmp	r5, #54	; 0x36
20007748:	bf88      	it	hi
2000774a:	bd30      	pophi	{r4, r5, pc}
2000774c:	f011 4f00 	tst.w	r1, #2147483648	; 0x80000000
20007750:	ea4f 3101 	mov.w	r1, r1, lsl #12
20007754:	f44f 1c80 	mov.w	ip, #1048576	; 0x100000
20007758:	ea4c 3111 	orr.w	r1, ip, r1, lsr #12
2000775c:	d002      	beq.n	20007764 <__adddf3+0x70>
2000775e:	4240      	negs	r0, r0
20007760:	eb61 0141 	sbc.w	r1, r1, r1, lsl #1
20007764:	f013 4f00 	tst.w	r3, #2147483648	; 0x80000000
20007768:	ea4f 3303 	mov.w	r3, r3, lsl #12
2000776c:	ea4c 3313 	orr.w	r3, ip, r3, lsr #12
20007770:	d002      	beq.n	20007778 <__adddf3+0x84>
20007772:	4252      	negs	r2, r2
20007774:	eb63 0343 	sbc.w	r3, r3, r3, lsl #1
20007778:	ea94 0f05 	teq	r4, r5
2000777c:	f000 80a7 	beq.w	200078ce <__adddf3+0x1da>
20007780:	f1a4 0401 	sub.w	r4, r4, #1
20007784:	f1d5 0e20 	rsbs	lr, r5, #32
20007788:	db0d      	blt.n	200077a6 <__adddf3+0xb2>
2000778a:	fa02 fc0e 	lsl.w	ip, r2, lr
2000778e:	fa22 f205 	lsr.w	r2, r2, r5
20007792:	1880      	adds	r0, r0, r2
20007794:	f141 0100 	adc.w	r1, r1, #0
20007798:	fa03 f20e 	lsl.w	r2, r3, lr
2000779c:	1880      	adds	r0, r0, r2
2000779e:	fa43 f305 	asr.w	r3, r3, r5
200077a2:	4159      	adcs	r1, r3
200077a4:	e00e      	b.n	200077c4 <__adddf3+0xd0>
200077a6:	f1a5 0520 	sub.w	r5, r5, #32
200077aa:	f10e 0e20 	add.w	lr, lr, #32
200077ae:	2a01      	cmp	r2, #1
200077b0:	fa03 fc0e 	lsl.w	ip, r3, lr
200077b4:	bf28      	it	cs
200077b6:	f04c 0c02 	orrcs.w	ip, ip, #2
200077ba:	fa43 f305 	asr.w	r3, r3, r5
200077be:	18c0      	adds	r0, r0, r3
200077c0:	eb51 71e3 	adcs.w	r1, r1, r3, asr #31
200077c4:	f001 4500 	and.w	r5, r1, #2147483648	; 0x80000000
200077c8:	d507      	bpl.n	200077da <__adddf3+0xe6>
200077ca:	f04f 0e00 	mov.w	lr, #0
200077ce:	f1dc 0c00 	rsbs	ip, ip, #0
200077d2:	eb7e 0000 	sbcs.w	r0, lr, r0
200077d6:	eb6e 0101 	sbc.w	r1, lr, r1
200077da:	f5b1 1f80 	cmp.w	r1, #1048576	; 0x100000
200077de:	d31b      	bcc.n	20007818 <__adddf3+0x124>
200077e0:	f5b1 1f00 	cmp.w	r1, #2097152	; 0x200000
200077e4:	d30c      	bcc.n	20007800 <__adddf3+0x10c>
200077e6:	0849      	lsrs	r1, r1, #1
200077e8:	ea5f 0030 	movs.w	r0, r0, rrx
200077ec:	ea4f 0c3c 	mov.w	ip, ip, rrx
200077f0:	f104 0401 	add.w	r4, r4, #1
200077f4:	ea4f 5244 	mov.w	r2, r4, lsl #21
200077f8:	f512 0f80 	cmn.w	r2, #4194304	; 0x400000
200077fc:	f080 809a 	bcs.w	20007934 <__adddf3+0x240>
20007800:	f1bc 4f00 	cmp.w	ip, #2147483648	; 0x80000000
20007804:	bf08      	it	eq
20007806:	ea5f 0c50 	movseq.w	ip, r0, lsr #1
2000780a:	f150 0000 	adcs.w	r0, r0, #0
2000780e:	eb41 5104 	adc.w	r1, r1, r4, lsl #20
20007812:	ea41 0105 	orr.w	r1, r1, r5
20007816:	bd30      	pop	{r4, r5, pc}
20007818:	ea5f 0c4c 	movs.w	ip, ip, lsl #1
2000781c:	4140      	adcs	r0, r0
2000781e:	eb41 0101 	adc.w	r1, r1, r1
20007822:	3c01      	subs	r4, #1
20007824:	bf28      	it	cs
20007826:	f5b1 1f80 	cmpcs.w	r1, #1048576	; 0x100000
2000782a:	d2e9      	bcs.n	20007800 <__adddf3+0x10c>
2000782c:	f091 0f00 	teq	r1, #0
20007830:	bf04      	itt	eq
20007832:	4601      	moveq	r1, r0
20007834:	2000      	moveq	r0, #0
20007836:	fab1 f381 	clz	r3, r1
2000783a:	bf08      	it	eq
2000783c:	3320      	addeq	r3, #32
2000783e:	f1a3 030b 	sub.w	r3, r3, #11
20007842:	f1b3 0220 	subs.w	r2, r3, #32
20007846:	da0c      	bge.n	20007862 <__adddf3+0x16e>
20007848:	320c      	adds	r2, #12
2000784a:	dd08      	ble.n	2000785e <__adddf3+0x16a>
2000784c:	f102 0c14 	add.w	ip, r2, #20
20007850:	f1c2 020c 	rsb	r2, r2, #12
20007854:	fa01 f00c 	lsl.w	r0, r1, ip
20007858:	fa21 f102 	lsr.w	r1, r1, r2
2000785c:	e00c      	b.n	20007878 <__adddf3+0x184>
2000785e:	f102 0214 	add.w	r2, r2, #20
20007862:	bfd8      	it	le
20007864:	f1c2 0c20 	rsble	ip, r2, #32
20007868:	fa01 f102 	lsl.w	r1, r1, r2
2000786c:	fa20 fc0c 	lsr.w	ip, r0, ip
20007870:	bfdc      	itt	le
20007872:	ea41 010c 	orrle.w	r1, r1, ip
20007876:	4090      	lslle	r0, r2
20007878:	1ae4      	subs	r4, r4, r3
2000787a:	bfa2      	ittt	ge
2000787c:	eb01 5104 	addge.w	r1, r1, r4, lsl #20
20007880:	4329      	orrge	r1, r5
20007882:	bd30      	popge	{r4, r5, pc}
20007884:	ea6f 0404 	mvn.w	r4, r4
20007888:	3c1f      	subs	r4, #31
2000788a:	da1c      	bge.n	200078c6 <__adddf3+0x1d2>
2000788c:	340c      	adds	r4, #12
2000788e:	dc0e      	bgt.n	200078ae <__adddf3+0x1ba>
20007890:	f104 0414 	add.w	r4, r4, #20
20007894:	f1c4 0220 	rsb	r2, r4, #32
20007898:	fa20 f004 	lsr.w	r0, r0, r4
2000789c:	fa01 f302 	lsl.w	r3, r1, r2
200078a0:	ea40 0003 	orr.w	r0, r0, r3
200078a4:	fa21 f304 	lsr.w	r3, r1, r4
200078a8:	ea45 0103 	orr.w	r1, r5, r3
200078ac:	bd30      	pop	{r4, r5, pc}
200078ae:	f1c4 040c 	rsb	r4, r4, #12
200078b2:	f1c4 0220 	rsb	r2, r4, #32
200078b6:	fa20 f002 	lsr.w	r0, r0, r2
200078ba:	fa01 f304 	lsl.w	r3, r1, r4
200078be:	ea40 0003 	orr.w	r0, r0, r3
200078c2:	4629      	mov	r1, r5
200078c4:	bd30      	pop	{r4, r5, pc}
200078c6:	fa21 f004 	lsr.w	r0, r1, r4
200078ca:	4629      	mov	r1, r5
200078cc:	bd30      	pop	{r4, r5, pc}
200078ce:	f094 0f00 	teq	r4, #0
200078d2:	f483 1380 	eor.w	r3, r3, #1048576	; 0x100000
200078d6:	bf06      	itte	eq
200078d8:	f481 1180 	eoreq.w	r1, r1, #1048576	; 0x100000
200078dc:	3401      	addeq	r4, #1
200078de:	3d01      	subne	r5, #1
200078e0:	e74e      	b.n	20007780 <__adddf3+0x8c>
200078e2:	ea7f 5c64 	mvns.w	ip, r4, asr #21
200078e6:	bf18      	it	ne
200078e8:	ea7f 5c65 	mvnsne.w	ip, r5, asr #21
200078ec:	d029      	beq.n	20007942 <__adddf3+0x24e>
200078ee:	ea94 0f05 	teq	r4, r5
200078f2:	bf08      	it	eq
200078f4:	ea90 0f02 	teqeq	r0, r2
200078f8:	d005      	beq.n	20007906 <__adddf3+0x212>
200078fa:	ea54 0c00 	orrs.w	ip, r4, r0
200078fe:	bf04      	itt	eq
20007900:	4619      	moveq	r1, r3
20007902:	4610      	moveq	r0, r2
20007904:	bd30      	pop	{r4, r5, pc}
20007906:	ea91 0f03 	teq	r1, r3
2000790a:	bf1e      	ittt	ne
2000790c:	2100      	movne	r1, #0
2000790e:	2000      	movne	r0, #0
20007910:	bd30      	popne	{r4, r5, pc}
20007912:	ea5f 5c54 	movs.w	ip, r4, lsr #21
20007916:	d105      	bne.n	20007924 <__adddf3+0x230>
20007918:	0040      	lsls	r0, r0, #1
2000791a:	4149      	adcs	r1, r1
2000791c:	bf28      	it	cs
2000791e:	f041 4100 	orrcs.w	r1, r1, #2147483648	; 0x80000000
20007922:	bd30      	pop	{r4, r5, pc}
20007924:	f514 0480 	adds.w	r4, r4, #4194304	; 0x400000
20007928:	bf3c      	itt	cc
2000792a:	f501 1180 	addcc.w	r1, r1, #1048576	; 0x100000
2000792e:	bd30      	popcc	{r4, r5, pc}
20007930:	f001 4500 	and.w	r5, r1, #2147483648	; 0x80000000
20007934:	f045 41fe 	orr.w	r1, r5, #2130706432	; 0x7f000000
20007938:	f441 0170 	orr.w	r1, r1, #15728640	; 0xf00000
2000793c:	f04f 0000 	mov.w	r0, #0
20007940:	bd30      	pop	{r4, r5, pc}
20007942:	ea7f 5c64 	mvns.w	ip, r4, asr #21
20007946:	bf1a      	itte	ne
20007948:	4619      	movne	r1, r3
2000794a:	4610      	movne	r0, r2
2000794c:	ea7f 5c65 	mvnseq.w	ip, r5, asr #21
20007950:	bf1c      	itt	ne
20007952:	460b      	movne	r3, r1
20007954:	4602      	movne	r2, r0
20007956:	ea50 3401 	orrs.w	r4, r0, r1, lsl #12
2000795a:	bf06      	itte	eq
2000795c:	ea52 3503 	orrseq.w	r5, r2, r3, lsl #12
20007960:	ea91 0f03 	teqeq	r1, r3
20007964:	f441 2100 	orrne.w	r1, r1, #524288	; 0x80000
20007968:	bd30      	pop	{r4, r5, pc}
2000796a:	bf00      	nop

2000796c <__aeabi_ui2d>:
__floatunsidf():
2000796c:	f090 0f00 	teq	r0, #0
20007970:	bf04      	itt	eq
20007972:	2100      	moveq	r1, #0
20007974:	4770      	bxeq	lr
20007976:	b530      	push	{r4, r5, lr}
20007978:	f44f 6480 	mov.w	r4, #1024	; 0x400
2000797c:	f104 0432 	add.w	r4, r4, #50	; 0x32
20007980:	f04f 0500 	mov.w	r5, #0
20007984:	f04f 0100 	mov.w	r1, #0
20007988:	e750      	b.n	2000782c <__adddf3+0x138>
2000798a:	bf00      	nop

2000798c <__aeabi_i2d>:
__aeabi_i2d():
2000798c:	f090 0f00 	teq	r0, #0
20007990:	bf04      	itt	eq
20007992:	2100      	moveq	r1, #0
20007994:	4770      	bxeq	lr
20007996:	b530      	push	{r4, r5, lr}
20007998:	f44f 6480 	mov.w	r4, #1024	; 0x400
2000799c:	f104 0432 	add.w	r4, r4, #50	; 0x32
200079a0:	f010 4500 	ands.w	r5, r0, #2147483648	; 0x80000000
200079a4:	bf48      	it	mi
200079a6:	4240      	negmi	r0, r0
200079a8:	f04f 0100 	mov.w	r1, #0
200079ac:	e73e      	b.n	2000782c <__adddf3+0x138>
200079ae:	bf00      	nop

200079b0 <__aeabi_f2d>:
__aeabi_f2d():
200079b0:	0042      	lsls	r2, r0, #1
200079b2:	ea4f 01e2 	mov.w	r1, r2, asr #3
200079b6:	ea4f 0131 	mov.w	r1, r1, rrx
200079ba:	ea4f 7002 	mov.w	r0, r2, lsl #28
200079be:	bf1f      	itttt	ne
200079c0:	f012 437f 	andsne.w	r3, r2, #4278190080	; 0xff000000
200079c4:	f093 4f7f 	teqne	r3, #4278190080	; 0xff000000
200079c8:	f081 5160 	eorne.w	r1, r1, #939524096	; 0x38000000
200079cc:	4770      	bxne	lr
200079ce:	f032 427f 	bics.w	r2, r2, #4278190080	; 0xff000000
200079d2:	bf08      	it	eq
200079d4:	4770      	bxeq	lr
200079d6:	f093 4f7f 	teq	r3, #4278190080	; 0xff000000
200079da:	bf04      	itt	eq
200079dc:	f441 2100 	orreq.w	r1, r1, #524288	; 0x80000
200079e0:	4770      	bxeq	lr
200079e2:	b530      	push	{r4, r5, lr}
200079e4:	f44f 7460 	mov.w	r4, #896	; 0x380
200079e8:	f001 4500 	and.w	r5, r1, #2147483648	; 0x80000000
200079ec:	f021 4100 	bic.w	r1, r1, #2147483648	; 0x80000000
200079f0:	e71c      	b.n	2000782c <__adddf3+0x138>
200079f2:	bf00      	nop

200079f4 <__aeabi_ul2d>:
__floatundidf():
200079f4:	ea50 0201 	orrs.w	r2, r0, r1
200079f8:	bf08      	it	eq
200079fa:	4770      	bxeq	lr
200079fc:	b530      	push	{r4, r5, lr}
200079fe:	f04f 0500 	mov.w	r5, #0
20007a02:	e00a      	b.n	20007a1a <__aeabi_l2d+0x16>

20007a04 <__aeabi_l2d>:
__aeabi_l2d():
20007a04:	ea50 0201 	orrs.w	r2, r0, r1
20007a08:	bf08      	it	eq
20007a0a:	4770      	bxeq	lr
20007a0c:	b530      	push	{r4, r5, lr}
20007a0e:	f011 4500 	ands.w	r5, r1, #2147483648	; 0x80000000
20007a12:	d502      	bpl.n	20007a1a <__aeabi_l2d+0x16>
20007a14:	4240      	negs	r0, r0
20007a16:	eb61 0141 	sbc.w	r1, r1, r1, lsl #1
20007a1a:	f44f 6480 	mov.w	r4, #1024	; 0x400
20007a1e:	f104 0432 	add.w	r4, r4, #50	; 0x32
20007a22:	ea5f 5c91 	movs.w	ip, r1, lsr #22
20007a26:	f43f aed8 	beq.w	200077da <__adddf3+0xe6>
20007a2a:	f04f 0203 	mov.w	r2, #3
20007a2e:	ea5f 0cdc 	movs.w	ip, ip, lsr #3
20007a32:	bf18      	it	ne
20007a34:	3203      	addne	r2, #3
20007a36:	ea5f 0cdc 	movs.w	ip, ip, lsr #3
20007a3a:	bf18      	it	ne
20007a3c:	3203      	addne	r2, #3
20007a3e:	eb02 02dc 	add.w	r2, r2, ip, lsr #3
20007a42:	f1c2 0320 	rsb	r3, r2, #32
20007a46:	fa00 fc03 	lsl.w	ip, r0, r3
20007a4a:	fa20 f002 	lsr.w	r0, r0, r2
20007a4e:	fa01 fe03 	lsl.w	lr, r1, r3
20007a52:	ea40 000e 	orr.w	r0, r0, lr
20007a56:	fa21 f102 	lsr.w	r1, r1, r2
20007a5a:	4414      	add	r4, r2
20007a5c:	e6bd      	b.n	200077da <__adddf3+0xe6>
20007a5e:	bf00      	nop

20007a60 <__aeabi_dmul>:
__muldf3():
20007a60:	b570      	push	{r4, r5, r6, lr}
20007a62:	f04f 0cff 	mov.w	ip, #255	; 0xff
20007a66:	f44c 6ce0 	orr.w	ip, ip, #1792	; 0x700
20007a6a:	ea1c 5411 	ands.w	r4, ip, r1, lsr #20
20007a6e:	bf1d      	ittte	ne
20007a70:	ea1c 5513 	andsne.w	r5, ip, r3, lsr #20
20007a74:	ea94 0f0c 	teqne	r4, ip
20007a78:	ea95 0f0c 	teqne	r5, ip
20007a7c:	f000 f8de 	bleq	20007c3c <__aeabi_dmul+0x1dc>
20007a80:	442c      	add	r4, r5
20007a82:	ea81 0603 	eor.w	r6, r1, r3
20007a86:	ea21 514c 	bic.w	r1, r1, ip, lsl #21
20007a8a:	ea23 534c 	bic.w	r3, r3, ip, lsl #21
20007a8e:	ea50 3501 	orrs.w	r5, r0, r1, lsl #12
20007a92:	bf18      	it	ne
20007a94:	ea52 3503 	orrsne.w	r5, r2, r3, lsl #12
20007a98:	f441 1180 	orr.w	r1, r1, #1048576	; 0x100000
20007a9c:	f443 1380 	orr.w	r3, r3, #1048576	; 0x100000
20007aa0:	d038      	beq.n	20007b14 <__aeabi_dmul+0xb4>
20007aa2:	fba0 ce02 	umull	ip, lr, r0, r2
20007aa6:	f04f 0500 	mov.w	r5, #0
20007aaa:	fbe1 e502 	umlal	lr, r5, r1, r2
20007aae:	f006 4200 	and.w	r2, r6, #2147483648	; 0x80000000
20007ab2:	fbe0 e503 	umlal	lr, r5, r0, r3
20007ab6:	f04f 0600 	mov.w	r6, #0
20007aba:	fbe1 5603 	umlal	r5, r6, r1, r3
20007abe:	f09c 0f00 	teq	ip, #0
20007ac2:	bf18      	it	ne
20007ac4:	f04e 0e01 	orrne.w	lr, lr, #1
20007ac8:	f1a4 04ff 	sub.w	r4, r4, #255	; 0xff
20007acc:	f5b6 7f00 	cmp.w	r6, #512	; 0x200
20007ad0:	f564 7440 	sbc.w	r4, r4, #768	; 0x300
20007ad4:	d204      	bcs.n	20007ae0 <__aeabi_dmul+0x80>
20007ad6:	ea5f 0e4e 	movs.w	lr, lr, lsl #1
20007ada:	416d      	adcs	r5, r5
20007adc:	eb46 0606 	adc.w	r6, r6, r6
20007ae0:	ea42 21c6 	orr.w	r1, r2, r6, lsl #11
20007ae4:	ea41 5155 	orr.w	r1, r1, r5, lsr #21
20007ae8:	ea4f 20c5 	mov.w	r0, r5, lsl #11
20007aec:	ea40 505e 	orr.w	r0, r0, lr, lsr #21
20007af0:	ea4f 2ece 	mov.w	lr, lr, lsl #11
20007af4:	f1b4 0cfd 	subs.w	ip, r4, #253	; 0xfd
20007af8:	bf88      	it	hi
20007afa:	f5bc 6fe0 	cmphi.w	ip, #1792	; 0x700
20007afe:	d81e      	bhi.n	20007b3e <__aeabi_dmul+0xde>
20007b00:	f1be 4f00 	cmp.w	lr, #2147483648	; 0x80000000
20007b04:	bf08      	it	eq
20007b06:	ea5f 0e50 	movseq.w	lr, r0, lsr #1
20007b0a:	f150 0000 	adcs.w	r0, r0, #0
20007b0e:	eb41 5104 	adc.w	r1, r1, r4, lsl #20
20007b12:	bd70      	pop	{r4, r5, r6, pc}
20007b14:	f006 4600 	and.w	r6, r6, #2147483648	; 0x80000000
20007b18:	ea46 0101 	orr.w	r1, r6, r1
20007b1c:	ea40 0002 	orr.w	r0, r0, r2
20007b20:	ea81 0103 	eor.w	r1, r1, r3
20007b24:	ebb4 045c 	subs.w	r4, r4, ip, lsr #1
20007b28:	bfc2      	ittt	gt
20007b2a:	ebd4 050c 	rsbsgt	r5, r4, ip
20007b2e:	ea41 5104 	orrgt.w	r1, r1, r4, lsl #20
20007b32:	bd70      	popgt	{r4, r5, r6, pc}
20007b34:	f441 1180 	orr.w	r1, r1, #1048576	; 0x100000
20007b38:	f04f 0e00 	mov.w	lr, #0
20007b3c:	3c01      	subs	r4, #1
20007b3e:	f300 80ab 	bgt.w	20007c98 <__aeabi_dmul+0x238>
20007b42:	f114 0f36 	cmn.w	r4, #54	; 0x36
20007b46:	bfde      	ittt	le
20007b48:	2000      	movle	r0, #0
20007b4a:	f001 4100 	andle.w	r1, r1, #2147483648	; 0x80000000
20007b4e:	bd70      	pople	{r4, r5, r6, pc}
20007b50:	f1c4 0400 	rsb	r4, r4, #0
20007b54:	3c20      	subs	r4, #32
20007b56:	da35      	bge.n	20007bc4 <__aeabi_dmul+0x164>
20007b58:	340c      	adds	r4, #12
20007b5a:	dc1b      	bgt.n	20007b94 <__aeabi_dmul+0x134>
20007b5c:	f104 0414 	add.w	r4, r4, #20
20007b60:	f1c4 0520 	rsb	r5, r4, #32
20007b64:	fa00 f305 	lsl.w	r3, r0, r5
20007b68:	fa20 f004 	lsr.w	r0, r0, r4
20007b6c:	fa01 f205 	lsl.w	r2, r1, r5
20007b70:	ea40 0002 	orr.w	r0, r0, r2
20007b74:	f001 4200 	and.w	r2, r1, #2147483648	; 0x80000000
20007b78:	f021 4100 	bic.w	r1, r1, #2147483648	; 0x80000000
20007b7c:	eb10 70d3 	adds.w	r0, r0, r3, lsr #31
20007b80:	fa21 f604 	lsr.w	r6, r1, r4
20007b84:	eb42 0106 	adc.w	r1, r2, r6
20007b88:	ea5e 0e43 	orrs.w	lr, lr, r3, lsl #1
20007b8c:	bf08      	it	eq
20007b8e:	ea20 70d3 	biceq.w	r0, r0, r3, lsr #31
20007b92:	bd70      	pop	{r4, r5, r6, pc}
20007b94:	f1c4 040c 	rsb	r4, r4, #12
20007b98:	f1c4 0520 	rsb	r5, r4, #32
20007b9c:	fa00 f304 	lsl.w	r3, r0, r4
20007ba0:	fa20 f005 	lsr.w	r0, r0, r5
20007ba4:	fa01 f204 	lsl.w	r2, r1, r4
20007ba8:	ea40 0002 	orr.w	r0, r0, r2
20007bac:	f001 4100 	and.w	r1, r1, #2147483648	; 0x80000000
20007bb0:	eb10 70d3 	adds.w	r0, r0, r3, lsr #31
20007bb4:	f141 0100 	adc.w	r1, r1, #0
20007bb8:	ea5e 0e43 	orrs.w	lr, lr, r3, lsl #1
20007bbc:	bf08      	it	eq
20007bbe:	ea20 70d3 	biceq.w	r0, r0, r3, lsr #31
20007bc2:	bd70      	pop	{r4, r5, r6, pc}
20007bc4:	f1c4 0520 	rsb	r5, r4, #32
20007bc8:	fa00 f205 	lsl.w	r2, r0, r5
20007bcc:	ea4e 0e02 	orr.w	lr, lr, r2
20007bd0:	fa20 f304 	lsr.w	r3, r0, r4
20007bd4:	fa01 f205 	lsl.w	r2, r1, r5
20007bd8:	ea43 0302 	orr.w	r3, r3, r2
20007bdc:	fa21 f004 	lsr.w	r0, r1, r4
20007be0:	f001 4100 	and.w	r1, r1, #2147483648	; 0x80000000
20007be4:	fa21 f204 	lsr.w	r2, r1, r4
20007be8:	ea20 0002 	bic.w	r0, r0, r2
20007bec:	eb00 70d3 	add.w	r0, r0, r3, lsr #31
20007bf0:	ea5e 0e43 	orrs.w	lr, lr, r3, lsl #1
20007bf4:	bf08      	it	eq
20007bf6:	ea20 70d3 	biceq.w	r0, r0, r3, lsr #31
20007bfa:	bd70      	pop	{r4, r5, r6, pc}
20007bfc:	f094 0f00 	teq	r4, #0
20007c00:	d10f      	bne.n	20007c22 <__aeabi_dmul+0x1c2>
20007c02:	f001 4600 	and.w	r6, r1, #2147483648	; 0x80000000
20007c06:	0040      	lsls	r0, r0, #1
20007c08:	eb41 0101 	adc.w	r1, r1, r1
20007c0c:	f411 1f80 	tst.w	r1, #1048576	; 0x100000
20007c10:	bf08      	it	eq
20007c12:	3c01      	subeq	r4, #1
20007c14:	d0f7      	beq.n	20007c06 <__aeabi_dmul+0x1a6>
20007c16:	ea41 0106 	orr.w	r1, r1, r6
20007c1a:	f095 0f00 	teq	r5, #0
20007c1e:	bf18      	it	ne
20007c20:	4770      	bxne	lr
20007c22:	f003 4600 	and.w	r6, r3, #2147483648	; 0x80000000
20007c26:	0052      	lsls	r2, r2, #1
20007c28:	eb43 0303 	adc.w	r3, r3, r3
20007c2c:	f413 1f80 	tst.w	r3, #1048576	; 0x100000
20007c30:	bf08      	it	eq
20007c32:	3d01      	subeq	r5, #1
20007c34:	d0f7      	beq.n	20007c26 <__aeabi_dmul+0x1c6>
20007c36:	ea43 0306 	orr.w	r3, r3, r6
20007c3a:	4770      	bx	lr
20007c3c:	ea94 0f0c 	teq	r4, ip
20007c40:	ea0c 5513 	and.w	r5, ip, r3, lsr #20
20007c44:	bf18      	it	ne
20007c46:	ea95 0f0c 	teqne	r5, ip
20007c4a:	d00c      	beq.n	20007c66 <__aeabi_dmul+0x206>
20007c4c:	ea50 0641 	orrs.w	r6, r0, r1, lsl #1
20007c50:	bf18      	it	ne
20007c52:	ea52 0643 	orrsne.w	r6, r2, r3, lsl #1
20007c56:	d1d1      	bne.n	20007bfc <__aeabi_dmul+0x19c>
20007c58:	ea81 0103 	eor.w	r1, r1, r3
20007c5c:	f001 4100 	and.w	r1, r1, #2147483648	; 0x80000000
20007c60:	f04f 0000 	mov.w	r0, #0
20007c64:	bd70      	pop	{r4, r5, r6, pc}
20007c66:	ea50 0641 	orrs.w	r6, r0, r1, lsl #1
20007c6a:	bf06      	itte	eq
20007c6c:	4610      	moveq	r0, r2
20007c6e:	4619      	moveq	r1, r3
20007c70:	ea52 0643 	orrsne.w	r6, r2, r3, lsl #1
20007c74:	d019      	beq.n	20007caa <__aeabi_dmul+0x24a>
20007c76:	ea94 0f0c 	teq	r4, ip
20007c7a:	d102      	bne.n	20007c82 <__aeabi_dmul+0x222>
20007c7c:	ea50 3601 	orrs.w	r6, r0, r1, lsl #12
20007c80:	d113      	bne.n	20007caa <__aeabi_dmul+0x24a>
20007c82:	ea95 0f0c 	teq	r5, ip
20007c86:	d105      	bne.n	20007c94 <__aeabi_dmul+0x234>
20007c88:	ea52 3603 	orrs.w	r6, r2, r3, lsl #12
20007c8c:	bf1c      	itt	ne
20007c8e:	4610      	movne	r0, r2
20007c90:	4619      	movne	r1, r3
20007c92:	d10a      	bne.n	20007caa <__aeabi_dmul+0x24a>
20007c94:	ea81 0103 	eor.w	r1, r1, r3
20007c98:	f001 4100 	and.w	r1, r1, #2147483648	; 0x80000000
20007c9c:	f041 41fe 	orr.w	r1, r1, #2130706432	; 0x7f000000
20007ca0:	f441 0170 	orr.w	r1, r1, #15728640	; 0xf00000
20007ca4:	f04f 0000 	mov.w	r0, #0
20007ca8:	bd70      	pop	{r4, r5, r6, pc}
20007caa:	f041 41fe 	orr.w	r1, r1, #2130706432	; 0x7f000000
20007cae:	f441 0178 	orr.w	r1, r1, #16252928	; 0xf80000
20007cb2:	bd70      	pop	{r4, r5, r6, pc}

20007cb4 <__aeabi_ddiv>:
__divdf3():
20007cb4:	b570      	push	{r4, r5, r6, lr}
20007cb6:	f04f 0cff 	mov.w	ip, #255	; 0xff
20007cba:	f44c 6ce0 	orr.w	ip, ip, #1792	; 0x700
20007cbe:	ea1c 5411 	ands.w	r4, ip, r1, lsr #20
20007cc2:	bf1d      	ittte	ne
20007cc4:	ea1c 5513 	andsne.w	r5, ip, r3, lsr #20
20007cc8:	ea94 0f0c 	teqne	r4, ip
20007ccc:	ea95 0f0c 	teqne	r5, ip
20007cd0:	f000 f8a7 	bleq	20007e22 <__aeabi_ddiv+0x16e>
20007cd4:	eba4 0405 	sub.w	r4, r4, r5
20007cd8:	ea81 0e03 	eor.w	lr, r1, r3
20007cdc:	ea52 3503 	orrs.w	r5, r2, r3, lsl #12
20007ce0:	ea4f 3101 	mov.w	r1, r1, lsl #12
20007ce4:	f000 8088 	beq.w	20007df8 <__aeabi_ddiv+0x144>
20007ce8:	ea4f 3303 	mov.w	r3, r3, lsl #12
20007cec:	f04f 5580 	mov.w	r5, #268435456	; 0x10000000
20007cf0:	ea45 1313 	orr.w	r3, r5, r3, lsr #4
20007cf4:	ea43 6312 	orr.w	r3, r3, r2, lsr #24
20007cf8:	ea4f 2202 	mov.w	r2, r2, lsl #8
20007cfc:	ea45 1511 	orr.w	r5, r5, r1, lsr #4
20007d00:	ea45 6510 	orr.w	r5, r5, r0, lsr #24
20007d04:	ea4f 2600 	mov.w	r6, r0, lsl #8
20007d08:	f00e 4100 	and.w	r1, lr, #2147483648	; 0x80000000
20007d0c:	429d      	cmp	r5, r3
20007d0e:	bf08      	it	eq
20007d10:	4296      	cmpeq	r6, r2
20007d12:	f144 04fd 	adc.w	r4, r4, #253	; 0xfd
20007d16:	f504 7440 	add.w	r4, r4, #768	; 0x300
20007d1a:	d202      	bcs.n	20007d22 <__aeabi_ddiv+0x6e>
20007d1c:	085b      	lsrs	r3, r3, #1
20007d1e:	ea4f 0232 	mov.w	r2, r2, rrx
20007d22:	1ab6      	subs	r6, r6, r2
20007d24:	eb65 0503 	sbc.w	r5, r5, r3
20007d28:	085b      	lsrs	r3, r3, #1
20007d2a:	ea4f 0232 	mov.w	r2, r2, rrx
20007d2e:	f44f 1080 	mov.w	r0, #1048576	; 0x100000
20007d32:	f44f 2c00 	mov.w	ip, #524288	; 0x80000
20007d36:	ebb6 0e02 	subs.w	lr, r6, r2
20007d3a:	eb75 0e03 	sbcs.w	lr, r5, r3
20007d3e:	bf22      	ittt	cs
20007d40:	1ab6      	subcs	r6, r6, r2
20007d42:	4675      	movcs	r5, lr
20007d44:	ea40 000c 	orrcs.w	r0, r0, ip
20007d48:	085b      	lsrs	r3, r3, #1
20007d4a:	ea4f 0232 	mov.w	r2, r2, rrx
20007d4e:	ebb6 0e02 	subs.w	lr, r6, r2
20007d52:	eb75 0e03 	sbcs.w	lr, r5, r3
20007d56:	bf22      	ittt	cs
20007d58:	1ab6      	subcs	r6, r6, r2
20007d5a:	4675      	movcs	r5, lr
20007d5c:	ea40 005c 	orrcs.w	r0, r0, ip, lsr #1
20007d60:	085b      	lsrs	r3, r3, #1
20007d62:	ea4f 0232 	mov.w	r2, r2, rrx
20007d66:	ebb6 0e02 	subs.w	lr, r6, r2
20007d6a:	eb75 0e03 	sbcs.w	lr, r5, r3
20007d6e:	bf22      	ittt	cs
20007d70:	1ab6      	subcs	r6, r6, r2
20007d72:	4675      	movcs	r5, lr
20007d74:	ea40 009c 	orrcs.w	r0, r0, ip, lsr #2
20007d78:	085b      	lsrs	r3, r3, #1
20007d7a:	ea4f 0232 	mov.w	r2, r2, rrx
20007d7e:	ebb6 0e02 	subs.w	lr, r6, r2
20007d82:	eb75 0e03 	sbcs.w	lr, r5, r3
20007d86:	bf22      	ittt	cs
20007d88:	1ab6      	subcs	r6, r6, r2
20007d8a:	4675      	movcs	r5, lr
20007d8c:	ea40 00dc 	orrcs.w	r0, r0, ip, lsr #3
20007d90:	ea55 0e06 	orrs.w	lr, r5, r6
20007d94:	d018      	beq.n	20007dc8 <__aeabi_ddiv+0x114>
20007d96:	ea4f 1505 	mov.w	r5, r5, lsl #4
20007d9a:	ea45 7516 	orr.w	r5, r5, r6, lsr #28
20007d9e:	ea4f 1606 	mov.w	r6, r6, lsl #4
20007da2:	ea4f 03c3 	mov.w	r3, r3, lsl #3
20007da6:	ea43 7352 	orr.w	r3, r3, r2, lsr #29
20007daa:	ea4f 02c2 	mov.w	r2, r2, lsl #3
20007dae:	ea5f 1c1c 	movs.w	ip, ip, lsr #4
20007db2:	d1c0      	bne.n	20007d36 <__aeabi_ddiv+0x82>
20007db4:	f411 1f80 	tst.w	r1, #1048576	; 0x100000
20007db8:	d10b      	bne.n	20007dd2 <__aeabi_ddiv+0x11e>
20007dba:	ea41 0100 	orr.w	r1, r1, r0
20007dbe:	f04f 0000 	mov.w	r0, #0
20007dc2:	f04f 4c00 	mov.w	ip, #2147483648	; 0x80000000
20007dc6:	e7b6      	b.n	20007d36 <__aeabi_ddiv+0x82>
20007dc8:	f411 1f80 	tst.w	r1, #1048576	; 0x100000
20007dcc:	bf04      	itt	eq
20007dce:	4301      	orreq	r1, r0
20007dd0:	2000      	moveq	r0, #0
20007dd2:	f1b4 0cfd 	subs.w	ip, r4, #253	; 0xfd
20007dd6:	bf88      	it	hi
20007dd8:	f5bc 6fe0 	cmphi.w	ip, #1792	; 0x700
20007ddc:	f63f aeaf 	bhi.w	20007b3e <__aeabi_dmul+0xde>
20007de0:	ebb5 0c03 	subs.w	ip, r5, r3
20007de4:	bf04      	itt	eq
20007de6:	ebb6 0c02 	subseq.w	ip, r6, r2
20007dea:	ea5f 0c50 	movseq.w	ip, r0, lsr #1
20007dee:	f150 0000 	adcs.w	r0, r0, #0
20007df2:	eb41 5104 	adc.w	r1, r1, r4, lsl #20
20007df6:	bd70      	pop	{r4, r5, r6, pc}
20007df8:	f00e 4e00 	and.w	lr, lr, #2147483648	; 0x80000000
20007dfc:	ea4e 3111 	orr.w	r1, lr, r1, lsr #12
20007e00:	eb14 045c 	adds.w	r4, r4, ip, lsr #1
20007e04:	bfc2      	ittt	gt
20007e06:	ebd4 050c 	rsbsgt	r5, r4, ip
20007e0a:	ea41 5104 	orrgt.w	r1, r1, r4, lsl #20
20007e0e:	bd70      	popgt	{r4, r5, r6, pc}
20007e10:	f441 1180 	orr.w	r1, r1, #1048576	; 0x100000
20007e14:	f04f 0e00 	mov.w	lr, #0
20007e18:	3c01      	subs	r4, #1
20007e1a:	e690      	b.n	20007b3e <__aeabi_dmul+0xde>
20007e1c:	ea45 0e06 	orr.w	lr, r5, r6
20007e20:	e68d      	b.n	20007b3e <__aeabi_dmul+0xde>
20007e22:	ea0c 5513 	and.w	r5, ip, r3, lsr #20
20007e26:	ea94 0f0c 	teq	r4, ip
20007e2a:	bf08      	it	eq
20007e2c:	ea95 0f0c 	teqeq	r5, ip
20007e30:	f43f af3b 	beq.w	20007caa <__aeabi_dmul+0x24a>
20007e34:	ea94 0f0c 	teq	r4, ip
20007e38:	d10a      	bne.n	20007e50 <__aeabi_ddiv+0x19c>
20007e3a:	ea50 3401 	orrs.w	r4, r0, r1, lsl #12
20007e3e:	f47f af34 	bne.w	20007caa <__aeabi_dmul+0x24a>
20007e42:	ea95 0f0c 	teq	r5, ip
20007e46:	f47f af25 	bne.w	20007c94 <__aeabi_dmul+0x234>
20007e4a:	4610      	mov	r0, r2
20007e4c:	4619      	mov	r1, r3
20007e4e:	e72c      	b.n	20007caa <__aeabi_dmul+0x24a>
20007e50:	ea95 0f0c 	teq	r5, ip
20007e54:	d106      	bne.n	20007e64 <__aeabi_ddiv+0x1b0>
20007e56:	ea52 3503 	orrs.w	r5, r2, r3, lsl #12
20007e5a:	f43f aefd 	beq.w	20007c58 <__aeabi_dmul+0x1f8>
20007e5e:	4610      	mov	r0, r2
20007e60:	4619      	mov	r1, r3
20007e62:	e722      	b.n	20007caa <__aeabi_dmul+0x24a>
20007e64:	ea50 0641 	orrs.w	r6, r0, r1, lsl #1
20007e68:	bf18      	it	ne
20007e6a:	ea52 0643 	orrsne.w	r6, r2, r3, lsl #1
20007e6e:	f47f aec5 	bne.w	20007bfc <__aeabi_dmul+0x19c>
20007e72:	ea50 0441 	orrs.w	r4, r0, r1, lsl #1
20007e76:	f47f af0d 	bne.w	20007c94 <__aeabi_dmul+0x234>
20007e7a:	ea52 0543 	orrs.w	r5, r2, r3, lsl #1
20007e7e:	f47f aeeb 	bne.w	20007c58 <__aeabi_dmul+0x1f8>
20007e82:	e712      	b.n	20007caa <__aeabi_dmul+0x24a>

20007e84 <__gedf2>:
__gedf2():
20007e84:	f04f 3cff 	mov.w	ip, #4294967295
20007e88:	e006      	b.n	20007e98 <__cmpdf2+0x4>
20007e8a:	bf00      	nop

20007e8c <__ledf2>:
__ledf2():
20007e8c:	f04f 0c01 	mov.w	ip, #1
20007e90:	e002      	b.n	20007e98 <__cmpdf2+0x4>
20007e92:	bf00      	nop

20007e94 <__cmpdf2>:
__nedf2():
20007e94:	f04f 0c01 	mov.w	ip, #1
20007e98:	f84d cd04 	str.w	ip, [sp, #-4]!
20007e9c:	ea4f 0c41 	mov.w	ip, r1, lsl #1
20007ea0:	ea7f 5c6c 	mvns.w	ip, ip, asr #21
20007ea4:	ea4f 0c43 	mov.w	ip, r3, lsl #1
20007ea8:	bf18      	it	ne
20007eaa:	ea7f 5c6c 	mvnsne.w	ip, ip, asr #21
20007eae:	d01b      	beq.n	20007ee8 <__cmpdf2+0x54>
20007eb0:	b001      	add	sp, #4
20007eb2:	ea50 0c41 	orrs.w	ip, r0, r1, lsl #1
20007eb6:	bf0c      	ite	eq
20007eb8:	ea52 0c43 	orrseq.w	ip, r2, r3, lsl #1
20007ebc:	ea91 0f03 	teqne	r1, r3
20007ec0:	bf02      	ittt	eq
20007ec2:	ea90 0f02 	teqeq	r0, r2
20007ec6:	2000      	moveq	r0, #0
20007ec8:	4770      	bxeq	lr
20007eca:	f110 0f00 	cmn.w	r0, #0
20007ece:	ea91 0f03 	teq	r1, r3
20007ed2:	bf58      	it	pl
20007ed4:	4299      	cmppl	r1, r3
20007ed6:	bf08      	it	eq
20007ed8:	4290      	cmpeq	r0, r2
20007eda:	bf2c      	ite	cs
20007edc:	17d8      	asrcs	r0, r3, #31
20007ede:	ea6f 70e3 	mvncc.w	r0, r3, asr #31
20007ee2:	f040 0001 	orr.w	r0, r0, #1
20007ee6:	4770      	bx	lr
20007ee8:	ea4f 0c41 	mov.w	ip, r1, lsl #1
20007eec:	ea7f 5c6c 	mvns.w	ip, ip, asr #21
20007ef0:	d102      	bne.n	20007ef8 <__cmpdf2+0x64>
20007ef2:	ea50 3c01 	orrs.w	ip, r0, r1, lsl #12
20007ef6:	d107      	bne.n	20007f08 <__cmpdf2+0x74>
20007ef8:	ea4f 0c43 	mov.w	ip, r3, lsl #1
20007efc:	ea7f 5c6c 	mvns.w	ip, ip, asr #21
20007f00:	d1d6      	bne.n	20007eb0 <__cmpdf2+0x1c>
20007f02:	ea52 3c03 	orrs.w	ip, r2, r3, lsl #12
20007f06:	d0d3      	beq.n	20007eb0 <__cmpdf2+0x1c>
20007f08:	f85d 0b04 	ldr.w	r0, [sp], #4
20007f0c:	4770      	bx	lr
20007f0e:	bf00      	nop

20007f10 <__aeabi_cdrcmple>:
__aeabi_cdrcmple():
20007f10:	4684      	mov	ip, r0
20007f12:	4610      	mov	r0, r2
20007f14:	4662      	mov	r2, ip
20007f16:	468c      	mov	ip, r1
20007f18:	4619      	mov	r1, r3
20007f1a:	4663      	mov	r3, ip
20007f1c:	e000      	b.n	20007f20 <__aeabi_cdcmpeq>
20007f1e:	bf00      	nop

20007f20 <__aeabi_cdcmpeq>:
__aeabi_cdcmpeq():
20007f20:	b501      	push	{r0, lr}
20007f22:	f7ff ffb7 	bl	20007e94 <__cmpdf2>
20007f26:	2800      	cmp	r0, #0
20007f28:	bf48      	it	mi
20007f2a:	f110 0f00 	cmnmi.w	r0, #0
20007f2e:	bd01      	pop	{r0, pc}

20007f30 <__aeabi_dcmpeq>:
__aeabi_dcmpeq():
20007f30:	f84d ed08 	str.w	lr, [sp, #-8]!
20007f34:	f7ff fff4 	bl	20007f20 <__aeabi_cdcmpeq>
20007f38:	bf0c      	ite	eq
20007f3a:	2001      	moveq	r0, #1
20007f3c:	2000      	movne	r0, #0
20007f3e:	f85d fb08 	ldr.w	pc, [sp], #8
20007f42:	bf00      	nop

20007f44 <__aeabi_dcmplt>:
__aeabi_dcmplt():
20007f44:	f84d ed08 	str.w	lr, [sp, #-8]!
20007f48:	f7ff ffea 	bl	20007f20 <__aeabi_cdcmpeq>
20007f4c:	bf34      	ite	cc
20007f4e:	2001      	movcc	r0, #1
20007f50:	2000      	movcs	r0, #0
20007f52:	f85d fb08 	ldr.w	pc, [sp], #8
20007f56:	bf00      	nop

20007f58 <__aeabi_dcmple>:
__aeabi_dcmple():
20007f58:	f84d ed08 	str.w	lr, [sp, #-8]!
20007f5c:	f7ff ffe0 	bl	20007f20 <__aeabi_cdcmpeq>
20007f60:	bf94      	ite	ls
20007f62:	2001      	movls	r0, #1
20007f64:	2000      	movhi	r0, #0
20007f66:	f85d fb08 	ldr.w	pc, [sp], #8
20007f6a:	bf00      	nop

20007f6c <__aeabi_dcmpge>:
__aeabi_dcmpge():
20007f6c:	f84d ed08 	str.w	lr, [sp, #-8]!
20007f70:	f7ff ffce 	bl	20007f10 <__aeabi_cdrcmple>
20007f74:	bf94      	ite	ls
20007f76:	2001      	movls	r0, #1
20007f78:	2000      	movhi	r0, #0
20007f7a:	f85d fb08 	ldr.w	pc, [sp], #8
20007f7e:	bf00      	nop

20007f80 <__aeabi_dcmpgt>:
__aeabi_dcmpgt():
20007f80:	f84d ed08 	str.w	lr, [sp, #-8]!
20007f84:	f7ff ffc4 	bl	20007f10 <__aeabi_cdrcmple>
20007f88:	bf34      	ite	cc
20007f8a:	2001      	movcc	r0, #1
20007f8c:	2000      	movcs	r0, #0
20007f8e:	f85d fb08 	ldr.w	pc, [sp], #8
20007f92:	bf00      	nop

20007f94 <__aeabi_dcmpun>:
__unorddf2():
20007f94:	ea4f 0c41 	mov.w	ip, r1, lsl #1
20007f98:	ea7f 5c6c 	mvns.w	ip, ip, asr #21
20007f9c:	d102      	bne.n	20007fa4 <__aeabi_dcmpun+0x10>
20007f9e:	ea50 3c01 	orrs.w	ip, r0, r1, lsl #12
20007fa2:	d10a      	bne.n	20007fba <__aeabi_dcmpun+0x26>
20007fa4:	ea4f 0c43 	mov.w	ip, r3, lsl #1
20007fa8:	ea7f 5c6c 	mvns.w	ip, ip, asr #21
20007fac:	d102      	bne.n	20007fb4 <__aeabi_dcmpun+0x20>
20007fae:	ea52 3c03 	orrs.w	ip, r2, r3, lsl #12
20007fb2:	d102      	bne.n	20007fba <__aeabi_dcmpun+0x26>
20007fb4:	f04f 0000 	mov.w	r0, #0
20007fb8:	4770      	bx	lr
20007fba:	f04f 0001 	mov.w	r0, #1
20007fbe:	4770      	bx	lr

20007fc0 <__aeabi_d2iz>:
__aeabi_d2iz():
20007fc0:	ea4f 0241 	mov.w	r2, r1, lsl #1
20007fc4:	f512 1200 	adds.w	r2, r2, #2097152	; 0x200000
20007fc8:	d215      	bcs.n	20007ff6 <__aeabi_d2iz+0x36>
20007fca:	d511      	bpl.n	20007ff0 <__aeabi_d2iz+0x30>
20007fcc:	f46f 7378 	mvn.w	r3, #992	; 0x3e0
20007fd0:	ebb3 5262 	subs.w	r2, r3, r2, asr #21
20007fd4:	d912      	bls.n	20007ffc <__aeabi_d2iz+0x3c>
20007fd6:	ea4f 23c1 	mov.w	r3, r1, lsl #11
20007fda:	f043 4300 	orr.w	r3, r3, #2147483648	; 0x80000000
20007fde:	ea43 5350 	orr.w	r3, r3, r0, lsr #21
20007fe2:	f011 4f00 	tst.w	r1, #2147483648	; 0x80000000
20007fe6:	fa23 f002 	lsr.w	r0, r3, r2
20007fea:	bf18      	it	ne
20007fec:	4240      	negne	r0, r0
20007fee:	4770      	bx	lr
20007ff0:	f04f 0000 	mov.w	r0, #0
20007ff4:	4770      	bx	lr
20007ff6:	ea50 3001 	orrs.w	r0, r0, r1, lsl #12
20007ffa:	d105      	bne.n	20008008 <__aeabi_d2iz+0x48>
20007ffc:	f011 4000 	ands.w	r0, r1, #2147483648	; 0x80000000
20008000:	bf08      	it	eq
20008002:	f06f 4000 	mvneq.w	r0, #2147483648	; 0x80000000
20008006:	4770      	bx	lr
20008008:	f04f 0000 	mov.w	r0, #0
2000800c:	4770      	bx	lr
2000800e:	bf00      	nop

20008010 <__aeabi_uldivmod>:
__aeabi_uldivmod():
20008010:	b953      	cbnz	r3, 20008028 <__aeabi_uldivmod+0x18>
20008012:	b94a      	cbnz	r2, 20008028 <__aeabi_uldivmod+0x18>
20008014:	2900      	cmp	r1, #0
20008016:	bf08      	it	eq
20008018:	2800      	cmpeq	r0, #0
2000801a:	bf1c      	itt	ne
2000801c:	f04f 31ff 	movne.w	r1, #4294967295
20008020:	f04f 30ff 	movne.w	r0, #4294967295
20008024:	f000 b96e 	b.w	20008304 <__aeabi_idiv0>
20008028:	f1ad 0c08 	sub.w	ip, sp, #8
2000802c:	e96d ce04 	strd	ip, lr, [sp, #-16]!
20008030:	f000 f806 	bl	20008040 <__udivmoddi4>
20008034:	f8dd e004 	ldr.w	lr, [sp, #4]
20008038:	e9dd 2302 	ldrd	r2, r3, [sp, #8]
2000803c:	b004      	add	sp, #16
2000803e:	4770      	bx	lr

20008040 <__udivmoddi4>:
__udivmoddi4():
20008040:	e92d 47f0 	stmdb	sp!, {r4, r5, r6, r7, r8, r9, sl, lr}
20008044:	9e08      	ldr	r6, [sp, #32]
20008046:	460d      	mov	r5, r1
20008048:	4604      	mov	r4, r0
2000804a:	468e      	mov	lr, r1
2000804c:	2b00      	cmp	r3, #0
2000804e:	f040 8083 	bne.w	20008158 <__udivmoddi4+0x118>
20008052:	428a      	cmp	r2, r1
20008054:	4617      	mov	r7, r2
20008056:	d947      	bls.n	200080e8 <__udivmoddi4+0xa8>
20008058:	fab2 f382 	clz	r3, r2
2000805c:	b14b      	cbz	r3, 20008072 <__udivmoddi4+0x32>
2000805e:	f1c3 0120 	rsb	r1, r3, #32
20008062:	fa05 fe03 	lsl.w	lr, r5, r3
20008066:	fa20 f101 	lsr.w	r1, r0, r1
2000806a:	409f      	lsls	r7, r3
2000806c:	ea41 0e0e 	orr.w	lr, r1, lr
20008070:	409c      	lsls	r4, r3
20008072:	ea4f 4817 	mov.w	r8, r7, lsr #16
20008076:	fbbe fcf8 	udiv	ip, lr, r8
2000807a:	fa1f f987 	uxth.w	r9, r7
2000807e:	fb08 e21c 	mls	r2, r8, ip, lr
20008082:	fb0c f009 	mul.w	r0, ip, r9
20008086:	0c21      	lsrs	r1, r4, #16
20008088:	ea41 4202 	orr.w	r2, r1, r2, lsl #16
2000808c:	4290      	cmp	r0, r2
2000808e:	d90a      	bls.n	200080a6 <__udivmoddi4+0x66>
20008090:	18ba      	adds	r2, r7, r2
20008092:	f10c 31ff 	add.w	r1, ip, #4294967295
20008096:	f080 8118 	bcs.w	200082ca <__udivmoddi4+0x28a>
2000809a:	4290      	cmp	r0, r2
2000809c:	f240 8115 	bls.w	200082ca <__udivmoddi4+0x28a>
200080a0:	f1ac 0c02 	sub.w	ip, ip, #2
200080a4:	443a      	add	r2, r7
200080a6:	1a12      	subs	r2, r2, r0
200080a8:	fbb2 f0f8 	udiv	r0, r2, r8
200080ac:	fb08 2210 	mls	r2, r8, r0, r2
200080b0:	fb00 f109 	mul.w	r1, r0, r9
200080b4:	b2a4      	uxth	r4, r4
200080b6:	ea44 4402 	orr.w	r4, r4, r2, lsl #16
200080ba:	42a1      	cmp	r1, r4
200080bc:	d909      	bls.n	200080d2 <__udivmoddi4+0x92>
200080be:	193c      	adds	r4, r7, r4
200080c0:	f100 32ff 	add.w	r2, r0, #4294967295
200080c4:	f080 8103 	bcs.w	200082ce <__udivmoddi4+0x28e>
200080c8:	42a1      	cmp	r1, r4
200080ca:	f240 8100 	bls.w	200082ce <__udivmoddi4+0x28e>
200080ce:	3802      	subs	r0, #2
200080d0:	443c      	add	r4, r7
200080d2:	1a64      	subs	r4, r4, r1
200080d4:	2100      	movs	r1, #0
200080d6:	ea40 400c 	orr.w	r0, r0, ip, lsl #16
200080da:	b11e      	cbz	r6, 200080e4 <__udivmoddi4+0xa4>
200080dc:	2200      	movs	r2, #0
200080de:	40dc      	lsrs	r4, r3
200080e0:	e9c6 4200 	strd	r4, r2, [r6]
200080e4:	e8bd 87f0 	ldmia.w	sp!, {r4, r5, r6, r7, r8, r9, sl, pc}
200080e8:	b902      	cbnz	r2, 200080ec <__udivmoddi4+0xac>
200080ea:	deff      	udf	#255	; 0xff
200080ec:	fab2 f382 	clz	r3, r2
200080f0:	2b00      	cmp	r3, #0
200080f2:	d14f      	bne.n	20008194 <__udivmoddi4+0x154>
200080f4:	1a8d      	subs	r5, r1, r2
200080f6:	2101      	movs	r1, #1
200080f8:	ea4f 4e12 	mov.w	lr, r2, lsr #16
200080fc:	fa1f f882 	uxth.w	r8, r2
20008100:	fbb5 fcfe 	udiv	ip, r5, lr
20008104:	fb0e 551c 	mls	r5, lr, ip, r5
20008108:	fb08 f00c 	mul.w	r0, r8, ip
2000810c:	0c22      	lsrs	r2, r4, #16
2000810e:	ea42 4505 	orr.w	r5, r2, r5, lsl #16
20008112:	42a8      	cmp	r0, r5
20008114:	d907      	bls.n	20008126 <__udivmoddi4+0xe6>
20008116:	197d      	adds	r5, r7, r5
20008118:	f10c 32ff 	add.w	r2, ip, #4294967295
2000811c:	d202      	bcs.n	20008124 <__udivmoddi4+0xe4>
2000811e:	42a8      	cmp	r0, r5
20008120:	f200 80e9 	bhi.w	200082f6 <__udivmoddi4+0x2b6>
20008124:	4694      	mov	ip, r2
20008126:	1a2d      	subs	r5, r5, r0
20008128:	fbb5 f0fe 	udiv	r0, r5, lr
2000812c:	fb0e 5510 	mls	r5, lr, r0, r5
20008130:	fb08 f800 	mul.w	r8, r8, r0
20008134:	b2a4      	uxth	r4, r4
20008136:	ea44 4405 	orr.w	r4, r4, r5, lsl #16
2000813a:	45a0      	cmp	r8, r4
2000813c:	d907      	bls.n	2000814e <__udivmoddi4+0x10e>
2000813e:	193c      	adds	r4, r7, r4
20008140:	f100 32ff 	add.w	r2, r0, #4294967295
20008144:	d202      	bcs.n	2000814c <__udivmoddi4+0x10c>
20008146:	45a0      	cmp	r8, r4
20008148:	f200 80d9 	bhi.w	200082fe <__udivmoddi4+0x2be>
2000814c:	4610      	mov	r0, r2
2000814e:	eba4 0408 	sub.w	r4, r4, r8
20008152:	ea40 400c 	orr.w	r0, r0, ip, lsl #16
20008156:	e7c0      	b.n	200080da <__udivmoddi4+0x9a>
20008158:	428b      	cmp	r3, r1
2000815a:	d908      	bls.n	2000816e <__udivmoddi4+0x12e>
2000815c:	2e00      	cmp	r6, #0
2000815e:	f000 80b1 	beq.w	200082c4 <__udivmoddi4+0x284>
20008162:	2100      	movs	r1, #0
20008164:	e9c6 0500 	strd	r0, r5, [r6]
20008168:	4608      	mov	r0, r1
2000816a:	e8bd 87f0 	ldmia.w	sp!, {r4, r5, r6, r7, r8, r9, sl, pc}
2000816e:	fab3 f183 	clz	r1, r3
20008172:	2900      	cmp	r1, #0
20008174:	d14b      	bne.n	2000820e <__udivmoddi4+0x1ce>
20008176:	42ab      	cmp	r3, r5
20008178:	d302      	bcc.n	20008180 <__udivmoddi4+0x140>
2000817a:	4282      	cmp	r2, r0
2000817c:	f200 80b9 	bhi.w	200082f2 <__udivmoddi4+0x2b2>
20008180:	1a84      	subs	r4, r0, r2
20008182:	eb65 0303 	sbc.w	r3, r5, r3
20008186:	2001      	movs	r0, #1
20008188:	469e      	mov	lr, r3
2000818a:	2e00      	cmp	r6, #0
2000818c:	d0aa      	beq.n	200080e4 <__udivmoddi4+0xa4>
2000818e:	e9c6 4e00 	strd	r4, lr, [r6]
20008192:	e7a7      	b.n	200080e4 <__udivmoddi4+0xa4>
20008194:	409f      	lsls	r7, r3
20008196:	f1c3 0220 	rsb	r2, r3, #32
2000819a:	40d1      	lsrs	r1, r2
2000819c:	ea4f 4e17 	mov.w	lr, r7, lsr #16
200081a0:	fbb1 f0fe 	udiv	r0, r1, lr
200081a4:	fa1f f887 	uxth.w	r8, r7
200081a8:	fb0e 1110 	mls	r1, lr, r0, r1
200081ac:	fa24 f202 	lsr.w	r2, r4, r2
200081b0:	409d      	lsls	r5, r3
200081b2:	fb00 fc08 	mul.w	ip, r0, r8
200081b6:	432a      	orrs	r2, r5
200081b8:	0c15      	lsrs	r5, r2, #16
200081ba:	ea45 4501 	orr.w	r5, r5, r1, lsl #16
200081be:	45ac      	cmp	ip, r5
200081c0:	fa04 f403 	lsl.w	r4, r4, r3
200081c4:	d909      	bls.n	200081da <__udivmoddi4+0x19a>
200081c6:	197d      	adds	r5, r7, r5
200081c8:	f100 31ff 	add.w	r1, r0, #4294967295
200081cc:	f080 808f 	bcs.w	200082ee <__udivmoddi4+0x2ae>
200081d0:	45ac      	cmp	ip, r5
200081d2:	f240 808c 	bls.w	200082ee <__udivmoddi4+0x2ae>
200081d6:	3802      	subs	r0, #2
200081d8:	443d      	add	r5, r7
200081da:	eba5 050c 	sub.w	r5, r5, ip
200081de:	fbb5 f1fe 	udiv	r1, r5, lr
200081e2:	fb0e 5c11 	mls	ip, lr, r1, r5
200081e6:	fb01 f908 	mul.w	r9, r1, r8
200081ea:	b295      	uxth	r5, r2
200081ec:	ea45 450c 	orr.w	r5, r5, ip, lsl #16
200081f0:	45a9      	cmp	r9, r5
200081f2:	d907      	bls.n	20008204 <__udivmoddi4+0x1c4>
200081f4:	197d      	adds	r5, r7, r5
200081f6:	f101 32ff 	add.w	r2, r1, #4294967295
200081fa:	d274      	bcs.n	200082e6 <__udivmoddi4+0x2a6>
200081fc:	45a9      	cmp	r9, r5
200081fe:	d972      	bls.n	200082e6 <__udivmoddi4+0x2a6>
20008200:	3902      	subs	r1, #2
20008202:	443d      	add	r5, r7
20008204:	eba5 0509 	sub.w	r5, r5, r9
20008208:	ea41 4100 	orr.w	r1, r1, r0, lsl #16
2000820c:	e778      	b.n	20008100 <__udivmoddi4+0xc0>
2000820e:	f1c1 0720 	rsb	r7, r1, #32
20008212:	408b      	lsls	r3, r1
20008214:	fa22 fc07 	lsr.w	ip, r2, r7
20008218:	ea4c 0c03 	orr.w	ip, ip, r3
2000821c:	fa25 f407 	lsr.w	r4, r5, r7
20008220:	ea4f 4e1c 	mov.w	lr, ip, lsr #16
20008224:	fbb4 f9fe 	udiv	r9, r4, lr
20008228:	fa1f f88c 	uxth.w	r8, ip
2000822c:	fb0e 4419 	mls	r4, lr, r9, r4
20008230:	fa20 f307 	lsr.w	r3, r0, r7
20008234:	fb09 fa08 	mul.w	sl, r9, r8
20008238:	408d      	lsls	r5, r1
2000823a:	431d      	orrs	r5, r3
2000823c:	0c2b      	lsrs	r3, r5, #16
2000823e:	ea43 4404 	orr.w	r4, r3, r4, lsl #16
20008242:	45a2      	cmp	sl, r4
20008244:	fa02 f201 	lsl.w	r2, r2, r1
20008248:	fa00 f301 	lsl.w	r3, r0, r1
2000824c:	d909      	bls.n	20008262 <__udivmoddi4+0x222>
2000824e:	eb1c 0404 	adds.w	r4, ip, r4
20008252:	f109 30ff 	add.w	r0, r9, #4294967295
20008256:	d248      	bcs.n	200082ea <__udivmoddi4+0x2aa>
20008258:	45a2      	cmp	sl, r4
2000825a:	d946      	bls.n	200082ea <__udivmoddi4+0x2aa>
2000825c:	f1a9 0902 	sub.w	r9, r9, #2
20008260:	4464      	add	r4, ip
20008262:	eba4 040a 	sub.w	r4, r4, sl
20008266:	fbb4 f0fe 	udiv	r0, r4, lr
2000826a:	fb0e 4410 	mls	r4, lr, r0, r4
2000826e:	fb00 fa08 	mul.w	sl, r0, r8
20008272:	b2ad      	uxth	r5, r5
20008274:	ea45 4404 	orr.w	r4, r5, r4, lsl #16
20008278:	45a2      	cmp	sl, r4
2000827a:	d908      	bls.n	2000828e <__udivmoddi4+0x24e>
2000827c:	eb1c 0404 	adds.w	r4, ip, r4
20008280:	f100 35ff 	add.w	r5, r0, #4294967295
20008284:	d22d      	bcs.n	200082e2 <__udivmoddi4+0x2a2>
20008286:	45a2      	cmp	sl, r4
20008288:	d92b      	bls.n	200082e2 <__udivmoddi4+0x2a2>
2000828a:	3802      	subs	r0, #2
2000828c:	4464      	add	r4, ip
2000828e:	ea40 4009 	orr.w	r0, r0, r9, lsl #16
20008292:	fba0 8902 	umull	r8, r9, r0, r2
20008296:	eba4 040a 	sub.w	r4, r4, sl
2000829a:	454c      	cmp	r4, r9
2000829c:	46c6      	mov	lr, r8
2000829e:	464d      	mov	r5, r9
200082a0:	d319      	bcc.n	200082d6 <__udivmoddi4+0x296>
200082a2:	d016      	beq.n	200082d2 <__udivmoddi4+0x292>
200082a4:	b15e      	cbz	r6, 200082be <__udivmoddi4+0x27e>
200082a6:	ebb3 020e 	subs.w	r2, r3, lr
200082aa:	eb64 0405 	sbc.w	r4, r4, r5
200082ae:	fa04 f707 	lsl.w	r7, r4, r7
200082b2:	fa22 f301 	lsr.w	r3, r2, r1
200082b6:	431f      	orrs	r7, r3
200082b8:	40cc      	lsrs	r4, r1
200082ba:	e9c6 7400 	strd	r7, r4, [r6]
200082be:	2100      	movs	r1, #0
200082c0:	e8bd 87f0 	ldmia.w	sp!, {r4, r5, r6, r7, r8, r9, sl, pc}
200082c4:	4631      	mov	r1, r6
200082c6:	4630      	mov	r0, r6
200082c8:	e70c      	b.n	200080e4 <__udivmoddi4+0xa4>
200082ca:	468c      	mov	ip, r1
200082cc:	e6eb      	b.n	200080a6 <__udivmoddi4+0x66>
200082ce:	4610      	mov	r0, r2
200082d0:	e6ff      	b.n	200080d2 <__udivmoddi4+0x92>
200082d2:	4543      	cmp	r3, r8
200082d4:	d2e6      	bcs.n	200082a4 <__udivmoddi4+0x264>
200082d6:	ebb8 0e02 	subs.w	lr, r8, r2
200082da:	eb69 050c 	sbc.w	r5, r9, ip
200082de:	3801      	subs	r0, #1
200082e0:	e7e0      	b.n	200082a4 <__udivmoddi4+0x264>
200082e2:	4628      	mov	r0, r5
200082e4:	e7d3      	b.n	2000828e <__udivmoddi4+0x24e>
200082e6:	4611      	mov	r1, r2
200082e8:	e78c      	b.n	20008204 <__udivmoddi4+0x1c4>
200082ea:	4681      	mov	r9, r0
200082ec:	e7b9      	b.n	20008262 <__udivmoddi4+0x222>
200082ee:	4608      	mov	r0, r1
200082f0:	e773      	b.n	200081da <__udivmoddi4+0x19a>
200082f2:	4608      	mov	r0, r1
200082f4:	e749      	b.n	2000818a <__udivmoddi4+0x14a>
200082f6:	f1ac 0c02 	sub.w	ip, ip, #2
200082fa:	443d      	add	r5, r7
200082fc:	e713      	b.n	20008126 <__udivmoddi4+0xe6>
200082fe:	3802      	subs	r0, #2
20008300:	443c      	add	r4, r7
20008302:	e724      	b.n	2000814e <__udivmoddi4+0x10e>

20008304 <__aeabi_idiv0>:
__aeabi_idiv0():
20008304:	4770      	bx	lr
20008306:	bf00      	nop

20008308 <g_nvm>:
20008308:	0000 6008 0000 600c                         ...`...`

20008310 <g_nvm32>:
20008310:	0000 6008 0000 600c 6548 7061 6120 646e     ...`...`Heap and
20008320:	7320 6174 6b63 6320 6c6f 696c 6973 6e6f      stack collision
20008330:	000a 0000 754f 2074 666f 6820 6165 2070     ....Out of heap 
20008340:	656d 6f6d 7972 000a 0100 0100 0202 0303     memory..........
20008350:	0d0a 2a2a 2a2a 2a2a 2a2a 2a2a 2a2a 2a2a     ..**************
20008360:	2a2a 2a2a 2a2a 2a2a 2a2a 2a2a 2a2a 2a2a     ****************
20008370:	2a2a 2a2a 2a2a 2a2a 2a2a 2a2a 2a2a 2a2a     ****************
20008380:	2a2a 2a2a 2a2a 2a2a 2a2a 2a2a 2a2a 2a2a     ****************
20008390:	2a2a 2a2a 2a2a 2a2a 0d0a 0000 0000 0000     ********........
	...
2000841c:	0d0a 2d20 452d 5252 524f 2d2d 6120 2074     .. --ERROR-- at 
2000842c:	6461 7264 7365 2073 2325 2058 3d3d 203e     address %#X ==> 
2000843c:	7a25 2075 7369 6e20 746f 2520 0075 0000     %zu is not %u...
2000844c:	0d0a 2520 5823 3d20 3e3d 2520 757a 0020     .. %#X ==> %zu .
2000845c:	6574 7473 742e 7478 0000 0000 2a2a 2a2a     test.txt....****
2000846c:	2a2a 2a2a 2a2a 2a2a 2a2a 2a2a 2a2a 2a2a     ****************
2000847c:	5320 616d 7472 7546 6973 6e6f 2032 4e65      SmartFusion2 eN
2000848c:	4d56 5420 5345 5354 2a20 2a2a 2a2a 2a2a     VM TESTS *******
2000849c:	2a2a 2a2a 2a2a 2a2a 2a2a 2a2a 2a2a 2a2a     ****************
200084ac:	0a2a 000d 2a2a 2a2a 2a2a 2a2a 2a2a 2a2a     *...************
200084bc:	2a2a 2a2a 2a2a 2a2a 2a2a 2a2a 2a2a 2a2a     ****************
200084cc:	2a2a 2a2a 2a2a 2a2a 2a2a 2a2a 2a2a 2a2a     ****************
200084dc:	2a2a 2a2a 2a2a 2a2a 2a2a 2a2a 2a2a 2a2a     ****************
200084ec:	2a2a 2a2a 2a2a 2a2a 2a2a 0d0a 0000 0000     **********......
200084fc:	6e49 7469 6169 696c 697a 676e 6d20 6d65     Initializing mem
2000850c:	726f 2e79 2e2e 0d0a 0000 0000 4553 454c     ory.........SELE
2000851c:	5443 3a20 0d0a 0000 2e31 7245 7361 2065     CT :....1.Erase 
2000852c:	6c61 206c 0d0a 0000 2e32 6552 6461 3020     all ....2.Read 0
2000853c:	0a20 000d 2e33 6552 6461 5620 6c61 6575      ...3.Read Value
2000854c:	0a20 000d 2e34 7257 7469 2065 2030 0d0a      ...4.Write 0 ..
2000855c:	0000 0000 2e35 7257 7469 2065 6156 756c     ....5.Write Valu
2000856c:	2065 0d0a 0000 0000 2e36 5845 5449 0a20     e ......6.EXIT .
2000857c:	000d 0000 7245 7361 6e69 2067 656d 6f6d     ....Erasing memo
2000858c:	7972 2e2e 0a2e 000d 6552 6461 6e69 2067     ry......Reading 
2000859c:	2e30 2e2e 0d0a 0000 0d0a 4620 7561 746c     0......... Fault
200085ac:	3a73 2520 757a 0000 6552 6461 6e69 2067     s: %zu..Reading 
200085bc:	6156 756c 2e65 2e2e 0d0a 0000 7257 7469     Value.......Writ
200085cc:	6974 676e 3020 2e2e 0a2e 000d 7257 7469     ting 0......Writ
200085dc:	6974 676e 5620 6c61 6575 2e2e 0a2e 000d     ting Value......
200085ec:	aaaa aaaa aaaa aaaa aaaa aaaa aaaa aaaa     ................
200085fc:	aaaa aaaa aaaa aaaa aaaa aaaa aaaa aaaa     ................
2000860c:	aaaa aaaa aaaa aaaa aaaa aaaa aaaa aaaa     ................
2000861c:	aaaa aaaa aaaa aaaa aaaa aaaa aaaa aaaa     ................
2000862c:	aaaa aaaa aaaa aaaa aaaa aaaa aaaa aaaa     ................
2000863c:	aaaa aaaa aaaa aaaa aaaa aaaa aaaa aaaa     ................
2000864c:	aaaa aaaa aaaa aaaa aaaa aaaa aaaa aaaa     ................
2000865c:	aaaa aaaa aaaa aaaa aaaa aaaa aaaa aaaa     ................
2000866c:	0d0a 525b 4354 542d 6d69 5d65 2509 3a75     ..[RTC-Time].%u:
2000867c:	3025 7532 253a 3230 3a75 3025 7532 2820     %02u:%02u:%02u (
2000868c:	6144 2c79 6820 756f 2c72 6d20 6e69 7475     Day, hour, minut
2000869c:	2c65 7320 6365 6e6f 2964 0000               e, second)..

200086a8 <_global_impure_ptr>:
200086a8:	8990 2000 4e49 0046 6e69 0066 414e 004e     ... INF.inf.NAN.
200086b8:	616e 006e 3130 3332 3534 3736 3938 6261     nan.0123456789ab
200086c8:	6463 6665 0000 0000 3130 3332 3534 3736     cdef....01234567
200086d8:	3938 4241 4443 4645 0000 0000 6e28 6c75     89ABCDEF....(nul
200086e8:	296c 0000 0030 0000                         l)..0...

200086f0 <blanks.7351>:
200086f0:	2020 2020 2020 2020 2020 2020 2020 2020                     

20008700 <zeroes.7352>:
20008700:	3030 3030 3030 3030 3030 3030 3030 3030     0000000000000000
20008710:	614e 004e 6e49 6966 696e 7974 0000 0000     NaN.Infinity....

20008720 <__mprec_bigtens>:
20008720:	8000 37e0 c379 4341 6e17 b505 b8b5 4693     ...7y.AC.n.....F
20008730:	f9f5 e93f 4f03 4d38 1d32 f930 7748 5a82     ..?..O8M2.0.Hw.Z
20008740:	bf3c 7f73 4fdd 7515                         <.s..O.u

20008748 <__mprec_tens>:
20008748:	0000 0000 0000 3ff0 0000 0000 0000 4024     .......?......$@
20008758:	0000 0000 0000 4059 0000 0000 4000 408f     ......Y@.....@.@
20008768:	0000 0000 8800 40c3 0000 0000 6a00 40f8     .......@.....j.@
20008778:	0000 0000 8480 412e 0000 0000 12d0 4163     .......A......cA
20008788:	0000 0000 d784 4197 0000 0000 cd65 41cd     .......A....e..A
20008798:	0000 2000 a05f 4202 0000 e800 4876 4237     ... _..B....vH7B
200087a8:	0000 a200 1a94 426d 0000 e540 309c 42a2     ......mB..@..0.B
200087b8:	0000 1e90 bcc4 42d6 0000 2634 6bf5 430c     .......B..4&.k.C
200087c8:	8000 37e0 c379 4341 a000 85d8 3457 4376     ...7y.AC....W4vC
200087d8:	c800 674e c16d 43ab 3d00 6091 58e4 43e1     ..Ngm..C.=.`.X.C
200087e8:	8c40 78b5 af1d 4415 ef50 d6e2 1ae4 444b     @..x...DP.....KD
200087f8:	d592 064d f0cf 4480 4af6 c7e1 2d02 44b5     ..M....D.J...-.D
20008808:	9db4 79d9 7843 44ea                         ...yCx.D

20008810 <p05.6115>:
20008810:	0005 0000 0019 0000 007d 0000 0043 0000     ........}...C...
20008820:	4f50 4953 0058 0000 002e 0000               POSIX.......

2000882c <_ctype_>:
2000882c:	2000 2020 2020 2020 2020 2828 2828 2028     .         ((((( 
2000883c:	2020 2020 2020 2020 2020 2020 2020 2020                     
2000884c:	8820 1010 1010 1010 1010 1010 1010 1010      ...............
2000885c:	0410 0404 0404 0404 0404 1004 1010 1010     ................
2000886c:	1010 4141 4141 4141 0101 0101 0101 0101     ..AAAAAA........
2000887c:	0101 0101 0101 0101 0101 0101 1010 1010     ................
2000888c:	1010 4242 4242 4242 0202 0202 0202 0202     ..BBBBBB........
2000889c:	0202 0202 0202 0202 0202 0202 1010 1010     ................
200088ac:	0020 0000 0000 0000 0000 0000 0000 0000      ...............
	...

20008930 <_init>:
_init():
20008930:	b5f8      	push	{r3, r4, r5, r6, r7, lr}
20008932:	bf00      	nop
20008934:	bcf8      	pop	{r3, r4, r5, r6, r7}
20008936:	bc08      	pop	{r3}
20008938:	469e      	mov	lr, r3
2000893a:	4770      	bx	lr

2000893c <_fini>:
_fini():
2000893c:	b5f8      	push	{r3, r4, r5, r6, r7, lr}
2000893e:	bf00      	nop
20008940:	bcf8      	pop	{r3, r4, r5, r6, r7}
20008942:	bc08      	pop	{r3}
20008944:	469e      	mov	lr, r3
20008946:	4770      	bx	lr

20008948 <__init_array_start>:
__preinit_array_start():
20008948:	2000553d 	.word	0x2000553d

2000894c <__frame_dummy_init_array_entry>:
2000894c:	200004d5                                ... 

20008950 <__do_global_dtors_aux_fini_array_entry>:
__init_array_end():
20008950:	200004b1                                ... 

20008954 <__fini_array_end>:
	...
